(dp1
S'output'
p2
S"<type 'exceptions.SyntaxError'> Field: invalid field name: on"
p3
sS'layer'
p4
S'/home/darshan/web2py/applications/Garbage_Truck/models/db.py'
p5
sS'code'
p6
S"# -*- coding: utf-8 -*-\n\n#########################################################################\n## This scaffolding model makes your app work on Google App Engine too\n## File is released under public domain and you can use without limitations\n#########################################################################\n\n## if SSL/HTTPS is properly configured and you want all HTTP requests to\n## be redirected to HTTPS, uncomment the line below:\n# request.requires_https()\n\nif not request.env.web2py_runtime_gae:\n    ## if NOT running on Google App Engine use SQLite or other DB\n    db = DAL('sqlite://storage.sqlite',pool_size=1,check_reserved=['all'])\nelse:\n    ## connect to Google BigTable (optional 'google:datastore://namespace')\n    db = DAL('google:datastore')\n    ## store sessions and tickets there\n    session.connect(request, response, db=db)\n    ## or store session in Memcache, Redis, etc.\n    ## from gluon.contrib.memdb import MEMDB\n    ## from google.appengine.api.memcache import Client\n    ## session.connect(request, response, db = MEMDB(Client()))\n\n## by default give a view/generic.extension to all actions from localhost\n## none otherwise. a pattern can be 'controller/function.extension'\nresponse.generic_patterns = ['*'] if request.is_local else []\n## (optional) optimize handling of static files\n# response.optimize_css = 'concat,minify,inline'\n# response.optimize_js = 'concat,minify,inline'\n\n#########################################################################\n## Here is sample code if you need for\n## - email capabilities\n## - authentication (registration, login, logout, ... )\n## - authorization (role based authorization)\n## - services (xml, csv, json, xmlrpc, jsonrpc, amf, rss)\n## - old style crud actions\n## (more options discussed in gluon/tools.py)\n#########################################################################\n\nfrom gluon.tools import Auth, Crud, Service, PluginManager, prettydate\nauth = Auth(db)\ncrud, service, plugins = Crud(db), Service(), PluginManager()\n\n## create all tables needed by auth if not custom tables\nauth.define_tables(username=False, signature=False)\n\n## configure email\nmail = auth.settings.mailer\nmail.settings.server = 'logging' or 'smtp.gmail.com:587'\nmail.settings.sender = 'you@gmail.com'\nmail.settings.login = 'username:password'\n\n## configure auth policy\nauth.settings.registration_requires_verification = False\nauth.settings.registration_requires_approval = False\nauth.settings.reset_password_requires_verification = True\n\n## if you need to use OpenID, Facebook, MySpace, Twitter, Linkedin, etc.\n## register with janrain.com, write your domain:api_key in private/janrain.key\nfrom gluon.contrib.login_methods.rpx_account import use_janrain\nuse_janrain(auth, filename='private/janrain.key')\n\n#########################################################################\n## Define your tables below (or better in another model file) for example\n##\n## >>> db.define_table('mytable',Field('myfield','string'))\n##\n## Fields can be 'string','text','password','integer','double','boolean'\n##       'date','time','datetime','blob','upload', 'reference TABLENAME'\n## There is an implicit 'id integer autoincrement' field\n## Consult manual for more options, validators, etc.\n##\n## More API examples for controllers:\n##\n## >>> db.mytable.insert(myfield='value')\n## >>> rows=db(db.mytable.myfield=='value').select(db.mytable.ALL)\n## >>> for row in rows: print row.id, row.myfield\n#########################################################################\n\n## after defining tables, uncomment below to enable auditing\n# auth.enable_record_versioning(db)\n\ndb.define_table('consumer',\n    Field('user_id',db.auth_user,requires=IS_IN_DB(db,'auth_user.id','auth_user.first_name')),\n    Field('dob','datetime',requires=IS_NOT_EMPTY()),\n    Field('gender',requires=IS_IN_SET(['M','F'])),\n    Field('occupation','string',requires=IS_NOT_EMPTY()),\n    Field('house_no','string',requires=IS_NOT_EMPTY()),\n    Field('street','string'),\n    Field('location1','string',requires=IS_NOT_EMPTY()),\n    Field('state1','string',default='Telangana',requires=IS_NOT_EMPTY()),\n    Field('pin','integer',requires=IS_NOT_EMPTY()),\n    Field('phone','integer',requires=IS_NOT_EMPTY()))\n\ndb.define_table('report_present',\n   Field('user_id',db.auth_user,requires=IS_IN_DB(db,'auth_user.id','auth_user.first_name')),\n   #Field('status',requires=IS_IN_SET(['1','2','3','4','5'])),\n   Field('on',default=request.now),\n   Field('comment','text'),\n   Field('rating',requires=IS_IN_SET(['1','2','3','4','5'])),\n   Field('ghmc_no','string'))\n   \ndb.define_table('report_absent',\n   Field('user_id',db.auth_user,requires=IS_IN_DB(db,'auth_user.id','auth_user.first_name')),\n   #Field('status',requires=IS_IN_SET(['1','2','3','4','5'])),\n   Field('on',default=request.now),\n   Field('comment','text'))\n  \n   \ndb.define_table('request_festive',\n   Field('user_id',db.auth_user,requires=IS_IN_DB(db,'auth_user.id','auth_user.first_name')),\n   Field('on',default=request.now),\n   Field('reason',requires=IS_IN_SET(['Festival','Marriage/Function','Other'])),\n   Field('comment','text'))\n   \n\ndb.define_table('request_collection',\n   Field('user_id',db.auth_user,requires=IS_IN_DB(db,'auth_user.id','auth_user.first_name')),\n   Field('on',default=request.now),\n   Field('comment','text'),\n   Field('street','string'),\n   Field('location1','string',requires=IS_NOT_EMPTY()),\n   Field('state1','string',default='Telangana',requires=IS_NOT_EMPTY()),\n   Field('pin','integer',requires=IS_NOT_EMPTY()))   \n   \n         \ndb.define_table('gmc_det',\n   Field('worker_id',db.report,requires=IS_IN_DB(db,'report.id','report.id')),\n   Field('area','string'),\n   Field('name','string'))\n"
p7
sS'snapshot'
p8
(dp9
S'exception'
p10
(dp11
S'__getslice__'
p12
S"<method-wrapper '__getslice__' of exceptions.SyntaxError object>"
p13
sS'text'
p14
S'None'
p15
sS'__str__'
p16
S"<method-wrapper '__str__' of exceptions.SyntaxError object>"
p17
sS'__reduce__'
p18
S'<built-in method __reduce__ of exceptions.SyntaxError object>'
p19
sS'__dict__'
p20
S'{}'
p21
sS'__sizeof__'
p22
S'<built-in method __sizeof__ of exceptions.SyntaxError object>'
p23
sS'__init__'
p24
S"<method-wrapper '__init__' of exceptions.SyntaxError object>"
p25
sS'__setattr__'
p26
S"<method-wrapper '__setattr__' of exceptions.SyntaxError object>"
p27
sS'__reduce_ex__'
p28
S'<built-in method __reduce_ex__ of exceptions.SyntaxError object>'
p29
sS'__new__'
p30
S'<built-in method __new__ of type object>'
p31
sS'__format__'
p32
S'<built-in method __format__ of exceptions.SyntaxError object>'
p33
sS'__class__'
p34
S"<type 'exceptions.SyntaxError'>"
p35
sS'filename'
p36
S'None'
p37
sS'lineno'
p38
S'None'
p39
sS'msg'
p40
S"'Field: invalid field name: on'"
p41
sS'__doc__'
p42
S"'Invalid syntax.'"
p43
sS'__getitem__'
p44
S"<method-wrapper '__getitem__' of exceptions.SyntaxError object>"
p45
sS'__setstate__'
p46
S'<built-in method __setstate__ of exceptions.SyntaxError object>'
p47
sS'__getattribute__'
p48
S"<method-wrapper '__getattribute__' of exceptions.SyntaxError object>"
p49
sS'print_file_and_line'
p50
S'None'
p51
sS'args'
p52
S"('Field: invalid field name: on',)"
p53
sS'__subclasshook__'
p54
S'<built-in method __subclasshook__ of type object>'
p55
sS'offset'
p56
S'None'
p57
sS'__unicode__'
p58
S'<built-in method __unicode__ of exceptions.SyntaxError object>'
p59
sS'__delattr__'
p60
S"<method-wrapper '__delattr__' of exceptions.SyntaxError object>"
p61
sS'__repr__'
p62
S"<method-wrapper '__repr__' of exceptions.SyntaxError object>"
p63
sS'__hash__'
p64
S"<method-wrapper '__hash__' of exceptions.SyntaxError object>"
p65
ssS'evalue'
p66
S'Field: invalid field name: on'
p67
sS'request'
p68
ccopy_reg
_reconstructor
p69
(cgluon.html
BEAUTIFY
p70
c__builtin__
object
p71
NtRp72
(dp73
S'attributes'
p74
(dp75
sS'components'
p76
(lp77
g69
(cgluon.html
TABLE
p78
g71
NtRp79
(dp80
g74
(dp81
S'level'
p82
I5
ssS'parent'
p83
Nsg76
(lp84
g69
(cgluon.html
TR
p85
g71
NtRp86
(dp87
g74
(dp88
sg83
g79
sg76
(lp89
g69
(cgluon.html
TD
p90
g71
NtRp91
(dp92
g74
(dp93
S'_style'
p94
S'font-weight:bold;vertical-align:top'
p95
ssg83
g86
sg76
(lp96
S'ajax'
p97
asbag69
(g90
g71
NtRp98
(dp99
g74
(dp100
S'_valign'
p101
S'top'
p102
ssg83
g86
sg76
(lp103
S':'
asbag69
(g90
g71
NtRp104
(dp105
g74
(dp106
sg83
g86
sg76
(lp107
g69
(g70
g71
NtRp108
(dp109
g74
(dp110
g82
I5
ssg83
g104
sg76
(lp111
S'False'
p112
asbasbasbag69
(g85
g71
NtRp113
(dp114
g74
(dp115
sg83
g79
sg76
(lp116
g69
(g90
g71
NtRp117
(dp118
g74
(dp119
g94
g95
ssg83
g113
sg76
(lp120
S'application'
p121
asbag69
(g90
g71
NtRp122
(dp123
g74
(dp124
g101
g102
ssg83
g113
sg76
(lp125
S':'
asbag69
(g90
g71
NtRp126
(dp127
g74
(dp128
sg83
g113
sg76
(lp129
g69
(g70
g71
NtRp130
(dp131
g74
(dp132
g82
I5
ssg83
g126
sg76
(lp133
S'Garbage_Truck'
p134
asbasbasbag69
(g85
g71
NtRp135
(dp136
g74
(dp137
sg83
g79
sg76
(lp138
g69
(g90
g71
NtRp139
(dp140
g74
(dp141
g94
g95
ssg83
g135
sg76
(lp142
g52
asbag69
(g90
g71
NtRp143
(dp144
g74
(dp145
g101
g102
ssg83
g135
sg76
(lp146
S':'
asbag69
(g90
g71
NtRp147
(dp148
g74
(dp149
sg83
g135
sg76
(lp150
g69
(g70
g71
NtRp151
(dp152
g74
(dp153
g82
I5
ssg83
g147
sg76
(lp154
g69
(g78
g71
NtRp155
(dp156
g74
(dp157
g82
I4
ssg83
Nsg76
(lp158
sbasbasbasbag69
(g85
g71
NtRp159
(dp160
g74
(dp161
sg83
g79
sg76
(lp162
g69
(g90
g71
NtRp163
(dp164
g74
(dp165
g94
g95
ssg83
g159
sg76
(lp166
S'body'
p167
asbag69
(g90
g71
NtRp168
(dp169
g74
(dp170
g101
g102
ssg83
g159
sg76
(lp171
S':'
asbag69
(g90
g71
NtRp172
(dp173
g74
(dp174
sg83
g159
sg76
(lp175
g69
(g70
g71
NtRp176
(dp177
g74
(dp178
g82
I5
ssg83
g172
sg76
(lp179
S'<cStringIO.StringO object at 0x7f92bab187a0>'
p180
asbasbasbag69
(g85
g71
NtRp181
(dp182
g74
(dp183
sg83
g79
sg76
(lp184
g69
(g90
g71
NtRp185
(dp186
g74
(dp187
g94
g95
ssg83
g181
sg76
(lp188
S'cid'
p189
asbag69
(g90
g71
NtRp190
(dp191
g74
(dp192
g101
g102
ssg83
g181
sg76
(lp193
S':'
asbag69
(g90
g71
NtRp194
(dp195
g74
(dp196
sg83
g181
sg76
(lp197
g69
(g70
g71
NtRp198
(dp199
g74
(dp200
g82
I5
ssg83
g194
sg76
(lp201
S'None'
p202
asbasbasbag69
(g85
g71
NtRp203
(dp204
g74
(dp205
sg83
g79
sg76
(lp206
g69
(g90
g71
NtRp207
(dp208
g74
(dp209
g94
g95
ssg83
g203
sg76
(lp210
S'client'
p211
asbag69
(g90
g71
NtRp212
(dp213
g74
(dp214
g101
g102
ssg83
g203
sg76
(lp215
S':'
asbag69
(g90
g71
NtRp216
(dp217
g74
(dp218
sg83
g203
sg76
(lp219
g69
(g70
g71
NtRp220
(dp221
g74
(dp222
g82
I5
ssg83
g216
sg76
(lp223
S'127.0.0.1'
p224
asbasbasbag69
(g85
g71
NtRp225
(dp226
g74
(dp227
sg83
g79
sg76
(lp228
g69
(g90
g71
NtRp229
(dp230
g74
(dp231
g94
g95
ssg83
g225
sg76
(lp232
S'controller'
p233
asbag69
(g90
g71
NtRp234
(dp235
g74
(dp236
g101
g102
ssg83
g225
sg76
(lp237
S':'
asbag69
(g90
g71
NtRp238
(dp239
g74
(dp240
sg83
g225
sg76
(lp241
g69
(g70
g71
NtRp242
(dp243
g74
(dp244
g82
I5
ssg83
g238
sg76
(lp245
S'appadmin'
p246
asbasbasbag69
(g85
g71
NtRp247
(dp248
g74
(dp249
sg83
g79
sg76
(lp250
g69
(g90
g71
NtRp251
(dp252
g74
(dp253
g94
g95
ssg83
g247
sg76
(lp254
S'cookies'
p255
asbag69
(g90
g71
NtRp256
(dp257
g74
(dp258
g101
g102
ssg83
g247
sg76
(lp259
S':'
asbag69
(g90
g71
NtRp260
(dp261
g74
(dp262
sg83
g247
sg76
(lp263
g69
(g70
g71
NtRp264
(dp265
g74
(dp266
g82
I5
ssg83
g260
sg76
(lp267
g69
(g78
g71
NtRp268
(dp269
g74
(dp270
g82
I4
ssg83
Nsg76
(lp271
g69
(g85
g71
NtRp272
(dp273
g74
(dp274
sg83
g268
sg76
(lp275
g69
(g90
g71
NtRp276
(dp277
g74
(dp278
g94
g95
ssg83
g272
sg76
(lp279
S'csrftoken'
p280
asbag69
(g90
g71
NtRp281
(dp282
g74
(dp283
g101
g102
ssg83
g272
sg76
(lp284
S':'
asbag69
(g90
g71
NtRp285
(dp286
g74
(dp287
sg83
g272
sg76
(lp288
g69
(g70
g71
NtRp289
(dp290
g74
(dp291
g82
I4
ssg83
g285
sg76
(lp292
S'a9lCt5w7Q4OG437IZNwjtNB3YEdWYXWm'
p293
ag69
(g78
g71
NtRp294
(dp295
g74
(dp296
g82
I3
ssg83
Nsg76
(lp297
g69
(g85
g71
NtRp298
(dp299
g74
(dp300
sg83
g294
sg76
(lp301
g69
(g90
g71
NtRp302
(dp303
g74
(dp304
g94
g95
ssg83
g298
sg76
(lp305
S'comment'
p306
asbag69
(g90
g71
NtRp307
(dp308
g74
(dp309
g101
g102
ssg83
g298
sg76
(lp310
S':'
asbag69
(g90
g71
NtRp311
(dp312
g74
(dp313
sg83
g298
sg76
(lp314
g69
(g70
g71
NtRp315
(dp316
g74
(dp317
g82
I3
ssg83
g311
sg76
(lp318
S''
asbasbasbag69
(g85
g71
NtRp319
(dp320
g74
(dp321
sg83
g294
sg76
(lp322
g69
(g90
g71
NtRp323
(dp324
g74
(dp325
g94
g95
ssg83
g319
sg76
(lp326
S'domain'
p327
asbag69
(g90
g71
NtRp328
(dp329
g74
(dp330
g101
g102
ssg83
g319
sg76
(lp331
S':'
asbag69
(g90
g71
NtRp332
(dp333
g74
(dp334
sg83
g319
sg76
(lp335
g69
(g70
g71
NtRp336
(dp337
g74
(dp338
g82
I3
ssg83
g332
sg76
(lp339
S''
asbasbasbag69
(g85
g71
NtRp340
(dp341
g74
(dp342
sg83
g294
sg76
(lp343
g69
(g90
g71
NtRp344
(dp345
g74
(dp346
g94
g95
ssg83
g340
sg76
(lp347
S'expires'
p348
asbag69
(g90
g71
NtRp349
(dp350
g74
(dp351
g101
g102
ssg83
g340
sg76
(lp352
S':'
asbag69
(g90
g71
NtRp353
(dp354
g74
(dp355
sg83
g340
sg76
(lp356
g69
(g70
g71
NtRp357
(dp358
g74
(dp359
g82
I3
ssg83
g353
sg76
(lp360
S''
asbasbasbag69
(g85
g71
NtRp361
(dp362
g74
(dp363
sg83
g294
sg76
(lp364
g69
(g90
g71
NtRp365
(dp366
g74
(dp367
g94
g95
ssg83
g361
sg76
(lp368
S'httponly'
p369
asbag69
(g90
g71
NtRp370
(dp371
g74
(dp372
g101
g102
ssg83
g361
sg76
(lp373
S':'
asbag69
(g90
g71
NtRp374
(dp375
g74
(dp376
sg83
g361
sg76
(lp377
g69
(g70
g71
NtRp378
(dp379
g74
(dp380
g82
I3
ssg83
g374
sg76
(lp381
S''
asbasbasbag69
(g85
g71
NtRp382
(dp383
g74
(dp384
sg83
g294
sg76
(lp385
g69
(g90
g71
NtRp386
(dp387
g74
(dp388
g94
g95
ssg83
g382
sg76
(lp389
S'max-age'
p390
asbag69
(g90
g71
NtRp391
(dp392
g74
(dp393
g101
g102
ssg83
g382
sg76
(lp394
S':'
asbag69
(g90
g71
NtRp395
(dp396
g74
(dp397
sg83
g382
sg76
(lp398
g69
(g70
g71
NtRp399
(dp400
g74
(dp401
g82
I3
ssg83
g395
sg76
(lp402
S''
asbasbasbag69
(g85
g71
NtRp403
(dp404
g74
(dp405
sg83
g294
sg76
(lp406
g69
(g90
g71
NtRp407
(dp408
g74
(dp409
g94
g95
ssg83
g403
sg76
(lp410
S'path'
p411
asbag69
(g90
g71
NtRp412
(dp413
g74
(dp414
g101
g102
ssg83
g403
sg76
(lp415
S':'
asbag69
(g90
g71
NtRp416
(dp417
g74
(dp418
sg83
g403
sg76
(lp419
g69
(g70
g71
NtRp420
(dp421
g74
(dp422
g82
I3
ssg83
g416
sg76
(lp423
S''
asbasbasbag69
(g85
g71
NtRp424
(dp425
g74
(dp426
sg83
g294
sg76
(lp427
g69
(g90
g71
NtRp428
(dp429
g74
(dp430
g94
g95
ssg83
g424
sg76
(lp431
S'secure'
p432
asbag69
(g90
g71
NtRp433
(dp434
g74
(dp435
g101
g102
ssg83
g424
sg76
(lp436
S':'
asbag69
(g90
g71
NtRp437
(dp438
g74
(dp439
sg83
g424
sg76
(lp440
g69
(g70
g71
NtRp441
(dp442
g74
(dp443
g82
I3
ssg83
g437
sg76
(lp444
S''
asbasbasbag69
(g85
g71
NtRp445
(dp446
g74
(dp447
sg83
g294
sg76
(lp448
g69
(g90
g71
NtRp449
(dp450
g74
(dp451
g94
g95
ssg83
g445
sg76
(lp452
S'version'
p453
asbag69
(g90
g71
NtRp454
(dp455
g74
(dp456
g101
g102
ssg83
g445
sg76
(lp457
S':'
asbag69
(g90
g71
NtRp458
(dp459
g74
(dp460
sg83
g445
sg76
(lp461
g69
(g70
g71
NtRp462
(dp463
g74
(dp464
g82
I3
ssg83
g458
sg76
(lp465
S''
asbasbasbasbasbasbasbag69
(g85
g71
NtRp466
(dp467
g74
(dp468
sg83
g268
sg76
(lp469
g69
(g90
g71
NtRp470
(dp471
g74
(dp472
g94
g95
ssg83
g466
sg76
(lp473
S'session_id_admin'
p474
asbag69
(g90
g71
NtRp475
(dp476
g74
(dp477
g101
g102
ssg83
g466
sg76
(lp478
S':'
asbag69
(g90
g71
NtRp479
(dp480
g74
(dp481
sg83
g466
sg76
(lp482
g69
(g70
g71
NtRp483
(dp484
g74
(dp485
g82
I4
ssg83
g479
sg76
(lp486
S'127.0.0.1-e6c203e9-d008-4610-8523-5a0e93da9abb'
p487
ag69
(g78
g71
NtRp488
(dp489
g74
(dp490
g82
I3
ssg83
Nsg76
(lp491
g69
(g85
g71
NtRp492
(dp493
g74
(dp494
sg83
g488
sg76
(lp495
g69
(g90
g71
NtRp496
(dp497
g74
(dp498
g94
g95
ssg83
g492
sg76
(lp499
g306
asbag69
(g90
g71
NtRp500
(dp501
g74
(dp502
g101
g102
ssg83
g492
sg76
(lp503
S':'
asbag69
(g90
g71
NtRp504
(dp505
g74
(dp506
sg83
g492
sg76
(lp507
g69
(g70
g71
NtRp508
(dp509
g74
(dp510
g82
I3
ssg83
g504
sg76
(lp511
S''
asbasbasbag69
(g85
g71
NtRp512
(dp513
g74
(dp514
sg83
g488
sg76
(lp515
g69
(g90
g71
NtRp516
(dp517
g74
(dp518
g94
g95
ssg83
g512
sg76
(lp519
g327
asbag69
(g90
g71
NtRp520
(dp521
g74
(dp522
g101
g102
ssg83
g512
sg76
(lp523
S':'
asbag69
(g90
g71
NtRp524
(dp525
g74
(dp526
sg83
g512
sg76
(lp527
g69
(g70
g71
NtRp528
(dp529
g74
(dp530
g82
I3
ssg83
g524
sg76
(lp531
S''
asbasbasbag69
(g85
g71
NtRp532
(dp533
g74
(dp534
sg83
g488
sg76
(lp535
g69
(g90
g71
NtRp536
(dp537
g74
(dp538
g94
g95
ssg83
g532
sg76
(lp539
g348
asbag69
(g90
g71
NtRp540
(dp541
g74
(dp542
g101
g102
ssg83
g532
sg76
(lp543
S':'
asbag69
(g90
g71
NtRp544
(dp545
g74
(dp546
sg83
g532
sg76
(lp547
g69
(g70
g71
NtRp548
(dp549
g74
(dp550
g82
I3
ssg83
g544
sg76
(lp551
S''
asbasbasbag69
(g85
g71
NtRp552
(dp553
g74
(dp554
sg83
g488
sg76
(lp555
g69
(g90
g71
NtRp556
(dp557
g74
(dp558
g94
g95
ssg83
g552
sg76
(lp559
g369
asbag69
(g90
g71
NtRp560
(dp561
g74
(dp562
g101
g102
ssg83
g552
sg76
(lp563
S':'
asbag69
(g90
g71
NtRp564
(dp565
g74
(dp566
sg83
g552
sg76
(lp567
g69
(g70
g71
NtRp568
(dp569
g74
(dp570
g82
I3
ssg83
g564
sg76
(lp571
S''
asbasbasbag69
(g85
g71
NtRp572
(dp573
g74
(dp574
sg83
g488
sg76
(lp575
g69
(g90
g71
NtRp576
(dp577
g74
(dp578
g94
g95
ssg83
g572
sg76
(lp579
g390
asbag69
(g90
g71
NtRp580
(dp581
g74
(dp582
g101
g102
ssg83
g572
sg76
(lp583
S':'
asbag69
(g90
g71
NtRp584
(dp585
g74
(dp586
sg83
g572
sg76
(lp587
g69
(g70
g71
NtRp588
(dp589
g74
(dp590
g82
I3
ssg83
g584
sg76
(lp591
S''
asbasbasbag69
(g85
g71
NtRp592
(dp593
g74
(dp594
sg83
g488
sg76
(lp595
g69
(g90
g71
NtRp596
(dp597
g74
(dp598
g94
g95
ssg83
g592
sg76
(lp599
g411
asbag69
(g90
g71
NtRp600
(dp601
g74
(dp602
g101
g102
ssg83
g592
sg76
(lp603
S':'
asbag69
(g90
g71
NtRp604
(dp605
g74
(dp606
sg83
g592
sg76
(lp607
g69
(g70
g71
NtRp608
(dp609
g74
(dp610
g82
I3
ssg83
g604
sg76
(lp611
S''
asbasbasbag69
(g85
g71
NtRp612
(dp613
g74
(dp614
sg83
g488
sg76
(lp615
g69
(g90
g71
NtRp616
(dp617
g74
(dp618
g94
g95
ssg83
g612
sg76
(lp619
g432
asbag69
(g90
g71
NtRp620
(dp621
g74
(dp622
g101
g102
ssg83
g612
sg76
(lp623
S':'
asbag69
(g90
g71
NtRp624
(dp625
g74
(dp626
sg83
g612
sg76
(lp627
g69
(g70
g71
NtRp628
(dp629
g74
(dp630
g82
I3
ssg83
g624
sg76
(lp631
S''
asbasbasbag69
(g85
g71
NtRp632
(dp633
g74
(dp634
sg83
g488
sg76
(lp635
g69
(g90
g71
NtRp636
(dp637
g74
(dp638
g94
g95
ssg83
g632
sg76
(lp639
g453
asbag69
(g90
g71
NtRp640
(dp641
g74
(dp642
g101
g102
ssg83
g632
sg76
(lp643
S':'
asbag69
(g90
g71
NtRp644
(dp645
g74
(dp646
sg83
g632
sg76
(lp647
g69
(g70
g71
NtRp648
(dp649
g74
(dp650
g82
I3
ssg83
g644
sg76
(lp651
S''
asbasbasbasbasbasbasbag69
(g85
g71
NtRp652
(dp653
g74
(dp654
sg83
g268
sg76
(lp655
g69
(g90
g71
NtRp656
(dp657
g74
(dp658
g94
g95
ssg83
g652
sg76
(lp659
S'session_id_isas'
p660
asbag69
(g90
g71
NtRp661
(dp662
g74
(dp663
g101
g102
ssg83
g652
sg76
(lp664
S':'
asbag69
(g90
g71
NtRp665
(dp666
g74
(dp667
sg83
g652
sg76
(lp668
g69
(g70
g71
NtRp669
(dp670
g74
(dp671
g82
I4
ssg83
g665
sg76
(lp672
S'127.0.0.1-46261fb6-868f-4eb5-ae61-7251ec9ac039'
p673
ag69
(g78
g71
NtRp674
(dp675
g74
(dp676
g82
I3
ssg83
Nsg76
(lp677
g69
(g85
g71
NtRp678
(dp679
g74
(dp680
sg83
g674
sg76
(lp681
g69
(g90
g71
NtRp682
(dp683
g74
(dp684
g94
g95
ssg83
g678
sg76
(lp685
g306
asbag69
(g90
g71
NtRp686
(dp687
g74
(dp688
g101
g102
ssg83
g678
sg76
(lp689
S':'
asbag69
(g90
g71
NtRp690
(dp691
g74
(dp692
sg83
g678
sg76
(lp693
g69
(g70
g71
NtRp694
(dp695
g74
(dp696
g82
I3
ssg83
g690
sg76
(lp697
S''
asbasbasbag69
(g85
g71
NtRp698
(dp699
g74
(dp700
sg83
g674
sg76
(lp701
g69
(g90
g71
NtRp702
(dp703
g74
(dp704
g94
g95
ssg83
g698
sg76
(lp705
g327
asbag69
(g90
g71
NtRp706
(dp707
g74
(dp708
g101
g102
ssg83
g698
sg76
(lp709
S':'
asbag69
(g90
g71
NtRp710
(dp711
g74
(dp712
sg83
g698
sg76
(lp713
g69
(g70
g71
NtRp714
(dp715
g74
(dp716
g82
I3
ssg83
g710
sg76
(lp717
S''
asbasbasbag69
(g85
g71
NtRp718
(dp719
g74
(dp720
sg83
g674
sg76
(lp721
g69
(g90
g71
NtRp722
(dp723
g74
(dp724
g94
g95
ssg83
g718
sg76
(lp725
g348
asbag69
(g90
g71
NtRp726
(dp727
g74
(dp728
g101
g102
ssg83
g718
sg76
(lp729
S':'
asbag69
(g90
g71
NtRp730
(dp731
g74
(dp732
sg83
g718
sg76
(lp733
g69
(g70
g71
NtRp734
(dp735
g74
(dp736
g82
I3
ssg83
g730
sg76
(lp737
S''
asbasbasbag69
(g85
g71
NtRp738
(dp739
g74
(dp740
sg83
g674
sg76
(lp741
g69
(g90
g71
NtRp742
(dp743
g74
(dp744
g94
g95
ssg83
g738
sg76
(lp745
g369
asbag69
(g90
g71
NtRp746
(dp747
g74
(dp748
g101
g102
ssg83
g738
sg76
(lp749
S':'
asbag69
(g90
g71
NtRp750
(dp751
g74
(dp752
sg83
g738
sg76
(lp753
g69
(g70
g71
NtRp754
(dp755
g74
(dp756
g82
I3
ssg83
g750
sg76
(lp757
S''
asbasbasbag69
(g85
g71
NtRp758
(dp759
g74
(dp760
sg83
g674
sg76
(lp761
g69
(g90
g71
NtRp762
(dp763
g74
(dp764
g94
g95
ssg83
g758
sg76
(lp765
g390
asbag69
(g90
g71
NtRp766
(dp767
g74
(dp768
g101
g102
ssg83
g758
sg76
(lp769
S':'
asbag69
(g90
g71
NtRp770
(dp771
g74
(dp772
sg83
g758
sg76
(lp773
g69
(g70
g71
NtRp774
(dp775
g74
(dp776
g82
I3
ssg83
g770
sg76
(lp777
S''
asbasbasbag69
(g85
g71
NtRp778
(dp779
g74
(dp780
sg83
g674
sg76
(lp781
g69
(g90
g71
NtRp782
(dp783
g74
(dp784
g94
g95
ssg83
g778
sg76
(lp785
g411
asbag69
(g90
g71
NtRp786
(dp787
g74
(dp788
g101
g102
ssg83
g778
sg76
(lp789
S':'
asbag69
(g90
g71
NtRp790
(dp791
g74
(dp792
sg83
g778
sg76
(lp793
g69
(g70
g71
NtRp794
(dp795
g74
(dp796
g82
I3
ssg83
g790
sg76
(lp797
S''
asbasbasbag69
(g85
g71
NtRp798
(dp799
g74
(dp800
sg83
g674
sg76
(lp801
g69
(g90
g71
NtRp802
(dp803
g74
(dp804
g94
g95
ssg83
g798
sg76
(lp805
g432
asbag69
(g90
g71
NtRp806
(dp807
g74
(dp808
g101
g102
ssg83
g798
sg76
(lp809
S':'
asbag69
(g90
g71
NtRp810
(dp811
g74
(dp812
sg83
g798
sg76
(lp813
g69
(g70
g71
NtRp814
(dp815
g74
(dp816
g82
I3
ssg83
g810
sg76
(lp817
S''
asbasbasbag69
(g85
g71
NtRp818
(dp819
g74
(dp820
sg83
g674
sg76
(lp821
g69
(g90
g71
NtRp822
(dp823
g74
(dp824
g94
g95
ssg83
g818
sg76
(lp825
g453
asbag69
(g90
g71
NtRp826
(dp827
g74
(dp828
g101
g102
ssg83
g818
sg76
(lp829
S':'
asbag69
(g90
g71
NtRp830
(dp831
g74
(dp832
sg83
g818
sg76
(lp833
g69
(g70
g71
NtRp834
(dp835
g74
(dp836
g82
I3
ssg83
g830
sg76
(lp837
S''
asbasbasbasbasbasbasbag69
(g85
g71
NtRp838
(dp839
g74
(dp840
sg83
g268
sg76
(lp841
g69
(g90
g71
NtRp842
(dp843
g74
(dp844
g94
g95
ssg83
g838
sg76
(lp845
S'session_id_readit'
p846
asbag69
(g90
g71
NtRp847
(dp848
g74
(dp849
g101
g102
ssg83
g838
sg76
(lp850
S':'
asbag69
(g90
g71
NtRp851
(dp852
g74
(dp853
sg83
g838
sg76
(lp854
g69
(g70
g71
NtRp855
(dp856
g74
(dp857
g82
I4
ssg83
g851
sg76
(lp858
S'127.0.0.1-e391c20a-8d22-4e6d-a1c8-f85c00f99b3d'
p859
ag69
(g78
g71
NtRp860
(dp861
g74
(dp862
g82
I3
ssg83
Nsg76
(lp863
g69
(g85
g71
NtRp864
(dp865
g74
(dp866
sg83
g860
sg76
(lp867
g69
(g90
g71
NtRp868
(dp869
g74
(dp870
g94
g95
ssg83
g864
sg76
(lp871
g306
asbag69
(g90
g71
NtRp872
(dp873
g74
(dp874
g101
g102
ssg83
g864
sg76
(lp875
S':'
asbag69
(g90
g71
NtRp876
(dp877
g74
(dp878
sg83
g864
sg76
(lp879
g69
(g70
g71
NtRp880
(dp881
g74
(dp882
g82
I3
ssg83
g876
sg76
(lp883
S''
asbasbasbag69
(g85
g71
NtRp884
(dp885
g74
(dp886
sg83
g860
sg76
(lp887
g69
(g90
g71
NtRp888
(dp889
g74
(dp890
g94
g95
ssg83
g884
sg76
(lp891
g327
asbag69
(g90
g71
NtRp892
(dp893
g74
(dp894
g101
g102
ssg83
g884
sg76
(lp895
S':'
asbag69
(g90
g71
NtRp896
(dp897
g74
(dp898
sg83
g884
sg76
(lp899
g69
(g70
g71
NtRp900
(dp901
g74
(dp902
g82
I3
ssg83
g896
sg76
(lp903
S''
asbasbasbag69
(g85
g71
NtRp904
(dp905
g74
(dp906
sg83
g860
sg76
(lp907
g69
(g90
g71
NtRp908
(dp909
g74
(dp910
g94
g95
ssg83
g904
sg76
(lp911
g348
asbag69
(g90
g71
NtRp912
(dp913
g74
(dp914
g101
g102
ssg83
g904
sg76
(lp915
S':'
asbag69
(g90
g71
NtRp916
(dp917
g74
(dp918
sg83
g904
sg76
(lp919
g69
(g70
g71
NtRp920
(dp921
g74
(dp922
g82
I3
ssg83
g916
sg76
(lp923
S''
asbasbasbag69
(g85
g71
NtRp924
(dp925
g74
(dp926
sg83
g860
sg76
(lp927
g69
(g90
g71
NtRp928
(dp929
g74
(dp930
g94
g95
ssg83
g924
sg76
(lp931
g369
asbag69
(g90
g71
NtRp932
(dp933
g74
(dp934
g101
g102
ssg83
g924
sg76
(lp935
S':'
asbag69
(g90
g71
NtRp936
(dp937
g74
(dp938
sg83
g924
sg76
(lp939
g69
(g70
g71
NtRp940
(dp941
g74
(dp942
g82
I3
ssg83
g936
sg76
(lp943
S''
asbasbasbag69
(g85
g71
NtRp944
(dp945
g74
(dp946
sg83
g860
sg76
(lp947
g69
(g90
g71
NtRp948
(dp949
g74
(dp950
g94
g95
ssg83
g944
sg76
(lp951
g390
asbag69
(g90
g71
NtRp952
(dp953
g74
(dp954
g101
g102
ssg83
g944
sg76
(lp955
S':'
asbag69
(g90
g71
NtRp956
(dp957
g74
(dp958
sg83
g944
sg76
(lp959
g69
(g70
g71
NtRp960
(dp961
g74
(dp962
g82
I3
ssg83
g956
sg76
(lp963
S''
asbasbasbag69
(g85
g71
NtRp964
(dp965
g74
(dp966
sg83
g860
sg76
(lp967
g69
(g90
g71
NtRp968
(dp969
g74
(dp970
g94
g95
ssg83
g964
sg76
(lp971
g411
asbag69
(g90
g71
NtRp972
(dp973
g74
(dp974
g101
g102
ssg83
g964
sg76
(lp975
S':'
asbag69
(g90
g71
NtRp976
(dp977
g74
(dp978
sg83
g964
sg76
(lp979
g69
(g70
g71
NtRp980
(dp981
g74
(dp982
g82
I3
ssg83
g976
sg76
(lp983
S''
asbasbasbag69
(g85
g71
NtRp984
(dp985
g74
(dp986
sg83
g860
sg76
(lp987
g69
(g90
g71
NtRp988
(dp989
g74
(dp990
g94
g95
ssg83
g984
sg76
(lp991
g432
asbag69
(g90
g71
NtRp992
(dp993
g74
(dp994
g101
g102
ssg83
g984
sg76
(lp995
S':'
asbag69
(g90
g71
NtRp996
(dp997
g74
(dp998
sg83
g984
sg76
(lp999
g69
(g70
g71
NtRp1000
(dp1001
g74
(dp1002
g82
I3
ssg83
g996
sg76
(lp1003
S''
asbasbasbag69
(g85
g71
NtRp1004
(dp1005
g74
(dp1006
sg83
g860
sg76
(lp1007
g69
(g90
g71
NtRp1008
(dp1009
g74
(dp1010
g94
g95
ssg83
g1004
sg76
(lp1011
g453
asbag69
(g90
g71
NtRp1012
(dp1013
g74
(dp1014
g101
g102
ssg83
g1004
sg76
(lp1015
S':'
asbag69
(g90
g71
NtRp1016
(dp1017
g74
(dp1018
sg83
g1004
sg76
(lp1019
g69
(g70
g71
NtRp1020
(dp1021
g74
(dp1022
g82
I3
ssg83
g1016
sg76
(lp1023
S''
asbasbasbasbasbasbasbag69
(g85
g71
NtRp1024
(dp1025
g74
(dp1026
sg83
g268
sg76
(lp1027
g69
(g90
g71
NtRp1028
(dp1029
g74
(dp1030
g94
g95
ssg83
g1024
sg76
(lp1031
S'session_id_welcome'
p1032
asbag69
(g90
g71
NtRp1033
(dp1034
g74
(dp1035
g101
g102
ssg83
g1024
sg76
(lp1036
S':'
asbag69
(g90
g71
NtRp1037
(dp1038
g74
(dp1039
sg83
g1024
sg76
(lp1040
g69
(g70
g71
NtRp1041
(dp1042
g74
(dp1043
g82
I4
ssg83
g1037
sg76
(lp1044
S'127.0.0.1-2837c0cc-fb0c-4598-b75f-5727d328e2ad'
p1045
ag69
(g78
g71
NtRp1046
(dp1047
g74
(dp1048
g82
I3
ssg83
Nsg76
(lp1049
g69
(g85
g71
NtRp1050
(dp1051
g74
(dp1052
sg83
g1046
sg76
(lp1053
g69
(g90
g71
NtRp1054
(dp1055
g74
(dp1056
g94
g95
ssg83
g1050
sg76
(lp1057
g306
asbag69
(g90
g71
NtRp1058
(dp1059
g74
(dp1060
g101
g102
ssg83
g1050
sg76
(lp1061
S':'
asbag69
(g90
g71
NtRp1062
(dp1063
g74
(dp1064
sg83
g1050
sg76
(lp1065
g69
(g70
g71
NtRp1066
(dp1067
g74
(dp1068
g82
I3
ssg83
g1062
sg76
(lp1069
S''
asbasbasbag69
(g85
g71
NtRp1070
(dp1071
g74
(dp1072
sg83
g1046
sg76
(lp1073
g69
(g90
g71
NtRp1074
(dp1075
g74
(dp1076
g94
g95
ssg83
g1070
sg76
(lp1077
g327
asbag69
(g90
g71
NtRp1078
(dp1079
g74
(dp1080
g101
g102
ssg83
g1070
sg76
(lp1081
S':'
asbag69
(g90
g71
NtRp1082
(dp1083
g74
(dp1084
sg83
g1070
sg76
(lp1085
g69
(g70
g71
NtRp1086
(dp1087
g74
(dp1088
g82
I3
ssg83
g1082
sg76
(lp1089
S''
asbasbasbag69
(g85
g71
NtRp1090
(dp1091
g74
(dp1092
sg83
g1046
sg76
(lp1093
g69
(g90
g71
NtRp1094
(dp1095
g74
(dp1096
g94
g95
ssg83
g1090
sg76
(lp1097
g348
asbag69
(g90
g71
NtRp1098
(dp1099
g74
(dp1100
g101
g102
ssg83
g1090
sg76
(lp1101
S':'
asbag69
(g90
g71
NtRp1102
(dp1103
g74
(dp1104
sg83
g1090
sg76
(lp1105
g69
(g70
g71
NtRp1106
(dp1107
g74
(dp1108
g82
I3
ssg83
g1102
sg76
(lp1109
S''
asbasbasbag69
(g85
g71
NtRp1110
(dp1111
g74
(dp1112
sg83
g1046
sg76
(lp1113
g69
(g90
g71
NtRp1114
(dp1115
g74
(dp1116
g94
g95
ssg83
g1110
sg76
(lp1117
g369
asbag69
(g90
g71
NtRp1118
(dp1119
g74
(dp1120
g101
g102
ssg83
g1110
sg76
(lp1121
S':'
asbag69
(g90
g71
NtRp1122
(dp1123
g74
(dp1124
sg83
g1110
sg76
(lp1125
g69
(g70
g71
NtRp1126
(dp1127
g74
(dp1128
g82
I3
ssg83
g1122
sg76
(lp1129
S''
asbasbasbag69
(g85
g71
NtRp1130
(dp1131
g74
(dp1132
sg83
g1046
sg76
(lp1133
g69
(g90
g71
NtRp1134
(dp1135
g74
(dp1136
g94
g95
ssg83
g1130
sg76
(lp1137
g390
asbag69
(g90
g71
NtRp1138
(dp1139
g74
(dp1140
g101
g102
ssg83
g1130
sg76
(lp1141
S':'
asbag69
(g90
g71
NtRp1142
(dp1143
g74
(dp1144
sg83
g1130
sg76
(lp1145
g69
(g70
g71
NtRp1146
(dp1147
g74
(dp1148
g82
I3
ssg83
g1142
sg76
(lp1149
S''
asbasbasbag69
(g85
g71
NtRp1150
(dp1151
g74
(dp1152
sg83
g1046
sg76
(lp1153
g69
(g90
g71
NtRp1154
(dp1155
g74
(dp1156
g94
g95
ssg83
g1150
sg76
(lp1157
g411
asbag69
(g90
g71
NtRp1158
(dp1159
g74
(dp1160
g101
g102
ssg83
g1150
sg76
(lp1161
S':'
asbag69
(g90
g71
NtRp1162
(dp1163
g74
(dp1164
sg83
g1150
sg76
(lp1165
g69
(g70
g71
NtRp1166
(dp1167
g74
(dp1168
g82
I3
ssg83
g1162
sg76
(lp1169
S''
asbasbasbag69
(g85
g71
NtRp1170
(dp1171
g74
(dp1172
sg83
g1046
sg76
(lp1173
g69
(g90
g71
NtRp1174
(dp1175
g74
(dp1176
g94
g95
ssg83
g1170
sg76
(lp1177
g432
asbag69
(g90
g71
NtRp1178
(dp1179
g74
(dp1180
g101
g102
ssg83
g1170
sg76
(lp1181
S':'
asbag69
(g90
g71
NtRp1182
(dp1183
g74
(dp1184
sg83
g1170
sg76
(lp1185
g69
(g70
g71
NtRp1186
(dp1187
g74
(dp1188
g82
I3
ssg83
g1182
sg76
(lp1189
S''
asbasbasbag69
(g85
g71
NtRp1190
(dp1191
g74
(dp1192
sg83
g1046
sg76
(lp1193
g69
(g90
g71
NtRp1194
(dp1195
g74
(dp1196
g94
g95
ssg83
g1190
sg76
(lp1197
g453
asbag69
(g90
g71
NtRp1198
(dp1199
g74
(dp1200
g101
g102
ssg83
g1190
sg76
(lp1201
S':'
asbag69
(g90
g71
NtRp1202
(dp1203
g74
(dp1204
sg83
g1190
sg76
(lp1205
g69
(g70
g71
NtRp1206
(dp1207
g74
(dp1208
g82
I3
ssg83
g1202
sg76
(lp1209
S''
asbasbasbasbasbasbasbasbasbasbasbag69
(g85
g71
NtRp1210
(dp1211
g74
(dp1212
sg83
g79
sg76
(lp1213
g69
(g90
g71
NtRp1214
(dp1215
g74
(dp1216
g94
g95
ssg83
g1210
sg76
(lp1217
S'env'
p1218
asbag69
(g90
g71
NtRp1219
(dp1220
g74
(dp1221
g101
g102
ssg83
g1210
sg76
(lp1222
S':'
asbag69
(g90
g71
NtRp1223
(dp1224
g74
(dp1225
sg83
g1210
sg76
(lp1226
g69
(g70
g71
NtRp1227
(dp1228
g74
(dp1229
g82
I5
ssg83
g1223
sg76
(lp1230
g69
(g78
g71
NtRp1231
(dp1232
g74
(dp1233
g82
I4
ssg83
Nsg76
(lp1234
g69
(g85
g71
NtRp1235
(dp1236
g74
(dp1237
sg83
g1231
sg76
(lp1238
g69
(g90
g71
NtRp1239
(dp1240
g74
(dp1241
g94
g95
ssg83
g1235
sg76
(lp1242
S'app_folders'
p1243
asbag69
(g90
g71
NtRp1244
(dp1245
g74
(dp1246
g101
g102
ssg83
g1235
sg76
(lp1247
S':'
asbag69
(g90
g71
NtRp1248
(dp1249
g74
(dp1250
sg83
g1235
sg76
(lp1251
g69
(g70
g71
NtRp1252
(dp1253
g74
(dp1254
g82
I4
ssg83
g1248
sg76
(lp1255
S"set(['/home/darshan/web2py/applications/Isas/', '/home/darshan/web2py/applications/examples/', '/home/darshan/web2py/applications/readit/', '/home/darshan/web2py/applications/admin/', '/home/darshan/web2py/applications/Garbage_Truck/', '/home/darshan/web2py/applications/welcome/', '/home/darshan/web2py/applications/isas/'])"
p1256
asbasbasbag69
(g85
g71
NtRp1257
(dp1258
g74
(dp1259
sg83
g1231
sg76
(lp1260
g69
(g90
g71
NtRp1261
(dp1262
g74
(dp1263
g94
g95
ssg83
g1257
sg76
(lp1264
S'applications_parent'
p1265
asbag69
(g90
g71
NtRp1266
(dp1267
g74
(dp1268
g101
g102
ssg83
g1257
sg76
(lp1269
S':'
asbag69
(g90
g71
NtRp1270
(dp1271
g74
(dp1272
sg83
g1257
sg76
(lp1273
g69
(g70
g71
NtRp1274
(dp1275
g74
(dp1276
g82
I4
ssg83
g1270
sg76
(lp1277
S'/home/darshan/web2py'
p1278
asbasbasbag69
(g85
g71
NtRp1279
(dp1280
g74
(dp1281
sg83
g1231
sg76
(lp1282
g69
(g90
g71
NtRp1283
(dp1284
g74
(dp1285
g94
g95
ssg83
g1279
sg76
(lp1286
S'cmd_args'
p1287
asbag69
(g90
g71
NtRp1288
(dp1289
g74
(dp1290
g101
g102
ssg83
g1279
sg76
(lp1291
S':'
asbag69
(g90
g71
NtRp1292
(dp1293
g74
(dp1294
sg83
g1279
sg76
(lp1295
g69
(g70
g71
NtRp1296
(dp1297
g74
(dp1298
g82
I4
ssg83
g1292
sg76
(lp1299
g69
(g78
g71
NtRp1300
(dp1301
g74
(dp1302
g82
I3
ssg83
Nsg76
(lp1303
sbasbasbasbag69
(g85
g71
NtRp1304
(dp1305
g74
(dp1306
sg83
g1231
sg76
(lp1307
g69
(g90
g71
NtRp1308
(dp1309
g74
(dp1310
g94
g95
ssg83
g1304
sg76
(lp1311
S'cmd_options'
p1312
asbag69
(g90
g71
NtRp1313
(dp1314
g74
(dp1315
g101
g102
ssg83
g1304
sg76
(lp1316
S':'
asbag69
(g90
g71
NtRp1317
(dp1318
g74
(dp1319
sg83
g1304
sg76
(lp1320
g69
(g70
g71
NtRp1321
(dp1322
g74
(dp1323
g82
I4
ssg83
g1317
sg76
(lp1324
S"<Values at 0x7f92baaf7f80: {'verbose': False, 'ip': '127.0.0.1', 'with_scheduler': False, 'ips': [], 'shutdown_timeout': 5, 'taskbar': False, 'port': 8000, 'maxthreads': None, 'softcron': False, 'server_name': 'darshan-Inspiron-5520', 'bpython': False, 'nogui': False, 'pid_filename': 'httpserver.pid', 'extcron': False, 'runcron': False, 'run_system_tests': False, 'test': None, 'folder': '/home/darshan/web2py', 'config': '', 'minthreads': None, 'winservice': '', 'shell': None, 'run': '', 'log_filename': 'httpserver.log', 'debuglevel': 30, 'args': [''], 'socket_timeout': 5, 'ssl_ca_certificate': None, 'scheduler': None, 'profiler_filename': None, 'ssl_private_key': '', 'scheduler_groups': None, 'password': '<ask>', 'request_queue_size': 5, 'ssl_certificate': '', 'cronjob': False, 'numthreads': None, 'quiet': False, 'interfaces': None, 'import_models': False, 'timeout': 10, 'plain': False, 'nobanner': False}>"
p1325
asbasbasbag69
(g85
g71
NtRp1326
(dp1327
g74
(dp1328
sg83
g1231
sg76
(lp1329
g69
(g90
g71
NtRp1330
(dp1331
g74
(dp1332
g94
g95
ssg83
g1326
sg76
(lp1333
S'db_sessions'
p1334
asbag69
(g90
g71
NtRp1335
(dp1336
g74
(dp1337
g101
g102
ssg83
g1326
sg76
(lp1338
S':'
asbag69
(g90
g71
NtRp1339
(dp1340
g74
(dp1341
sg83
g1326
sg76
(lp1342
g69
(g70
g71
NtRp1343
(dp1344
g74
(dp1345
g82
I4
ssg83
g1339
sg76
(lp1346
S'set([])'
p1347
asbasbasbag69
(g85
g71
NtRp1348
(dp1349
g74
(dp1350
sg83
g1231
sg76
(lp1351
g69
(g90
g71
NtRp1352
(dp1353
g74
(dp1354
g94
g95
ssg83
g1348
sg76
(lp1355
S'debugging'
p1356
asbag69
(g90
g71
NtRp1357
(dp1358
g74
(dp1359
g101
g102
ssg83
g1348
sg76
(lp1360
S':'
asbag69
(g90
g71
NtRp1361
(dp1362
g74
(dp1363
sg83
g1348
sg76
(lp1364
g69
(g70
g71
NtRp1365
(dp1366
g74
(dp1367
g82
I4
ssg83
g1361
sg76
(lp1368
g112
asbasbasbag69
(g85
g71
NtRp1369
(dp1370
g74
(dp1371
sg83
g1231
sg76
(lp1372
g69
(g90
g71
NtRp1373
(dp1374
g74
(dp1375
g94
g95
ssg83
g1369
sg76
(lp1376
S'gluon_parent'
p1377
asbag69
(g90
g71
NtRp1378
(dp1379
g74
(dp1380
g101
g102
ssg83
g1369
sg76
(lp1381
S':'
asbag69
(g90
g71
NtRp1382
(dp1383
g74
(dp1384
sg83
g1369
sg76
(lp1385
g69
(g70
g71
NtRp1386
(dp1387
g74
(dp1388
g82
I4
ssg83
g1382
sg76
(lp1389
S'/home/darshan/web2py'
p1390
asbasbasbag69
(g85
g71
NtRp1391
(dp1392
g74
(dp1393
sg83
g1231
sg76
(lp1394
g69
(g90
g71
NtRp1395
(dp1396
g74
(dp1397
g94
g95
ssg83
g1391
sg76
(lp1398
S'http_accept'
p1399
asbag69
(g90
g71
NtRp1400
(dp1401
g74
(dp1402
g101
g102
ssg83
g1391
sg76
(lp1403
S':'
asbag69
(g90
g71
NtRp1404
(dp1405
g74
(dp1406
sg83
g1391
sg76
(lp1407
g69
(g70
g71
NtRp1408
(dp1409
g74
(dp1410
g82
I4
ssg83
g1404
sg76
(lp1411
S'text/html,application/xhtml+xml,application/xml;q=0.9,*/*;q=0.8'
p1412
asbasbasbag69
(g85
g71
NtRp1413
(dp1414
g74
(dp1415
sg83
g1231
sg76
(lp1416
g69
(g90
g71
NtRp1417
(dp1418
g74
(dp1419
g94
g95
ssg83
g1413
sg76
(lp1420
S'http_accept_encoding'
p1421
asbag69
(g90
g71
NtRp1422
(dp1423
g74
(dp1424
g101
g102
ssg83
g1413
sg76
(lp1425
S':'
asbag69
(g90
g71
NtRp1426
(dp1427
g74
(dp1428
sg83
g1413
sg76
(lp1429
g69
(g70
g71
NtRp1430
(dp1431
g74
(dp1432
g82
I4
ssg83
g1426
sg76
(lp1433
S'gzip, deflate'
p1434
asbasbasbag69
(g85
g71
NtRp1435
(dp1436
g74
(dp1437
sg83
g1231
sg76
(lp1438
g69
(g90
g71
NtRp1439
(dp1440
g74
(dp1441
g94
g95
ssg83
g1435
sg76
(lp1442
S'http_accept_language'
p1443
asbag69
(g90
g71
NtRp1444
(dp1445
g74
(dp1446
g101
g102
ssg83
g1435
sg76
(lp1447
S':'
asbag69
(g90
g71
NtRp1448
(dp1449
g74
(dp1450
sg83
g1435
sg76
(lp1451
g69
(g70
g71
NtRp1452
(dp1453
g74
(dp1454
g82
I4
ssg83
g1448
sg76
(lp1455
S'en-US,en;q=0.5'
p1456
asbasbasbag69
(g85
g71
NtRp1457
(dp1458
g74
(dp1459
sg83
g1231
sg76
(lp1460
g69
(g90
g71
NtRp1461
(dp1462
g74
(dp1463
g94
g95
ssg83
g1457
sg76
(lp1464
S'http_cache_control'
p1465
asbag69
(g90
g71
NtRp1466
(dp1467
g74
(dp1468
g101
g102
ssg83
g1457
sg76
(lp1469
S':'
asbag69
(g90
g71
NtRp1470
(dp1471
g74
(dp1472
sg83
g1457
sg76
(lp1473
g69
(g70
g71
NtRp1474
(dp1475
g74
(dp1476
g82
I4
ssg83
g1470
sg76
(lp1477
S'max-age=0'
p1478
asbasbasbag69
(g85
g71
NtRp1479
(dp1480
g74
(dp1481
sg83
g1231
sg76
(lp1482
g69
(g90
g71
NtRp1483
(dp1484
g74
(dp1485
g94
g95
ssg83
g1479
sg76
(lp1486
S'http_connection'
p1487
asbag69
(g90
g71
NtRp1488
(dp1489
g74
(dp1490
g101
g102
ssg83
g1479
sg76
(lp1491
S':'
asbag69
(g90
g71
NtRp1492
(dp1493
g74
(dp1494
sg83
g1479
sg76
(lp1495
g69
(g70
g71
NtRp1496
(dp1497
g74
(dp1498
g82
I4
ssg83
g1492
sg76
(lp1499
S'keep-alive'
p1500
asbasbasbag69
(g85
g71
NtRp1501
(dp1502
g74
(dp1503
sg83
g1231
sg76
(lp1504
g69
(g90
g71
NtRp1505
(dp1506
g74
(dp1507
g94
g95
ssg83
g1501
sg76
(lp1508
S'http_cookie'
p1509
asbag69
(g90
g71
NtRp1510
(dp1511
g74
(dp1512
g101
g102
ssg83
g1501
sg76
(lp1513
S':'
asbag69
(g90
g71
NtRp1514
(dp1515
g74
(dp1516
sg83
g1501
sg76
(lp1517
g69
(g70
g71
NtRp1518
(dp1519
g74
(dp1520
g82
I4
ssg83
g1514
sg76
(lp1521
S'csrftoken=a9lCt5w7Q4OG437IZNwjtNB3YEdWYXWm; session_id_admin=127.0.0.1-e6c203e9-d008-4610-8523-5a0e93da9abb; session_id_welcome=127.0.0.1-2837c0cc-fb0c-4598-b75f-5727d328e2ad; session_id_readit=127.0.0.1-e391c20a-8d22-4e6d-a1c8-f85c00f99b3d; session_id_isas=127.0.0.1-46261fb6-868f-4eb5-ae61-7251ec9ac039'
p1522
asbasbasbag69
(g85
g71
NtRp1523
(dp1524
g74
(dp1525
sg83
g1231
sg76
(lp1526
g69
(g90
g71
NtRp1527
(dp1528
g74
(dp1529
g94
g95
ssg83
g1523
sg76
(lp1530
S'http_dnt'
p1531
asbag69
(g90
g71
NtRp1532
(dp1533
g74
(dp1534
g101
g102
ssg83
g1523
sg76
(lp1535
S':'
asbag69
(g90
g71
NtRp1536
(dp1537
g74
(dp1538
sg83
g1523
sg76
(lp1539
g69
(g70
g71
NtRp1540
(dp1541
g74
(dp1542
g82
I4
ssg83
g1536
sg76
(lp1543
S'1'
asbasbasbag69
(g85
g71
NtRp1544
(dp1545
g74
(dp1546
sg83
g1231
sg76
(lp1547
g69
(g90
g71
NtRp1548
(dp1549
g74
(dp1550
g94
g95
ssg83
g1544
sg76
(lp1551
S'http_host'
p1552
asbag69
(g90
g71
NtRp1553
(dp1554
g74
(dp1555
g101
g102
ssg83
g1544
sg76
(lp1556
S':'
asbag69
(g90
g71
NtRp1557
(dp1558
g74
(dp1559
sg83
g1544
sg76
(lp1560
g69
(g70
g71
NtRp1561
(dp1562
g74
(dp1563
g82
I4
ssg83
g1557
sg76
(lp1564
S'127.0.0.1:8000'
p1565
asbasbasbag69
(g85
g71
NtRp1566
(dp1567
g74
(dp1568
sg83
g1231
sg76
(lp1569
g69
(g90
g71
NtRp1570
(dp1571
g74
(dp1572
g94
g95
ssg83
g1566
sg76
(lp1573
S'http_referer'
p1574
asbag69
(g90
g71
NtRp1575
(dp1576
g74
(dp1577
g101
g102
ssg83
g1566
sg76
(lp1578
S':'
asbag69
(g90
g71
NtRp1579
(dp1580
g74
(dp1581
sg83
g1566
sg76
(lp1582
g69
(g70
g71
NtRp1583
(dp1584
g74
(dp1585
g82
I4
ssg83
g1579
sg76
(lp1586
S'http://127.0.0.1:8000/admin/default/design/Garbage_Truck'
p1587
asbasbasbag69
(g85
g71
NtRp1588
(dp1589
g74
(dp1590
sg83
g1231
sg76
(lp1591
g69
(g90
g71
NtRp1592
(dp1593
g74
(dp1594
g94
g95
ssg83
g1588
sg76
(lp1595
S'http_user_agent'
p1596
asbag69
(g90
g71
NtRp1597
(dp1598
g74
(dp1599
g101
g102
ssg83
g1588
sg76
(lp1600
S':'
asbag69
(g90
g71
NtRp1601
(dp1602
g74
(dp1603
sg83
g1588
sg76
(lp1604
g69
(g70
g71
NtRp1605
(dp1606
g74
(dp1607
g82
I4
ssg83
g1601
sg76
(lp1608
S'Mozilla/5.0 (X11; Ubuntu; Linux x86_64; rv:32.0) Gecko/20100101 Firefox/32.0'
p1609
asbasbasbag69
(g85
g71
NtRp1610
(dp1611
g74
(dp1612
sg83
g1231
sg76
(lp1613
g69
(g90
g71
NtRp1614
(dp1615
g74
(dp1616
g94
g95
ssg83
g1610
sg76
(lp1617
S'is_jython'
p1618
asbag69
(g90
g71
NtRp1619
(dp1620
g74
(dp1621
g101
g102
ssg83
g1610
sg76
(lp1622
S':'
asbag69
(g90
g71
NtRp1623
(dp1624
g74
(dp1625
sg83
g1610
sg76
(lp1626
g69
(g70
g71
NtRp1627
(dp1628
g74
(dp1629
g82
I4
ssg83
g1623
sg76
(lp1630
g112
asbasbasbag69
(g85
g71
NtRp1631
(dp1632
g74
(dp1633
sg83
g1231
sg76
(lp1634
g69
(g90
g71
NtRp1635
(dp1636
g74
(dp1637
g94
g95
ssg83
g1631
sg76
(lp1638
S'is_pypy'
p1639
asbag69
(g90
g71
NtRp1640
(dp1641
g74
(dp1642
g101
g102
ssg83
g1631
sg76
(lp1643
S':'
asbag69
(g90
g71
NtRp1644
(dp1645
g74
(dp1646
sg83
g1631
sg76
(lp1647
g69
(g70
g71
NtRp1648
(dp1649
g74
(dp1650
g82
I4
ssg83
g1644
sg76
(lp1651
g112
asbasbasbag69
(g85
g71
NtRp1652
(dp1653
g74
(dp1654
sg83
g1231
sg76
(lp1655
g69
(g90
g71
NtRp1656
(dp1657
g74
(dp1658
g94
g95
ssg83
g1652
sg76
(lp1659
S'local_hosts'
p1660
asbag69
(g90
g71
NtRp1661
(dp1662
g74
(dp1663
g101
g102
ssg83
g1652
sg76
(lp1664
S':'
asbag69
(g90
g71
NtRp1665
(dp1666
g74
(dp1667
sg83
g1652
sg76
(lp1668
g69
(g70
g71
NtRp1669
(dp1670
g74
(dp1671
g82
I4
ssg83
g1665
sg76
(lp1672
g69
(g78
g71
NtRp1673
(dp1674
g74
(dp1675
g82
I3
ssg83
Nsg76
(lp1676
g69
(g85
g71
NtRp1677
(dp1678
g74
(dp1679
sg83
g1673
sg76
(lp1680
g69
(g90
g71
NtRp1681
(dp1682
g74
(dp1683
sg83
g1677
sg76
(lp1684
g69
(g70
g71
NtRp1685
(dp1686
g74
(dp1687
g82
I3
ssg83
g1681
sg76
(lp1688
S'::1'
p1689
asbasbasbag69
(g85
g71
NtRp1690
(dp1691
g74
(dp1692
sg83
g1673
sg76
(lp1693
g69
(g90
g71
NtRp1694
(dp1695
g74
(dp1696
sg83
g1690
sg76
(lp1697
g69
(g70
g71
NtRp1698
(dp1699
g74
(dp1700
g82
I3
ssg83
g1694
sg76
(lp1701
S'127.0.1.1'
p1702
asbasbasbag69
(g85
g71
NtRp1703
(dp1704
g74
(dp1705
sg83
g1673
sg76
(lp1706
g69
(g90
g71
NtRp1707
(dp1708
g74
(dp1709
sg83
g1703
sg76
(lp1710
g69
(g70
g71
NtRp1711
(dp1712
g74
(dp1713
g82
I3
ssg83
g1707
sg76
(lp1714
S'darshan-Inspiron-5520'
p1715
asbasbasbag69
(g85
g71
NtRp1716
(dp1717
g74
(dp1718
sg83
g1673
sg76
(lp1719
g69
(g90
g71
NtRp1720
(dp1721
g74
(dp1722
sg83
g1716
sg76
(lp1723
g69
(g70
g71
NtRp1724
(dp1725
g74
(dp1726
g82
I3
ssg83
g1720
sg76
(lp1727
S'::ffff:127.0.0.1'
p1728
asbasbasbag69
(g85
g71
NtRp1729
(dp1730
g74
(dp1731
sg83
g1673
sg76
(lp1732
g69
(g90
g71
NtRp1733
(dp1734
g74
(dp1735
sg83
g1729
sg76
(lp1736
g69
(g70
g71
NtRp1737
(dp1738
g74
(dp1739
g82
I3
ssg83
g1733
sg76
(lp1740
S'127.0.0.1'
p1741
asbasbasbasbasbasbasbag69
(g85
g71
NtRp1742
(dp1743
g74
(dp1744
sg83
g1231
sg76
(lp1745
g69
(g90
g71
NtRp1746
(dp1747
g74
(dp1748
g94
g95
ssg83
g1742
sg76
(lp1749
S'path_info'
p1750
asbag69
(g90
g71
NtRp1751
(dp1752
g74
(dp1753
g101
g102
ssg83
g1742
sg76
(lp1754
S':'
asbag69
(g90
g71
NtRp1755
(dp1756
g74
(dp1757
sg83
g1742
sg76
(lp1758
g69
(g70
g71
NtRp1759
(dp1760
g74
(dp1761
g82
I4
ssg83
g1755
sg76
(lp1762
S'/Garbage_Truck/appadmin/index'
p1763
asbasbasbag69
(g85
g71
NtRp1764
(dp1765
g74
(dp1766
sg83
g1231
sg76
(lp1767
g69
(g90
g71
NtRp1768
(dp1769
g74
(dp1770
g94
g95
ssg83
g1764
sg76
(lp1771
S'query_string'
p1772
asbag69
(g90
g71
NtRp1773
(dp1774
g74
(dp1775
g101
g102
ssg83
g1764
sg76
(lp1776
S':'
asbag69
(g90
g71
NtRp1777
(dp1778
g74
(dp1779
sg83
g1764
sg76
(lp1780
g69
(g70
g71
NtRp1781
(dp1782
g74
(dp1783
g82
I4
ssg83
g1777
sg76
(lp1784
S''
asbasbasbag69
(g85
g71
NtRp1785
(dp1786
g74
(dp1787
sg83
g1231
sg76
(lp1788
g69
(g90
g71
NtRp1789
(dp1790
g74
(dp1791
g94
g95
ssg83
g1785
sg76
(lp1792
S'remote_addr'
p1793
asbag69
(g90
g71
NtRp1794
(dp1795
g74
(dp1796
g101
g102
ssg83
g1785
sg76
(lp1797
S':'
asbag69
(g90
g71
NtRp1798
(dp1799
g74
(dp1800
sg83
g1785
sg76
(lp1801
g69
(g70
g71
NtRp1802
(dp1803
g74
(dp1804
g82
I4
ssg83
g1798
sg76
(lp1805
g224
asbasbasbag69
(g85
g71
NtRp1806
(dp1807
g74
(dp1808
sg83
g1231
sg76
(lp1809
g69
(g90
g71
NtRp1810
(dp1811
g74
(dp1812
g94
g95
ssg83
g1806
sg76
(lp1813
S'remote_port'
p1814
asbag69
(g90
g71
NtRp1815
(dp1816
g74
(dp1817
g101
g102
ssg83
g1806
sg76
(lp1818
S':'
asbag69
(g90
g71
NtRp1819
(dp1820
g74
(dp1821
sg83
g1806
sg76
(lp1822
g69
(g70
g71
NtRp1823
(dp1824
g74
(dp1825
g82
I4
ssg83
g1819
sg76
(lp1826
S'33185'
p1827
asbasbasbag69
(g85
g71
NtRp1828
(dp1829
g74
(dp1830
sg83
g1231
sg76
(lp1831
g69
(g90
g71
NtRp1832
(dp1833
g74
(dp1834
g94
g95
ssg83
g1828
sg76
(lp1835
S'request_method'
p1836
asbag69
(g90
g71
NtRp1837
(dp1838
g74
(dp1839
g101
g102
ssg83
g1828
sg76
(lp1840
S':'
asbag69
(g90
g71
NtRp1841
(dp1842
g74
(dp1843
sg83
g1828
sg76
(lp1844
g69
(g70
g71
NtRp1845
(dp1846
g74
(dp1847
g82
I4
ssg83
g1841
sg76
(lp1848
S'GET'
p1849
asbasbasbag69
(g85
g71
NtRp1850
(dp1851
g74
(dp1852
sg83
g1231
sg76
(lp1853
g69
(g90
g71
NtRp1854
(dp1855
g74
(dp1856
g94
g95
ssg83
g1850
sg76
(lp1857
S'request_uri'
p1858
asbag69
(g90
g71
NtRp1859
(dp1860
g74
(dp1861
g101
g102
ssg83
g1850
sg76
(lp1862
S':'
asbag69
(g90
g71
NtRp1863
(dp1864
g74
(dp1865
sg83
g1850
sg76
(lp1866
g69
(g70
g71
NtRp1867
(dp1868
g74
(dp1869
g82
I4
ssg83
g1863
sg76
(lp1870
g1763
asbasbasbag69
(g85
g71
NtRp1871
(dp1872
g74
(dp1873
sg83
g1231
sg76
(lp1874
g69
(g90
g71
NtRp1875
(dp1876
g74
(dp1877
g94
g95
ssg83
g1871
sg76
(lp1878
S'script_name'
p1879
asbag69
(g90
g71
NtRp1880
(dp1881
g74
(dp1882
g101
g102
ssg83
g1871
sg76
(lp1883
S':'
asbag69
(g90
g71
NtRp1884
(dp1885
g74
(dp1886
sg83
g1871
sg76
(lp1887
g69
(g70
g71
NtRp1888
(dp1889
g74
(dp1890
g82
I4
ssg83
g1884
sg76
(lp1891
S''
asbasbasbag69
(g85
g71
NtRp1892
(dp1893
g74
(dp1894
sg83
g1231
sg76
(lp1895
g69
(g90
g71
NtRp1896
(dp1897
g74
(dp1898
g94
g95
ssg83
g1892
sg76
(lp1899
S'server_name'
p1900
asbag69
(g90
g71
NtRp1901
(dp1902
g74
(dp1903
g101
g102
ssg83
g1892
sg76
(lp1904
S':'
asbag69
(g90
g71
NtRp1905
(dp1906
g74
(dp1907
sg83
g1892
sg76
(lp1908
g69
(g70
g71
NtRp1909
(dp1910
g74
(dp1911
g82
I4
ssg83
g1905
sg76
(lp1912
S'darshan-Inspiron-5520'
p1913
asbasbasbag69
(g85
g71
NtRp1914
(dp1915
g74
(dp1916
sg83
g1231
sg76
(lp1917
g69
(g90
g71
NtRp1918
(dp1919
g74
(dp1920
g94
g95
ssg83
g1914
sg76
(lp1921
S'server_port'
p1922
asbag69
(g90
g71
NtRp1923
(dp1924
g74
(dp1925
g101
g102
ssg83
g1914
sg76
(lp1926
S':'
asbag69
(g90
g71
NtRp1927
(dp1928
g74
(dp1929
sg83
g1914
sg76
(lp1930
g69
(g70
g71
NtRp1931
(dp1932
g74
(dp1933
g82
I4
ssg83
g1927
sg76
(lp1934
S'8000'
p1935
asbasbasbag69
(g85
g71
NtRp1936
(dp1937
g74
(dp1938
sg83
g1231
sg76
(lp1939
g69
(g90
g71
NtRp1940
(dp1941
g74
(dp1942
g94
g95
ssg83
g1936
sg76
(lp1943
S'server_protocol'
p1944
asbag69
(g90
g71
NtRp1945
(dp1946
g74
(dp1947
g101
g102
ssg83
g1936
sg76
(lp1948
S':'
asbag69
(g90
g71
NtRp1949
(dp1950
g74
(dp1951
sg83
g1936
sg76
(lp1952
g69
(g70
g71
NtRp1953
(dp1954
g74
(dp1955
g82
I4
ssg83
g1949
sg76
(lp1956
S'HTTP/1.1'
p1957
asbasbasbag69
(g85
g71
NtRp1958
(dp1959
g74
(dp1960
sg83
g1231
sg76
(lp1961
g69
(g90
g71
NtRp1962
(dp1963
g74
(dp1964
g94
g95
ssg83
g1958
sg76
(lp1965
S'server_software'
p1966
asbag69
(g90
g71
NtRp1967
(dp1968
g74
(dp1969
g101
g102
ssg83
g1958
sg76
(lp1970
S':'
asbag69
(g90
g71
NtRp1971
(dp1972
g74
(dp1973
sg83
g1958
sg76
(lp1974
g69
(g70
g71
NtRp1975
(dp1976
g74
(dp1977
g82
I4
ssg83
g1971
sg76
(lp1978
S'Rocket 1.2.6'
p1979
asbasbasbag69
(g85
g71
NtRp1980
(dp1981
g74
(dp1982
sg83
g1231
sg76
(lp1983
g69
(g90
g71
NtRp1984
(dp1985
g74
(dp1986
g94
g95
ssg83
g1980
sg76
(lp1987
S'web2py_path'
p1988
asbag69
(g90
g71
NtRp1989
(dp1990
g74
(dp1991
g101
g102
ssg83
g1980
sg76
(lp1992
S':'
asbag69
(g90
g71
NtRp1993
(dp1994
g74
(dp1995
sg83
g1980
sg76
(lp1996
g69
(g70
g71
NtRp1997
(dp1998
g74
(dp1999
g82
I4
ssg83
g1993
sg76
(lp2000
g1278
asbasbasbag69
(g85
g71
NtRp2001
(dp2002
g74
(dp2003
sg83
g1231
sg76
(lp2004
g69
(g90
g71
NtRp2005
(dp2006
g74
(dp2007
g94
g95
ssg83
g2001
sg76
(lp2008
S'web2py_version'
p2009
asbag69
(g90
g71
NtRp2010
(dp2011
g74
(dp2012
g101
g102
ssg83
g2001
sg76
(lp2013
S':'
asbag69
(g90
g71
NtRp2014
(dp2015
g74
(dp2016
sg83
g2001
sg76
(lp2017
g69
(g70
g71
NtRp2018
(dp2019
g74
(dp2020
g82
I4
ssg83
g2014
sg76
(lp2021
g69
(g78
g71
NtRp2022
(dp2023
g74
(dp2024
g82
I3
ssg83
Nsg76
(lp2025
g69
(g85
g71
NtRp2026
(dp2027
g74
(dp2028
sg83
g2022
sg76
(lp2029
g69
(g90
g71
NtRp2030
(dp2031
g74
(dp2032
sg83
g2026
sg76
(lp2033
g69
(g70
g71
NtRp2034
(dp2035
g74
(dp2036
g82
I3
ssg83
g2030
sg76
(lp2037
S'2'
asbasbasbag69
(g85
g71
NtRp2038
(dp2039
g74
(dp2040
sg83
g2022
sg76
(lp2041
g69
(g90
g71
NtRp2042
(dp2043
g74
(dp2044
sg83
g2038
sg76
(lp2045
g69
(g70
g71
NtRp2046
(dp2047
g74
(dp2048
g82
I3
ssg83
g2042
sg76
(lp2049
S'3'
asbasbasbag69
(g85
g71
NtRp2050
(dp2051
g74
(dp2052
sg83
g2022
sg76
(lp2053
g69
(g90
g71
NtRp2054
(dp2055
g74
(dp2056
sg83
g2050
sg76
(lp2057
g69
(g70
g71
NtRp2058
(dp2059
g74
(dp2060
g82
I3
ssg83
g2054
sg76
(lp2061
S'2'
asbasbasbag69
(g85
g71
NtRp2062
(dp2063
g74
(dp2064
sg83
g2022
sg76
(lp2065
g69
(g90
g71
NtRp2066
(dp2067
g74
(dp2068
sg83
g2062
sg76
(lp2069
g69
(g70
g71
NtRp2070
(dp2071
g74
(dp2072
g82
I3
ssg83
g2066
sg76
(lp2073
S'datetime.datetime(2012, 12, 17, 15, 3, 30)'
p2074
asbasbasbag69
(g85
g71
NtRp2075
(dp2076
g74
(dp2077
sg83
g2022
sg76
(lp2078
g69
(g90
g71
NtRp2079
(dp2080
g74
(dp2081
sg83
g2075
sg76
(lp2082
g69
(g70
g71
NtRp2083
(dp2084
g74
(dp2085
g82
I3
ssg83
g2079
sg76
(lp2086
S'stable'
p2087
asbasbasbasbasbasbasbag69
(g85
g71
NtRp2088
(dp2089
g74
(dp2090
sg83
g1231
sg76
(lp2091
g69
(g90
g71
NtRp2092
(dp2093
g74
(dp2094
g94
g95
ssg83
g2088
sg76
(lp2095
S'wsgi_errors'
p2096
asbag69
(g90
g71
NtRp2097
(dp2098
g74
(dp2099
g101
g102
ssg83
g2088
sg76
(lp2100
S':'
asbag69
(g90
g71
NtRp2101
(dp2102
g74
(dp2103
sg83
g2088
sg76
(lp2104
g69
(g70
g71
NtRp2105
(dp2106
g74
(dp2107
g82
I4
ssg83
g2101
sg76
(lp2108
S"<open file '<stderr>', mode 'w' at 0x7f92c1bb41e0>"
p2109
asbasbasbag69
(g85
g71
NtRp2110
(dp2111
g74
(dp2112
sg83
g1231
sg76
(lp2113
g69
(g90
g71
NtRp2114
(dp2115
g74
(dp2116
g94
g95
ssg83
g2110
sg76
(lp2117
S'wsgi_file_wrapper'
p2118
asbag69
(g90
g71
NtRp2119
(dp2120
g74
(dp2121
g101
g102
ssg83
g2110
sg76
(lp2122
S':'
asbag69
(g90
g71
NtRp2123
(dp2124
g74
(dp2125
sg83
g2110
sg76
(lp2126
g69
(g70
g71
NtRp2127
(dp2128
g74
(dp2129
g82
I4
ssg83
g2123
sg76
(lp2130
S'<class wsgiref.util.FileWrapper at 0x7f92bab98808>'
p2131
asbasbasbag69
(g85
g71
NtRp2132
(dp2133
g74
(dp2134
sg83
g1231
sg76
(lp2135
g69
(g90
g71
NtRp2136
(dp2137
g74
(dp2138
g94
g95
ssg83
g2132
sg76
(lp2139
S'wsgi_input'
p2140
asbag69
(g90
g71
NtRp2141
(dp2142
g74
(dp2143
g101
g102
ssg83
g2132
sg76
(lp2144
S':'
asbag69
(g90
g71
NtRp2145
(dp2146
g74
(dp2147
sg83
g2132
sg76
(lp2148
g69
(g70
g71
NtRp2149
(dp2150
g74
(dp2151
g82
I4
ssg83
g2145
sg76
(lp2152
S'<socket._fileobject object at 0x7f92a8060b50>'
p2153
asbasbasbag69
(g85
g71
NtRp2154
(dp2155
g74
(dp2156
sg83
g1231
sg76
(lp2157
g69
(g90
g71
NtRp2158
(dp2159
g74
(dp2160
g94
g95
ssg83
g2154
sg76
(lp2161
S'wsgi_multiprocess'
p2162
asbag69
(g90
g71
NtRp2163
(dp2164
g74
(dp2165
g101
g102
ssg83
g2154
sg76
(lp2166
S':'
asbag69
(g90
g71
NtRp2167
(dp2168
g74
(dp2169
sg83
g2154
sg76
(lp2170
g69
(g70
g71
NtRp2171
(dp2172
g74
(dp2173
g82
I4
ssg83
g2167
sg76
(lp2174
g112
asbasbasbag69
(g85
g71
NtRp2175
(dp2176
g74
(dp2177
sg83
g1231
sg76
(lp2178
g69
(g90
g71
NtRp2179
(dp2180
g74
(dp2181
g94
g95
ssg83
g2175
sg76
(lp2182
S'wsgi_multithread'
p2183
asbag69
(g90
g71
NtRp2184
(dp2185
g74
(dp2186
g101
g102
ssg83
g2175
sg76
(lp2187
S':'
asbag69
(g90
g71
NtRp2188
(dp2189
g74
(dp2190
sg83
g2175
sg76
(lp2191
g69
(g70
g71
NtRp2192
(dp2193
g74
(dp2194
g82
I4
ssg83
g2188
sg76
(lp2195
S'True'
p2196
asbasbasbag69
(g85
g71
NtRp2197
(dp2198
g74
(dp2199
sg83
g1231
sg76
(lp2200
g69
(g90
g71
NtRp2201
(dp2202
g74
(dp2203
g94
g95
ssg83
g2197
sg76
(lp2204
S'wsgi_run_once'
p2205
asbag69
(g90
g71
NtRp2206
(dp2207
g74
(dp2208
g101
g102
ssg83
g2197
sg76
(lp2209
S':'
asbag69
(g90
g71
NtRp2210
(dp2211
g74
(dp2212
sg83
g2197
sg76
(lp2213
g69
(g70
g71
NtRp2214
(dp2215
g74
(dp2216
g82
I4
ssg83
g2210
sg76
(lp2217
g112
asbasbasbag69
(g85
g71
NtRp2218
(dp2219
g74
(dp2220
sg83
g1231
sg76
(lp2221
g69
(g90
g71
NtRp2222
(dp2223
g74
(dp2224
g94
g95
ssg83
g2218
sg76
(lp2225
S'wsgi_url_scheme'
p2226
asbag69
(g90
g71
NtRp2227
(dp2228
g74
(dp2229
g101
g102
ssg83
g2218
sg76
(lp2230
S':'
asbag69
(g90
g71
NtRp2231
(dp2232
g74
(dp2233
sg83
g2218
sg76
(lp2234
g69
(g70
g71
NtRp2235
(dp2236
g74
(dp2237
g82
I4
ssg83
g2231
sg76
(lp2238
S'http'
p2239
asbasbasbag69
(g85
g71
NtRp2240
(dp2241
g74
(dp2242
sg83
g1231
sg76
(lp2243
g69
(g90
g71
NtRp2244
(dp2245
g74
(dp2246
g94
g95
ssg83
g2240
sg76
(lp2247
S'wsgi_version'
p2248
asbag69
(g90
g71
NtRp2249
(dp2250
g74
(dp2251
g101
g102
ssg83
g2240
sg76
(lp2252
S':'
asbag69
(g90
g71
NtRp2253
(dp2254
g74
(dp2255
sg83
g2240
sg76
(lp2256
g69
(g70
g71
NtRp2257
(dp2258
g74
(dp2259
g82
I4
ssg83
g2253
sg76
(lp2260
g69
(g78
g71
NtRp2261
(dp2262
g74
(dp2263
g82
I3
ssg83
Nsg76
(lp2264
g69
(g85
g71
NtRp2265
(dp2266
g74
(dp2267
sg83
g2261
sg76
(lp2268
g69
(g90
g71
NtRp2269
(dp2270
g74
(dp2271
sg83
g2265
sg76
(lp2272
g69
(g70
g71
NtRp2273
(dp2274
g74
(dp2275
g82
I3
ssg83
g2269
sg76
(lp2276
S'1'
asbasbasbag69
(g85
g71
NtRp2277
(dp2278
g74
(dp2279
sg83
g2261
sg76
(lp2280
g69
(g90
g71
NtRp2281
(dp2282
g74
(dp2283
sg83
g2277
sg76
(lp2284
g69
(g70
g71
NtRp2285
(dp2286
g74
(dp2287
g82
I3
ssg83
g2281
sg76
(lp2288
S'0'
asbasbasbasbasbasbasbasbasbasbasbag69
(g85
g71
NtRp2289
(dp2290
g74
(dp2291
sg83
g79
sg76
(lp2292
g69
(g90
g71
NtRp2293
(dp2294
g74
(dp2295
g94
g95
ssg83
g2289
sg76
(lp2296
S'extension'
p2297
asbag69
(g90
g71
NtRp2298
(dp2299
g74
(dp2300
g101
g102
ssg83
g2289
sg76
(lp2301
S':'
asbag69
(g90
g71
NtRp2302
(dp2303
g74
(dp2304
sg83
g2289
sg76
(lp2305
g69
(g70
g71
NtRp2306
(dp2307
g74
(dp2308
g82
I5
ssg83
g2302
sg76
(lp2309
S'html'
p2310
asbasbasbag69
(g85
g71
NtRp2311
(dp2312
g74
(dp2313
sg83
g79
sg76
(lp2314
g69
(g90
g71
NtRp2315
(dp2316
g74
(dp2317
g94
g95
ssg83
g2311
sg76
(lp2318
S'folder'
p2319
asbag69
(g90
g71
NtRp2320
(dp2321
g74
(dp2322
g101
g102
ssg83
g2311
sg76
(lp2323
S':'
asbag69
(g90
g71
NtRp2324
(dp2325
g74
(dp2326
sg83
g2311
sg76
(lp2327
g69
(g70
g71
NtRp2328
(dp2329
g74
(dp2330
g82
I5
ssg83
g2324
sg76
(lp2331
S'/home/darshan/web2py/applications/Garbage_Truck/'
p2332
asbasbasbag69
(g85
g71
NtRp2333
(dp2334
g74
(dp2335
sg83
g79
sg76
(lp2336
g69
(g90
g71
NtRp2337
(dp2338
g74
(dp2339
g94
g95
ssg83
g2333
sg76
(lp2340
S'function'
p2341
asbag69
(g90
g71
NtRp2342
(dp2343
g74
(dp2344
g101
g102
ssg83
g2333
sg76
(lp2345
S':'
asbag69
(g90
g71
NtRp2346
(dp2347
g74
(dp2348
sg83
g2333
sg76
(lp2349
g69
(g70
g71
NtRp2350
(dp2351
g74
(dp2352
g82
I5
ssg83
g2346
sg76
(lp2353
S'index'
p2354
asbasbasbag69
(g85
g71
NtRp2355
(dp2356
g74
(dp2357
sg83
g79
sg76
(lp2358
g69
(g90
g71
NtRp2359
(dp2360
g74
(dp2361
g94
g95
ssg83
g2355
sg76
(lp2362
S'get_vars'
p2363
asbag69
(g90
g71
NtRp2364
(dp2365
g74
(dp2366
g101
g102
ssg83
g2355
sg76
(lp2367
S':'
asbag69
(g90
g71
NtRp2368
(dp2369
g74
(dp2370
sg83
g2355
sg76
(lp2371
g69
(g70
g71
NtRp2372
(dp2373
g74
(dp2374
g82
I5
ssg83
g2368
sg76
(lp2375
g69
(g78
g71
NtRp2376
(dp2377
g74
(dp2378
g82
I4
ssg83
Nsg76
(lp2379
sbasbasbasbag69
(g85
g71
NtRp2380
(dp2381
g74
(dp2382
sg83
g79
sg76
(lp2383
g69
(g90
g71
NtRp2384
(dp2385
g74
(dp2386
g94
g95
ssg83
g2380
sg76
(lp2387
S'global_settings'
p2388
asbag69
(g90
g71
NtRp2389
(dp2390
g74
(dp2391
g101
g102
ssg83
g2380
sg76
(lp2392
S':'
asbag69
(g90
g71
NtRp2393
(dp2394
g74
(dp2395
sg83
g2380
sg76
(lp2396
g69
(g70
g71
NtRp2397
(dp2398
g74
(dp2399
g82
I5
ssg83
g2393
sg76
(lp2400
g69
(g78
g71
NtRp2401
(dp2402
g74
(dp2403
g82
I4
ssg83
Nsg76
(lp2404
g69
(g85
g71
NtRp2405
(dp2406
g74
(dp2407
sg83
g2401
sg76
(lp2408
g69
(g90
g71
NtRp2409
(dp2410
g74
(dp2411
g94
g95
ssg83
g2405
sg76
(lp2412
g1243
asbag69
(g90
g71
NtRp2413
(dp2414
g74
(dp2415
g101
g102
ssg83
g2405
sg76
(lp2416
S':'
asbag69
(g90
g71
NtRp2417
(dp2418
g74
(dp2419
sg83
g2405
sg76
(lp2420
g69
(g70
g71
NtRp2421
(dp2422
g74
(dp2423
g82
I4
ssg83
g2417
sg76
(lp2424
S"set(['/home/darshan/web2py/applications/Isas/', '/home/darshan/web2py/applications/examples/', '/home/darshan/web2py/applications/readit/', '/home/darshan/web2py/applications/admin/', '/home/darshan/web2py/applications/Garbage_Truck/', '/home/darshan/web2py/applications/welcome/', '/home/darshan/web2py/applications/isas/'])"
p2425
asbasbasbag69
(g85
g71
NtRp2426
(dp2427
g74
(dp2428
sg83
g2401
sg76
(lp2429
g69
(g90
g71
NtRp2430
(dp2431
g74
(dp2432
g94
g95
ssg83
g2426
sg76
(lp2433
g1265
asbag69
(g90
g71
NtRp2434
(dp2435
g74
(dp2436
g101
g102
ssg83
g2426
sg76
(lp2437
S':'
asbag69
(g90
g71
NtRp2438
(dp2439
g74
(dp2440
sg83
g2426
sg76
(lp2441
g69
(g70
g71
NtRp2442
(dp2443
g74
(dp2444
g82
I4
ssg83
g2438
sg76
(lp2445
g1278
asbasbasbag69
(g85
g71
NtRp2446
(dp2447
g74
(dp2448
sg83
g2401
sg76
(lp2449
g69
(g90
g71
NtRp2450
(dp2451
g74
(dp2452
g94
g95
ssg83
g2446
sg76
(lp2453
g1287
asbag69
(g90
g71
NtRp2454
(dp2455
g74
(dp2456
g101
g102
ssg83
g2446
sg76
(lp2457
S':'
asbag69
(g90
g71
NtRp2458
(dp2459
g74
(dp2460
sg83
g2446
sg76
(lp2461
g69
(g70
g71
NtRp2462
(dp2463
g74
(dp2464
g82
I4
ssg83
g2458
sg76
(lp2465
g69
(g78
g71
NtRp2466
(dp2467
g74
(dp2468
g82
I3
ssg83
Nsg76
(lp2469
sbasbasbasbag69
(g85
g71
NtRp2470
(dp2471
g74
(dp2472
sg83
g2401
sg76
(lp2473
g69
(g90
g71
NtRp2474
(dp2475
g74
(dp2476
g94
g95
ssg83
g2470
sg76
(lp2477
g1312
asbag69
(g90
g71
NtRp2478
(dp2479
g74
(dp2480
g101
g102
ssg83
g2470
sg76
(lp2481
S':'
asbag69
(g90
g71
NtRp2482
(dp2483
g74
(dp2484
sg83
g2470
sg76
(lp2485
g69
(g70
g71
NtRp2486
(dp2487
g74
(dp2488
g82
I4
ssg83
g2482
sg76
(lp2489
S"<Values at 0x7f92baaf7f80: {'verbose': False, 'ip': '127.0.0.1', 'with_scheduler': False, 'ips': [], 'shutdown_timeout': 5, 'taskbar': False, 'port': 8000, 'maxthreads': None, 'softcron': False, 'server_name': 'darshan-Inspiron-5520', 'bpython': False, 'nogui': False, 'pid_filename': 'httpserver.pid', 'extcron': False, 'runcron': False, 'run_system_tests': False, 'test': None, 'folder': '/home/darshan/web2py', 'config': '', 'minthreads': None, 'winservice': '', 'shell': None, 'run': '', 'log_filename': 'httpserver.log', 'debuglevel': 30, 'args': [''], 'socket_timeout': 5, 'ssl_ca_certificate': None, 'scheduler': None, 'profiler_filename': None, 'ssl_private_key': '', 'scheduler_groups': None, 'password': '<ask>', 'request_queue_size': 5, 'ssl_certificate': '', 'cronjob': False, 'numthreads': None, 'quiet': False, 'interfaces': None, 'import_models': False, 'timeout': 10, 'plain': False, 'nobanner': False}>"
p2490
asbasbasbag69
(g85
g71
NtRp2491
(dp2492
g74
(dp2493
sg83
g2401
sg76
(lp2494
g69
(g90
g71
NtRp2495
(dp2496
g74
(dp2497
g94
g95
ssg83
g2491
sg76
(lp2498
g1334
asbag69
(g90
g71
NtRp2499
(dp2500
g74
(dp2501
g101
g102
ssg83
g2491
sg76
(lp2502
S':'
asbag69
(g90
g71
NtRp2503
(dp2504
g74
(dp2505
sg83
g2491
sg76
(lp2506
g69
(g70
g71
NtRp2507
(dp2508
g74
(dp2509
g82
I4
ssg83
g2503
sg76
(lp2510
S'set([])'
p2511
asbasbasbag69
(g85
g71
NtRp2512
(dp2513
g74
(dp2514
sg83
g2401
sg76
(lp2515
g69
(g90
g71
NtRp2516
(dp2517
g74
(dp2518
g94
g95
ssg83
g2512
sg76
(lp2519
g1356
asbag69
(g90
g71
NtRp2520
(dp2521
g74
(dp2522
g101
g102
ssg83
g2512
sg76
(lp2523
S':'
asbag69
(g90
g71
NtRp2524
(dp2525
g74
(dp2526
sg83
g2512
sg76
(lp2527
g69
(g70
g71
NtRp2528
(dp2529
g74
(dp2530
g82
I4
ssg83
g2524
sg76
(lp2531
g112
asbasbasbag69
(g85
g71
NtRp2532
(dp2533
g74
(dp2534
sg83
g2401
sg76
(lp2535
g69
(g90
g71
NtRp2536
(dp2537
g74
(dp2538
g94
g95
ssg83
g2532
sg76
(lp2539
g1377
asbag69
(g90
g71
NtRp2540
(dp2541
g74
(dp2542
g101
g102
ssg83
g2532
sg76
(lp2543
S':'
asbag69
(g90
g71
NtRp2544
(dp2545
g74
(dp2546
sg83
g2532
sg76
(lp2547
g69
(g70
g71
NtRp2548
(dp2549
g74
(dp2550
g82
I4
ssg83
g2544
sg76
(lp2551
g1390
asbasbasbag69
(g85
g71
NtRp2552
(dp2553
g74
(dp2554
sg83
g2401
sg76
(lp2555
g69
(g90
g71
NtRp2556
(dp2557
g74
(dp2558
g94
g95
ssg83
g2552
sg76
(lp2559
g1618
asbag69
(g90
g71
NtRp2560
(dp2561
g74
(dp2562
g101
g102
ssg83
g2552
sg76
(lp2563
S':'
asbag69
(g90
g71
NtRp2564
(dp2565
g74
(dp2566
sg83
g2552
sg76
(lp2567
g69
(g70
g71
NtRp2568
(dp2569
g74
(dp2570
g82
I4
ssg83
g2564
sg76
(lp2571
g112
asbasbasbag69
(g85
g71
NtRp2572
(dp2573
g74
(dp2574
sg83
g2401
sg76
(lp2575
g69
(g90
g71
NtRp2576
(dp2577
g74
(dp2578
g94
g95
ssg83
g2572
sg76
(lp2579
g1639
asbag69
(g90
g71
NtRp2580
(dp2581
g74
(dp2582
g101
g102
ssg83
g2572
sg76
(lp2583
S':'
asbag69
(g90
g71
NtRp2584
(dp2585
g74
(dp2586
sg83
g2572
sg76
(lp2587
g69
(g70
g71
NtRp2588
(dp2589
g74
(dp2590
g82
I4
ssg83
g2584
sg76
(lp2591
g112
asbasbasbag69
(g85
g71
NtRp2592
(dp2593
g74
(dp2594
sg83
g2401
sg76
(lp2595
g69
(g90
g71
NtRp2596
(dp2597
g74
(dp2598
g94
g95
ssg83
g2592
sg76
(lp2599
g1660
asbag69
(g90
g71
NtRp2600
(dp2601
g74
(dp2602
g101
g102
ssg83
g2592
sg76
(lp2603
S':'
asbag69
(g90
g71
NtRp2604
(dp2605
g74
(dp2606
sg83
g2592
sg76
(lp2607
g69
(g70
g71
NtRp2608
(dp2609
g74
(dp2610
g82
I4
ssg83
g2604
sg76
(lp2611
g69
(g78
g71
NtRp2612
(dp2613
g74
(dp2614
g82
I3
ssg83
Nsg76
(lp2615
g69
(g85
g71
NtRp2616
(dp2617
g74
(dp2618
sg83
g2612
sg76
(lp2619
g69
(g90
g71
NtRp2620
(dp2621
g74
(dp2622
sg83
g2616
sg76
(lp2623
g69
(g70
g71
NtRp2624
(dp2625
g74
(dp2626
g82
I3
ssg83
g2620
sg76
(lp2627
g1689
asbasbasbag69
(g85
g71
NtRp2628
(dp2629
g74
(dp2630
sg83
g2612
sg76
(lp2631
g69
(g90
g71
NtRp2632
(dp2633
g74
(dp2634
sg83
g2628
sg76
(lp2635
g69
(g70
g71
NtRp2636
(dp2637
g74
(dp2638
g82
I3
ssg83
g2632
sg76
(lp2639
g1702
asbasbasbag69
(g85
g71
NtRp2640
(dp2641
g74
(dp2642
sg83
g2612
sg76
(lp2643
g69
(g90
g71
NtRp2644
(dp2645
g74
(dp2646
sg83
g2640
sg76
(lp2647
g69
(g70
g71
NtRp2648
(dp2649
g74
(dp2650
g82
I3
ssg83
g2644
sg76
(lp2651
g1715
asbasbasbag69
(g85
g71
NtRp2652
(dp2653
g74
(dp2654
sg83
g2612
sg76
(lp2655
g69
(g90
g71
NtRp2656
(dp2657
g74
(dp2658
sg83
g2652
sg76
(lp2659
g69
(g70
g71
NtRp2660
(dp2661
g74
(dp2662
g82
I3
ssg83
g2656
sg76
(lp2663
g1728
asbasbasbag69
(g85
g71
NtRp2664
(dp2665
g74
(dp2666
sg83
g2612
sg76
(lp2667
g69
(g90
g71
NtRp2668
(dp2669
g74
(dp2670
sg83
g2664
sg76
(lp2671
g69
(g70
g71
NtRp2672
(dp2673
g74
(dp2674
g82
I3
ssg83
g2668
sg76
(lp2675
g1741
asbasbasbasbasbasbasbag69
(g85
g71
NtRp2676
(dp2677
g74
(dp2678
sg83
g2401
sg76
(lp2679
g69
(g90
g71
NtRp2680
(dp2681
g74
(dp2682
g94
g95
ssg83
g2676
sg76
(lp2683
g2009
asbag69
(g90
g71
NtRp2684
(dp2685
g74
(dp2686
g101
g102
ssg83
g2676
sg76
(lp2687
S':'
asbag69
(g90
g71
NtRp2688
(dp2689
g74
(dp2690
sg83
g2676
sg76
(lp2691
g69
(g70
g71
NtRp2692
(dp2693
g74
(dp2694
g82
I4
ssg83
g2688
sg76
(lp2695
g69
(g78
g71
NtRp2696
(dp2697
g74
(dp2698
g82
I3
ssg83
Nsg76
(lp2699
g69
(g85
g71
NtRp2700
(dp2701
g74
(dp2702
sg83
g2696
sg76
(lp2703
g69
(g90
g71
NtRp2704
(dp2705
g74
(dp2706
sg83
g2700
sg76
(lp2707
g69
(g70
g71
NtRp2708
(dp2709
g74
(dp2710
g82
I3
ssg83
g2704
sg76
(lp2711
S'2'
asbasbasbag69
(g85
g71
NtRp2712
(dp2713
g74
(dp2714
sg83
g2696
sg76
(lp2715
g69
(g90
g71
NtRp2716
(dp2717
g74
(dp2718
sg83
g2712
sg76
(lp2719
g69
(g70
g71
NtRp2720
(dp2721
g74
(dp2722
g82
I3
ssg83
g2716
sg76
(lp2723
S'3'
asbasbasbag69
(g85
g71
NtRp2724
(dp2725
g74
(dp2726
sg83
g2696
sg76
(lp2727
g69
(g90
g71
NtRp2728
(dp2729
g74
(dp2730
sg83
g2724
sg76
(lp2731
g69
(g70
g71
NtRp2732
(dp2733
g74
(dp2734
g82
I3
ssg83
g2728
sg76
(lp2735
S'2'
asbasbasbag69
(g85
g71
NtRp2736
(dp2737
g74
(dp2738
sg83
g2696
sg76
(lp2739
g69
(g90
g71
NtRp2740
(dp2741
g74
(dp2742
sg83
g2736
sg76
(lp2743
g69
(g70
g71
NtRp2744
(dp2745
g74
(dp2746
g82
I3
ssg83
g2740
sg76
(lp2747
S'datetime.datetime(2012, 12, 17, 15, 3, 30)'
p2748
asbasbasbag69
(g85
g71
NtRp2749
(dp2750
g74
(dp2751
sg83
g2696
sg76
(lp2752
g69
(g90
g71
NtRp2753
(dp2754
g74
(dp2755
sg83
g2749
sg76
(lp2756
g69
(g70
g71
NtRp2757
(dp2758
g74
(dp2759
g82
I3
ssg83
g2753
sg76
(lp2760
g2087
asbasbasbasbasbasbasbasbasbasbasbag69
(g85
g71
NtRp2761
(dp2762
g74
(dp2763
sg83
g79
sg76
(lp2764
g69
(g90
g71
NtRp2765
(dp2766
g74
(dp2767
g94
g95
ssg83
g2761
sg76
(lp2768
S'is_https'
p2769
asbag69
(g90
g71
NtRp2770
(dp2771
g74
(dp2772
g101
g102
ssg83
g2761
sg76
(lp2773
S':'
asbag69
(g90
g71
NtRp2774
(dp2775
g74
(dp2776
sg83
g2761
sg76
(lp2777
g69
(g70
g71
NtRp2778
(dp2779
g74
(dp2780
g82
I5
ssg83
g2774
sg76
(lp2781
g112
asbasbasbag69
(g85
g71
NtRp2782
(dp2783
g74
(dp2784
sg83
g79
sg76
(lp2785
g69
(g90
g71
NtRp2786
(dp2787
g74
(dp2788
g94
g95
ssg83
g2782
sg76
(lp2789
S'is_local'
p2790
asbag69
(g90
g71
NtRp2791
(dp2792
g74
(dp2793
g101
g102
ssg83
g2782
sg76
(lp2794
S':'
asbag69
(g90
g71
NtRp2795
(dp2796
g74
(dp2797
sg83
g2782
sg76
(lp2798
g69
(g70
g71
NtRp2799
(dp2800
g74
(dp2801
g82
I5
ssg83
g2795
sg76
(lp2802
g2196
asbasbasbag69
(g85
g71
NtRp2803
(dp2804
g74
(dp2805
sg83
g79
sg76
(lp2806
g69
(g90
g71
NtRp2807
(dp2808
g74
(dp2809
g94
g95
ssg83
g2803
sg76
(lp2810
S'is_restful'
p2811
asbag69
(g90
g71
NtRp2812
(dp2813
g74
(dp2814
g101
g102
ssg83
g2803
sg76
(lp2815
S':'
asbag69
(g90
g71
NtRp2816
(dp2817
g74
(dp2818
sg83
g2803
sg76
(lp2819
g69
(g70
g71
NtRp2820
(dp2821
g74
(dp2822
g82
I5
ssg83
g2816
sg76
(lp2823
g112
asbasbasbag69
(g85
g71
NtRp2824
(dp2825
g74
(dp2826
sg83
g79
sg76
(lp2827
g69
(g90
g71
NtRp2828
(dp2829
g74
(dp2830
g94
g95
ssg83
g2824
sg76
(lp2831
S'now'
p2832
asbag69
(g90
g71
NtRp2833
(dp2834
g74
(dp2835
g101
g102
ssg83
g2824
sg76
(lp2836
S':'
asbag69
(g90
g71
NtRp2837
(dp2838
g74
(dp2839
sg83
g2824
sg76
(lp2840
g69
(g70
g71
NtRp2841
(dp2842
g74
(dp2843
g82
I5
ssg83
g2837
sg76
(lp2844
S'datetime.datetime(2014, 9, 28, 0, 39, 58, 501516)'
p2845
asbasbasbag69
(g85
g71
NtRp2846
(dp2847
g74
(dp2848
sg83
g79
sg76
(lp2849
g69
(g90
g71
NtRp2850
(dp2851
g74
(dp2852
g94
g95
ssg83
g2846
sg76
(lp2853
S'post_vars'
p2854
asbag69
(g90
g71
NtRp2855
(dp2856
g74
(dp2857
g101
g102
ssg83
g2846
sg76
(lp2858
S':'
asbag69
(g90
g71
NtRp2859
(dp2860
g74
(dp2861
sg83
g2846
sg76
(lp2862
g69
(g70
g71
NtRp2863
(dp2864
g74
(dp2865
g82
I5
ssg83
g2859
sg76
(lp2866
g69
(g78
g71
NtRp2867
(dp2868
g74
(dp2869
g82
I4
ssg83
Nsg76
(lp2870
sbasbasbasbag69
(g85
g71
NtRp2871
(dp2872
g74
(dp2873
sg83
g79
sg76
(lp2874
g69
(g90
g71
NtRp2875
(dp2876
g74
(dp2877
g94
g95
ssg83
g2871
sg76
(lp2878
S'raw_args'
p2879
asbag69
(g90
g71
NtRp2880
(dp2881
g74
(dp2882
g101
g102
ssg83
g2871
sg76
(lp2883
S':'
asbag69
(g90
g71
NtRp2884
(dp2885
g74
(dp2886
sg83
g2871
sg76
(lp2887
g69
(g70
g71
NtRp2888
(dp2889
g74
(dp2890
g82
I5
ssg83
g2884
sg76
(lp2891
S''
asbasbasbag69
(g85
g71
NtRp2892
(dp2893
g74
(dp2894
sg83
g79
sg76
(lp2895
g69
(g90
g71
NtRp2896
(dp2897
g74
(dp2898
g94
g95
ssg83
g2892
sg76
(lp2899
S'raw_extension'
p2900
asbag69
(g90
g71
NtRp2901
(dp2902
g74
(dp2903
g101
g102
ssg83
g2892
sg76
(lp2904
S':'
asbag69
(g90
g71
NtRp2905
(dp2906
g74
(dp2907
sg83
g2892
sg76
(lp2908
g69
(g70
g71
NtRp2909
(dp2910
g74
(dp2911
g82
I5
ssg83
g2905
sg76
(lp2912
S'None'
p2913
asbasbasbag69
(g85
g71
NtRp2914
(dp2915
g74
(dp2916
sg83
g79
sg76
(lp2917
g69
(g90
g71
NtRp2918
(dp2919
g74
(dp2920
g94
g95
ssg83
g2914
sg76
(lp2921
S'url'
p2922
asbag69
(g90
g71
NtRp2923
(dp2924
g74
(dp2925
g101
g102
ssg83
g2914
sg76
(lp2926
S':'
asbag69
(g90
g71
NtRp2927
(dp2928
g74
(dp2929
sg83
g2914
sg76
(lp2930
g69
(g70
g71
NtRp2931
(dp2932
g74
(dp2933
g82
I5
ssg83
g2927
sg76
(lp2934
g1763
asbasbasbag69
(g85
g71
NtRp2935
(dp2936
g74
(dp2937
sg83
g79
sg76
(lp2938
g69
(g90
g71
NtRp2939
(dp2940
g74
(dp2941
g94
g95
ssg83
g2935
sg76
(lp2942
S'utcnow'
p2943
asbag69
(g90
g71
NtRp2944
(dp2945
g74
(dp2946
g101
g102
ssg83
g2935
sg76
(lp2947
S':'
asbag69
(g90
g71
NtRp2948
(dp2949
g74
(dp2950
sg83
g2935
sg76
(lp2951
g69
(g70
g71
NtRp2952
(dp2953
g74
(dp2954
g82
I5
ssg83
g2948
sg76
(lp2955
S'datetime.datetime(2014, 9, 27, 19, 9, 58, 501554)'
p2956
asbasbasbag69
(g85
g71
NtRp2957
(dp2958
g74
(dp2959
sg83
g79
sg76
(lp2960
g69
(g90
g71
NtRp2961
(dp2962
g74
(dp2963
g94
g95
ssg83
g2957
sg76
(lp2964
S'uuid'
p2965
asbag69
(g90
g71
NtRp2966
(dp2967
g74
(dp2968
g101
g102
ssg83
g2957
sg76
(lp2969
S':'
asbag69
(g90
g71
NtRp2970
(dp2971
g74
(dp2972
sg83
g2957
sg76
(lp2973
g69
(g70
g71
NtRp2974
(dp2975
g74
(dp2976
g82
I5
ssg83
g2970
sg76
(lp2977
S'Garbage_Truck/127.0.0.1.2014-09-28.00-39-58.8db16920-0b8f-4d80-ade0-8bed26545f49'
p2978
asbasbasbag69
(g85
g71
NtRp2979
(dp2980
g74
(dp2981
sg83
g79
sg76
(lp2982
g69
(g90
g71
NtRp2983
(dp2984
g74
(dp2985
g94
g95
ssg83
g2979
sg76
(lp2986
S'vars'
p2987
asbag69
(g90
g71
NtRp2988
(dp2989
g74
(dp2990
g101
g102
ssg83
g2979
sg76
(lp2991
S':'
asbag69
(g90
g71
NtRp2992
(dp2993
g74
(dp2994
sg83
g2979
sg76
(lp2995
g69
(g70
g71
NtRp2996
(dp2997
g74
(dp2998
g82
I5
ssg83
g2992
sg76
(lp2999
g69
(g78
g71
NtRp3000
(dp3001
g74
(dp3002
g82
I4
ssg83
Nsg76
(lp3003
sbasbasbasbag69
(g85
g71
NtRp3004
(dp3005
g74
(dp3006
sg83
g79
sg76
(lp3007
g69
(g90
g71
NtRp3008
(dp3009
g74
(dp3010
g94
g95
ssg83
g3004
sg76
(lp3011
S'wsgi'
p3012
asbag69
(g90
g71
NtRp3013
(dp3014
g74
(dp3015
g101
g102
ssg83
g3004
sg76
(lp3016
S':'
asbag69
(g90
g71
NtRp3017
(dp3018
g74
(dp3019
sg83
g3004
sg76
(lp3020
g69
(g70
g71
NtRp3021
(dp3022
g74
(dp3023
g82
I5
ssg83
g3017
sg76
(lp3024
g69
(g78
g71
NtRp3025
(dp3026
g74
(dp3027
g82
I4
ssg83
Nsg76
(lp3028
g69
(g85
g71
NtRp3029
(dp3030
g74
(dp3031
sg83
g3025
sg76
(lp3032
g69
(g90
g71
NtRp3033
(dp3034
g74
(dp3035
g94
g95
ssg83
g3029
sg76
(lp3036
S'environ'
p3037
asbag69
(g90
g71
NtRp3038
(dp3039
g74
(dp3040
g101
g102
ssg83
g3029
sg76
(lp3041
S':'
asbag69
(g90
g71
NtRp3042
(dp3043
g74
(dp3044
sg83
g3029
sg76
(lp3045
g69
(g70
g71
NtRp3046
(dp3047
g74
(dp3048
g82
I4
ssg83
g3042
sg76
(lp3049
g69
(g78
g71
NtRp3050
(dp3051
g74
(dp3052
g82
I3
ssg83
Nsg76
(lp3053
g69
(g85
g71
NtRp3054
(dp3055
g74
(dp3056
sg83
g3050
sg76
(lp3057
g69
(g90
g71
NtRp3058
(dp3059
g74
(dp3060
g94
g95
ssg83
g3054
sg76
(lp3061
S'HTTP_ACCEPT'
p3062
asbag69
(g90
g71
NtRp3063
(dp3064
g74
(dp3065
g101
g102
ssg83
g3054
sg76
(lp3066
S':'
asbag69
(g90
g71
NtRp3067
(dp3068
g74
(dp3069
sg83
g3054
sg76
(lp3070
g69
(g70
g71
NtRp3071
(dp3072
g74
(dp3073
g82
I3
ssg83
g3067
sg76
(lp3074
g1412
asbasbasbag69
(g85
g71
NtRp3075
(dp3076
g74
(dp3077
sg83
g3050
sg76
(lp3078
g69
(g90
g71
NtRp3079
(dp3080
g74
(dp3081
g94
g95
ssg83
g3075
sg76
(lp3082
S'HTTP_ACCEPT_ENCODING'
p3083
asbag69
(g90
g71
NtRp3084
(dp3085
g74
(dp3086
g101
g102
ssg83
g3075
sg76
(lp3087
S':'
asbag69
(g90
g71
NtRp3088
(dp3089
g74
(dp3090
sg83
g3075
sg76
(lp3091
g69
(g70
g71
NtRp3092
(dp3093
g74
(dp3094
g82
I3
ssg83
g3088
sg76
(lp3095
g1434
asbasbasbag69
(g85
g71
NtRp3096
(dp3097
g74
(dp3098
sg83
g3050
sg76
(lp3099
g69
(g90
g71
NtRp3100
(dp3101
g74
(dp3102
g94
g95
ssg83
g3096
sg76
(lp3103
S'HTTP_ACCEPT_LANGUAGE'
p3104
asbag69
(g90
g71
NtRp3105
(dp3106
g74
(dp3107
g101
g102
ssg83
g3096
sg76
(lp3108
S':'
asbag69
(g90
g71
NtRp3109
(dp3110
g74
(dp3111
sg83
g3096
sg76
(lp3112
g69
(g70
g71
NtRp3113
(dp3114
g74
(dp3115
g82
I3
ssg83
g3109
sg76
(lp3116
g1456
asbasbasbag69
(g85
g71
NtRp3117
(dp3118
g74
(dp3119
sg83
g3050
sg76
(lp3120
g69
(g90
g71
NtRp3121
(dp3122
g74
(dp3123
g94
g95
ssg83
g3117
sg76
(lp3124
S'HTTP_CACHE_CONTROL'
p3125
asbag69
(g90
g71
NtRp3126
(dp3127
g74
(dp3128
g101
g102
ssg83
g3117
sg76
(lp3129
S':'
asbag69
(g90
g71
NtRp3130
(dp3131
g74
(dp3132
sg83
g3117
sg76
(lp3133
g69
(g70
g71
NtRp3134
(dp3135
g74
(dp3136
g82
I3
ssg83
g3130
sg76
(lp3137
g1478
asbasbasbag69
(g85
g71
NtRp3138
(dp3139
g74
(dp3140
sg83
g3050
sg76
(lp3141
g69
(g90
g71
NtRp3142
(dp3143
g74
(dp3144
g94
g95
ssg83
g3138
sg76
(lp3145
S'HTTP_CONNECTION'
p3146
asbag69
(g90
g71
NtRp3147
(dp3148
g74
(dp3149
g101
g102
ssg83
g3138
sg76
(lp3150
S':'
asbag69
(g90
g71
NtRp3151
(dp3152
g74
(dp3153
sg83
g3138
sg76
(lp3154
g69
(g70
g71
NtRp3155
(dp3156
g74
(dp3157
g82
I3
ssg83
g3151
sg76
(lp3158
g1500
asbasbasbag69
(g85
g71
NtRp3159
(dp3160
g74
(dp3161
sg83
g3050
sg76
(lp3162
g69
(g90
g71
NtRp3163
(dp3164
g74
(dp3165
g94
g95
ssg83
g3159
sg76
(lp3166
S'HTTP_COOKIE'
p3167
asbag69
(g90
g71
NtRp3168
(dp3169
g74
(dp3170
g101
g102
ssg83
g3159
sg76
(lp3171
S':'
asbag69
(g90
g71
NtRp3172
(dp3173
g74
(dp3174
sg83
g3159
sg76
(lp3175
g69
(g70
g71
NtRp3176
(dp3177
g74
(dp3178
g82
I3
ssg83
g3172
sg76
(lp3179
g1522
asbasbasbag69
(g85
g71
NtRp3180
(dp3181
g74
(dp3182
sg83
g3050
sg76
(lp3183
g69
(g90
g71
NtRp3184
(dp3185
g74
(dp3186
g94
g95
ssg83
g3180
sg76
(lp3187
S'HTTP_DNT'
p3188
asbag69
(g90
g71
NtRp3189
(dp3190
g74
(dp3191
g101
g102
ssg83
g3180
sg76
(lp3192
S':'
asbag69
(g90
g71
NtRp3193
(dp3194
g74
(dp3195
sg83
g3180
sg76
(lp3196
g69
(g70
g71
NtRp3197
(dp3198
g74
(dp3199
g82
I3
ssg83
g3193
sg76
(lp3200
S'1'
asbasbasbag69
(g85
g71
NtRp3201
(dp3202
g74
(dp3203
sg83
g3050
sg76
(lp3204
g69
(g90
g71
NtRp3205
(dp3206
g74
(dp3207
g94
g95
ssg83
g3201
sg76
(lp3208
S'HTTP_HOST'
p3209
asbag69
(g90
g71
NtRp3210
(dp3211
g74
(dp3212
g101
g102
ssg83
g3201
sg76
(lp3213
S':'
asbag69
(g90
g71
NtRp3214
(dp3215
g74
(dp3216
sg83
g3201
sg76
(lp3217
g69
(g70
g71
NtRp3218
(dp3219
g74
(dp3220
g82
I3
ssg83
g3214
sg76
(lp3221
g1565
asbasbasbag69
(g85
g71
NtRp3222
(dp3223
g74
(dp3224
sg83
g3050
sg76
(lp3225
g69
(g90
g71
NtRp3226
(dp3227
g74
(dp3228
g94
g95
ssg83
g3222
sg76
(lp3229
S'HTTP_REFERER'
p3230
asbag69
(g90
g71
NtRp3231
(dp3232
g74
(dp3233
g101
g102
ssg83
g3222
sg76
(lp3234
S':'
asbag69
(g90
g71
NtRp3235
(dp3236
g74
(dp3237
sg83
g3222
sg76
(lp3238
g69
(g70
g71
NtRp3239
(dp3240
g74
(dp3241
g82
I3
ssg83
g3235
sg76
(lp3242
g1587
asbasbasbag69
(g85
g71
NtRp3243
(dp3244
g74
(dp3245
sg83
g3050
sg76
(lp3246
g69
(g90
g71
NtRp3247
(dp3248
g74
(dp3249
g94
g95
ssg83
g3243
sg76
(lp3250
S'HTTP_USER_AGENT'
p3251
asbag69
(g90
g71
NtRp3252
(dp3253
g74
(dp3254
g101
g102
ssg83
g3243
sg76
(lp3255
S':'
asbag69
(g90
g71
NtRp3256
(dp3257
g74
(dp3258
sg83
g3243
sg76
(lp3259
g69
(g70
g71
NtRp3260
(dp3261
g74
(dp3262
g82
I3
ssg83
g3256
sg76
(lp3263
g1609
asbasbasbag69
(g85
g71
NtRp3264
(dp3265
g74
(dp3266
sg83
g3050
sg76
(lp3267
g69
(g90
g71
NtRp3268
(dp3269
g74
(dp3270
g94
g95
ssg83
g3264
sg76
(lp3271
S'PATH_INFO'
p3272
asbag69
(g90
g71
NtRp3273
(dp3274
g74
(dp3275
g101
g102
ssg83
g3264
sg76
(lp3276
S':'
asbag69
(g90
g71
NtRp3277
(dp3278
g74
(dp3279
sg83
g3264
sg76
(lp3280
g69
(g70
g71
NtRp3281
(dp3282
g74
(dp3283
g82
I3
ssg83
g3277
sg76
(lp3284
g1763
asbasbasbag69
(g85
g71
NtRp3285
(dp3286
g74
(dp3287
sg83
g3050
sg76
(lp3288
g69
(g90
g71
NtRp3289
(dp3290
g74
(dp3291
g94
g95
ssg83
g3285
sg76
(lp3292
S'QUERY_STRING'
p3293
asbag69
(g90
g71
NtRp3294
(dp3295
g74
(dp3296
g101
g102
ssg83
g3285
sg76
(lp3297
S':'
asbag69
(g90
g71
NtRp3298
(dp3299
g74
(dp3300
sg83
g3285
sg76
(lp3301
g69
(g70
g71
NtRp3302
(dp3303
g74
(dp3304
g82
I3
ssg83
g3298
sg76
(lp3305
S''
asbasbasbag69
(g85
g71
NtRp3306
(dp3307
g74
(dp3308
sg83
g3050
sg76
(lp3309
g69
(g90
g71
NtRp3310
(dp3311
g74
(dp3312
g94
g95
ssg83
g3306
sg76
(lp3313
S'REMOTE_ADDR'
p3314
asbag69
(g90
g71
NtRp3315
(dp3316
g74
(dp3317
g101
g102
ssg83
g3306
sg76
(lp3318
S':'
asbag69
(g90
g71
NtRp3319
(dp3320
g74
(dp3321
sg83
g3306
sg76
(lp3322
g69
(g70
g71
NtRp3323
(dp3324
g74
(dp3325
g82
I3
ssg83
g3319
sg76
(lp3326
g224
asbasbasbag69
(g85
g71
NtRp3327
(dp3328
g74
(dp3329
sg83
g3050
sg76
(lp3330
g69
(g90
g71
NtRp3331
(dp3332
g74
(dp3333
g94
g95
ssg83
g3327
sg76
(lp3334
S'REMOTE_PORT'
p3335
asbag69
(g90
g71
NtRp3336
(dp3337
g74
(dp3338
g101
g102
ssg83
g3327
sg76
(lp3339
S':'
asbag69
(g90
g71
NtRp3340
(dp3341
g74
(dp3342
sg83
g3327
sg76
(lp3343
g69
(g70
g71
NtRp3344
(dp3345
g74
(dp3346
g82
I3
ssg83
g3340
sg76
(lp3347
g1827
asbasbasbag69
(g85
g71
NtRp3348
(dp3349
g74
(dp3350
sg83
g3050
sg76
(lp3351
g69
(g90
g71
NtRp3352
(dp3353
g74
(dp3354
g94
g95
ssg83
g3348
sg76
(lp3355
S'REQUEST_METHOD'
p3356
asbag69
(g90
g71
NtRp3357
(dp3358
g74
(dp3359
g101
g102
ssg83
g3348
sg76
(lp3360
S':'
asbag69
(g90
g71
NtRp3361
(dp3362
g74
(dp3363
sg83
g3348
sg76
(lp3364
g69
(g70
g71
NtRp3365
(dp3366
g74
(dp3367
g82
I3
ssg83
g3361
sg76
(lp3368
g1849
asbasbasbag69
(g85
g71
NtRp3369
(dp3370
g74
(dp3371
sg83
g3050
sg76
(lp3372
g69
(g90
g71
NtRp3373
(dp3374
g74
(dp3375
g94
g95
ssg83
g3369
sg76
(lp3376
S'REQUEST_URI'
p3377
asbag69
(g90
g71
NtRp3378
(dp3379
g74
(dp3380
g101
g102
ssg83
g3369
sg76
(lp3381
S':'
asbag69
(g90
g71
NtRp3382
(dp3383
g74
(dp3384
sg83
g3369
sg76
(lp3385
g69
(g70
g71
NtRp3386
(dp3387
g74
(dp3388
g82
I3
ssg83
g3382
sg76
(lp3389
g1763
asbasbasbag69
(g85
g71
NtRp3390
(dp3391
g74
(dp3392
sg83
g3050
sg76
(lp3393
g69
(g90
g71
NtRp3394
(dp3395
g74
(dp3396
g94
g95
ssg83
g3390
sg76
(lp3397
S'SCRIPT_NAME'
p3398
asbag69
(g90
g71
NtRp3399
(dp3400
g74
(dp3401
g101
g102
ssg83
g3390
sg76
(lp3402
S':'
asbag69
(g90
g71
NtRp3403
(dp3404
g74
(dp3405
sg83
g3390
sg76
(lp3406
g69
(g70
g71
NtRp3407
(dp3408
g74
(dp3409
g82
I3
ssg83
g3403
sg76
(lp3410
S''
asbasbasbag69
(g85
g71
NtRp3411
(dp3412
g74
(dp3413
sg83
g3050
sg76
(lp3414
g69
(g90
g71
NtRp3415
(dp3416
g74
(dp3417
g94
g95
ssg83
g3411
sg76
(lp3418
S'SERVER_NAME'
p3419
asbag69
(g90
g71
NtRp3420
(dp3421
g74
(dp3422
g101
g102
ssg83
g3411
sg76
(lp3423
S':'
asbag69
(g90
g71
NtRp3424
(dp3425
g74
(dp3426
sg83
g3411
sg76
(lp3427
g69
(g70
g71
NtRp3428
(dp3429
g74
(dp3430
g82
I3
ssg83
g3424
sg76
(lp3431
g1913
asbasbasbag69
(g85
g71
NtRp3432
(dp3433
g74
(dp3434
sg83
g3050
sg76
(lp3435
g69
(g90
g71
NtRp3436
(dp3437
g74
(dp3438
g94
g95
ssg83
g3432
sg76
(lp3439
S'SERVER_PORT'
p3440
asbag69
(g90
g71
NtRp3441
(dp3442
g74
(dp3443
g101
g102
ssg83
g3432
sg76
(lp3444
S':'
asbag69
(g90
g71
NtRp3445
(dp3446
g74
(dp3447
sg83
g3432
sg76
(lp3448
g69
(g70
g71
NtRp3449
(dp3450
g74
(dp3451
g82
I3
ssg83
g3445
sg76
(lp3452
g1935
asbasbasbag69
(g85
g71
NtRp3453
(dp3454
g74
(dp3455
sg83
g3050
sg76
(lp3456
g69
(g90
g71
NtRp3457
(dp3458
g74
(dp3459
g94
g95
ssg83
g3453
sg76
(lp3460
S'SERVER_PROTOCOL'
p3461
asbag69
(g90
g71
NtRp3462
(dp3463
g74
(dp3464
g101
g102
ssg83
g3453
sg76
(lp3465
S':'
asbag69
(g90
g71
NtRp3466
(dp3467
g74
(dp3468
sg83
g3453
sg76
(lp3469
g69
(g70
g71
NtRp3470
(dp3471
g74
(dp3472
g82
I3
ssg83
g3466
sg76
(lp3473
g1957
asbasbasbag69
(g85
g71
NtRp3474
(dp3475
g74
(dp3476
sg83
g3050
sg76
(lp3477
g69
(g90
g71
NtRp3478
(dp3479
g74
(dp3480
g94
g95
ssg83
g3474
sg76
(lp3481
S'SERVER_SOFTWARE'
p3482
asbag69
(g90
g71
NtRp3483
(dp3484
g74
(dp3485
g101
g102
ssg83
g3474
sg76
(lp3486
S':'
asbag69
(g90
g71
NtRp3487
(dp3488
g74
(dp3489
sg83
g3474
sg76
(lp3490
g69
(g70
g71
NtRp3491
(dp3492
g74
(dp3493
g82
I3
ssg83
g3487
sg76
(lp3494
g1979
asbasbasbag69
(g85
g71
NtRp3495
(dp3496
g74
(dp3497
sg83
g3050
sg76
(lp3498
g69
(g90
g71
NtRp3499
(dp3500
g74
(dp3501
g94
g95
ssg83
g3495
sg76
(lp3502
S'wsgi.errors'
p3503
asbag69
(g90
g71
NtRp3504
(dp3505
g74
(dp3506
g101
g102
ssg83
g3495
sg76
(lp3507
S':'
asbag69
(g90
g71
NtRp3508
(dp3509
g74
(dp3510
sg83
g3495
sg76
(lp3511
g69
(g70
g71
NtRp3512
(dp3513
g74
(dp3514
g82
I3
ssg83
g3508
sg76
(lp3515
S"<open file '<stderr>', mode 'w' at 0x7f92c1bb41e0>"
p3516
asbasbasbag69
(g85
g71
NtRp3517
(dp3518
g74
(dp3519
sg83
g3050
sg76
(lp3520
g69
(g90
g71
NtRp3521
(dp3522
g74
(dp3523
g94
g95
ssg83
g3517
sg76
(lp3524
S'wsgi.file_wrapper'
p3525
asbag69
(g90
g71
NtRp3526
(dp3527
g74
(dp3528
g101
g102
ssg83
g3517
sg76
(lp3529
S':'
asbag69
(g90
g71
NtRp3530
(dp3531
g74
(dp3532
sg83
g3517
sg76
(lp3533
g69
(g70
g71
NtRp3534
(dp3535
g74
(dp3536
g82
I3
ssg83
g3530
sg76
(lp3537
S'<class wsgiref.util.FileWrapper at 0x7f92bab98808>'
p3538
asbasbasbag69
(g85
g71
NtRp3539
(dp3540
g74
(dp3541
sg83
g3050
sg76
(lp3542
g69
(g90
g71
NtRp3543
(dp3544
g74
(dp3545
g94
g95
ssg83
g3539
sg76
(lp3546
S'wsgi.input'
p3547
asbag69
(g90
g71
NtRp3548
(dp3549
g74
(dp3550
g101
g102
ssg83
g3539
sg76
(lp3551
S':'
asbag69
(g90
g71
NtRp3552
(dp3553
g74
(dp3554
sg83
g3539
sg76
(lp3555
g69
(g70
g71
NtRp3556
(dp3557
g74
(dp3558
g82
I3
ssg83
g3552
sg76
(lp3559
S'<cStringIO.StringO object at 0x7f92bab187a0>'
p3560
asbasbasbag69
(g85
g71
NtRp3561
(dp3562
g74
(dp3563
sg83
g3050
sg76
(lp3564
g69
(g90
g71
NtRp3565
(dp3566
g74
(dp3567
g94
g95
ssg83
g3561
sg76
(lp3568
S'wsgi.multiprocess'
p3569
asbag69
(g90
g71
NtRp3570
(dp3571
g74
(dp3572
g101
g102
ssg83
g3561
sg76
(lp3573
S':'
asbag69
(g90
g71
NtRp3574
(dp3575
g74
(dp3576
sg83
g3561
sg76
(lp3577
g69
(g70
g71
NtRp3578
(dp3579
g74
(dp3580
g82
I3
ssg83
g3574
sg76
(lp3581
g112
asbasbasbag69
(g85
g71
NtRp3582
(dp3583
g74
(dp3584
sg83
g3050
sg76
(lp3585
g69
(g90
g71
NtRp3586
(dp3587
g74
(dp3588
g94
g95
ssg83
g3582
sg76
(lp3589
S'wsgi.multithread'
p3590
asbag69
(g90
g71
NtRp3591
(dp3592
g74
(dp3593
g101
g102
ssg83
g3582
sg76
(lp3594
S':'
asbag69
(g90
g71
NtRp3595
(dp3596
g74
(dp3597
sg83
g3582
sg76
(lp3598
g69
(g70
g71
NtRp3599
(dp3600
g74
(dp3601
g82
I3
ssg83
g3595
sg76
(lp3602
g2196
asbasbasbag69
(g85
g71
NtRp3603
(dp3604
g74
(dp3605
sg83
g3050
sg76
(lp3606
g69
(g90
g71
NtRp3607
(dp3608
g74
(dp3609
g94
g95
ssg83
g3603
sg76
(lp3610
S'wsgi.run_once'
p3611
asbag69
(g90
g71
NtRp3612
(dp3613
g74
(dp3614
g101
g102
ssg83
g3603
sg76
(lp3615
S':'
asbag69
(g90
g71
NtRp3616
(dp3617
g74
(dp3618
sg83
g3603
sg76
(lp3619
g69
(g70
g71
NtRp3620
(dp3621
g74
(dp3622
g82
I3
ssg83
g3616
sg76
(lp3623
g112
asbasbasbag69
(g85
g71
NtRp3624
(dp3625
g74
(dp3626
sg83
g3050
sg76
(lp3627
g69
(g90
g71
NtRp3628
(dp3629
g74
(dp3630
g94
g95
ssg83
g3624
sg76
(lp3631
S'wsgi.url_scheme'
p3632
asbag69
(g90
g71
NtRp3633
(dp3634
g74
(dp3635
g101
g102
ssg83
g3624
sg76
(lp3636
S':'
asbag69
(g90
g71
NtRp3637
(dp3638
g74
(dp3639
sg83
g3624
sg76
(lp3640
g69
(g70
g71
NtRp3641
(dp3642
g74
(dp3643
g82
I3
ssg83
g3637
sg76
(lp3644
g2239
asbasbasbag69
(g85
g71
NtRp3645
(dp3646
g74
(dp3647
sg83
g3050
sg76
(lp3648
g69
(g90
g71
NtRp3649
(dp3650
g74
(dp3651
g94
g95
ssg83
g3645
sg76
(lp3652
S'wsgi.version'
p3653
asbag69
(g90
g71
NtRp3654
(dp3655
g74
(dp3656
g101
g102
ssg83
g3645
sg76
(lp3657
S':'
asbag69
(g90
g71
NtRp3658
(dp3659
g74
(dp3660
sg83
g3645
sg76
(lp3661
g69
(g70
g71
NtRp3662
(dp3663
g74
(dp3664
g82
I3
ssg83
g3658
sg76
(lp3665
S'1'
asbasbasbasbasbasbasbasbasbasbasbasbasbsS'frames'
p3666
(lp3667
(dp3668
S'file'
p3669
S'/home/darshan/web2py/gluon/restricted.py'
p3670
sS'dump'
p3671
(dp3672
S'environment'
p3673
S"{'A': <class 'gluon.html.A'>, 'Auth': <class 'gluon.tools.Auth'>, 'B': <class 'gluon.html.B'>, 'BEAUTIFY': <class 'gluon.html.BEAUTIFY'>, 'BODY': <class 'gluon.html.BODY'>, 'BR': <class 'gluon.html.BR'>, 'BUTTON': <class 'gluon.html.BUTTON'>, 'CAT': <class 'gluon.html.CAT'>, 'CENTER': <class 'gluon.html.CENTER'>, 'CLEANUP': <class 'gluon.validators.CLEANUP'>, ...}"
p3674
sS'ccode'
p3675
S'<code object <module> at 0x7f92b80e4330, file "/...pplications/Garbage_Truck/models/db.py", line 12>'
p3676
ssS'lnum'
p3677
I212
sS'lines'
p3678
(dp3679
I207
S'    try:'
p3680
sI208
S'        if isinstance(code, types.CodeType):'
p3681
sI209
S'            ccode = code'
p3682
sI210
S'        else:'
p3683
sI211
S'            ccode = compile2(code, layer)'
p3684
sI212
S'        exec ccode in environment'
p3685
sI213
S'    except HTTP:'
p3686
sI214
S'        raise'
p3687
sI215
S'    except RestrictedError:'
p3688
sI216
S'        # do not encapsulate (obfuscate) the original RestrictedError'
p3689
ssS'call'
p3690
S'(code="# -*- coding: utf-8 -*-\\n\\n#######################...eld(\'area\',\'string\'),\\n   Field(\'name\',\'string\'))\\n", environment={\'A\': <class \'gluon.html.A\'>, \'Auth\': <class \'gluon.tools.Auth\'>, \'B\': <class \'gluon.html.B\'>, \'BEAUTIFY\': <class \'gluon.html.BEAUTIFY\'>, \'BODY\': <class \'gluon.html.BODY\'>, \'BR\': <class \'gluon.html.BR\'>, \'BUTTON\': <class \'gluon.html.BUTTON\'>, \'CAT\': <class \'gluon.html.CAT\'>, \'CENTER\': <class \'gluon.html.CENTER\'>, \'CLEANUP\': <class \'gluon.validators.CLEANUP\'>, ...}, layer=\'/home/darshan/web2py/applications/Garbage_Truck/models/db.py\')'
p3691
sS'func'
p3692
S'restricted'
p3693
sa(dp3694
g3669
S'/home/darshan/web2py/applications/Garbage_Truck/models/db.py'
p3695
sg3671
(dp3696
S'default'
p3697
S'undefined'
p3698
sS'Field'
p3699
S"<class 'gluon.dal.Field'>"
p3700
sS'request'
p3701
S"<Storage {'function': 'index', 'body': <cStringI...ions/Garbage_Truck/', 'post_vars': <Storage {}>}>"
p3702
sS'request.now'
p3703
S'datetime.datetime(2014, 9, 28, 0, 39, 58, 501516)'
p3704
ssg3677
I100
sg3678
(dp3705
I96
S''
sI97
S"db.define_table('report_present',"
p3706
sI98
S"   Field('user_id',db.auth_user,requires=IS_IN_DB(db,'auth_user.id','auth_user.first_name')),"
p3707
sI99
S"   #Field('status',requires=IS_IN_SET(['1','2','3','4','5'])),"
p3708
sI100
S"   Field('on',default=request.now),"
p3709
sI101
S"   Field('comment','text'),"
p3710
sI102
S"   Field('rating',requires=IS_IN_SET(['1','2','3','4','5'])),"
p3711
sI103
S"   Field('ghmc_no','string'))"
p3712
sI104
S''
sI95
S"    Field('phone','integer',requires=IS_NOT_EMPTY()))"
p3713
ssg3690
S'()'
p3714
sg3692
S'<module>'
p3715
sa(dp3716
g3669
S'/home/darshan/web2py/gluon/dal.py'
p3717
sg3671
(dp3718
S'fieldname'
p3719
S"'on'"
p3720
sS'builtinSyntaxError'
p3721
S"<type 'exceptions.SyntaxError'>"
p3722
ssg3677
I8549
sg3678
(dp3723
I8544
S'        self.first = None'
p3724
sI8545
S'        self.second = None'
p3725
sI8546
S'        self.name = fieldname = cleanup(fieldname)'
p3726
sI8547
S'        if not isinstance(fieldname,str) or hasattr(Table,fieldname) or \\'
p3727
sI8548
S"                fieldname[0] == '_' or REGEX_PYTHON_KEYWORDS.match(fieldname):"
p3728
sI8549
S"            raise SyntaxError('Field: invalid field name: %s' % fieldname)"
p3729
sI8550
S"        self.type = type if not isinstance(type, (Table,Field)) else 'reference %s' % type"
p3730
sI8551
S'        self.length = length if not length is None else DEFAULTLENGTH.get(self.type,512)'
p3731
sI8552
S'        self.default = default if default!=DEFAULT else (update or None)'
p3732
sI8553
S'        self.required = required  # is this field required'
p3733
ssg3690
S"(self=<gluon.dal.Field object>, fieldname='on', type='string', length=None, default=datetime.datetime(2014, 9, 28, 0, 39, 58, 501516), required=False, requires=<function <lambda>>, ondelete='CASCADE', notnull=False, unique=False, uploadfield=True, widget=None, label=None, comment=None, writable=True, readable=True, update=None, authorize=None, autodelete=False, represent=None, uploadfolder=None, uploadseparate=False, uploadfs=None, compute=None, custom_store=None, custom_retrieve=None, custom_retrieve_file_properties=None, custom_delete=None, filter_in=None, filter_out=None, custom_qualifier=None, map_none=None)"
p3734
sg3692
g24
sasS'pyver'
p3735
S'Python 2.7.6: /usr/bin/python'
p3736
sS'session'
p3737
g69
(g70
g71
NtRp3738
(dp3739
g74
(dp3740
sg76
(lp3741
g69
(g78
g71
NtRp3742
(dp3743
g74
(dp3744
g82
I5
ssg83
Nsg76
(lp3745
sbasbsS'etype'
p3746
S"<type 'exceptions.SyntaxError'>"
p3747
sS'date'
p3748
S'Sun Sep 28 00:39:58 2014'
p3749
sS'response'
p3750
g69
(g70
g71
NtRp3751
(dp3752
g74
(dp3753
sg76
(lp3754
g69
(g78
g71
NtRp3755
(dp3756
g74
(dp3757
g82
I5
ssg83
Nsg76
(lp3758
g69
(g85
g71
NtRp3759
(dp3760
g74
(dp3761
sg83
g3755
sg76
(lp3762
g69
(g90
g71
NtRp3763
(dp3764
g74
(dp3765
g94
g95
ssg83
g3759
sg76
(lp3766
g167
asbag69
(g90
g71
NtRp3767
(dp3768
g74
(dp3769
g101
g102
ssg83
g3759
sg76
(lp3770
S':'
asbag69
(g90
g71
NtRp3771
(dp3772
g74
(dp3773
sg83
g3759
sg76
(lp3774
g69
(g70
g71
NtRp3775
(dp3776
g74
(dp3777
g82
I5
ssg83
g3771
sg76
(lp3778
S'<cStringIO.StringO object at 0x7f92a87277d8>'
p3779
asbasbasbag69
(g85
g71
NtRp3780
(dp3781
g74
(dp3782
sg83
g3755
sg76
(lp3783
g69
(g90
g71
NtRp3784
(dp3785
g74
(dp3786
g94
g95
ssg83
g3780
sg76
(lp3787
g255
asbag69
(g90
g71
NtRp3788
(dp3789
g74
(dp3790
g101
g102
ssg83
g3780
sg76
(lp3791
S':'
asbag69
(g90
g71
NtRp3792
(dp3793
g74
(dp3794
sg83
g3780
sg76
(lp3795
g69
(g70
g71
NtRp3796
(dp3797
g74
(dp3798
g82
I5
ssg83
g3792
sg76
(lp3799
g69
(g78
g71
NtRp3800
(dp3801
g74
(dp3802
g82
I4
ssg83
Nsg76
(lp3803
g69
(g85
g71
NtRp3804
(dp3805
g74
(dp3806
sg83
g3800
sg76
(lp3807
g69
(g90
g71
NtRp3808
(dp3809
g74
(dp3810
g94
g95
ssg83
g3804
sg76
(lp3811
S'session_id_garbage_truck'
p3812
asbag69
(g90
g71
NtRp3813
(dp3814
g74
(dp3815
g101
g102
ssg83
g3804
sg76
(lp3816
S':'
asbag69
(g90
g71
NtRp3817
(dp3818
g74
(dp3819
sg83
g3804
sg76
(lp3820
g69
(g70
g71
NtRp3821
(dp3822
g74
(dp3823
g82
I4
ssg83
g3817
sg76
(lp3824
S'127.0.0.1-93aef9d0-ff99-4a18-a7c1-c1189d57ce78'
p3825
ag69
(g78
g71
NtRp3826
(dp3827
g74
(dp3828
g82
I3
ssg83
Nsg76
(lp3829
g69
(g85
g71
NtRp3830
(dp3831
g74
(dp3832
sg83
g3826
sg76
(lp3833
g69
(g90
g71
NtRp3834
(dp3835
g74
(dp3836
g94
g95
ssg83
g3830
sg76
(lp3837
g306
asbag69
(g90
g71
NtRp3838
(dp3839
g74
(dp3840
g101
g102
ssg83
g3830
sg76
(lp3841
S':'
asbag69
(g90
g71
NtRp3842
(dp3843
g74
(dp3844
sg83
g3830
sg76
(lp3845
g69
(g70
g71
NtRp3846
(dp3847
g74
(dp3848
g82
I3
ssg83
g3842
sg76
(lp3849
S''
asbasbasbag69
(g85
g71
NtRp3850
(dp3851
g74
(dp3852
sg83
g3826
sg76
(lp3853
g69
(g90
g71
NtRp3854
(dp3855
g74
(dp3856
g94
g95
ssg83
g3850
sg76
(lp3857
g327
asbag69
(g90
g71
NtRp3858
(dp3859
g74
(dp3860
g101
g102
ssg83
g3850
sg76
(lp3861
S':'
asbag69
(g90
g71
NtRp3862
(dp3863
g74
(dp3864
sg83
g3850
sg76
(lp3865
g69
(g70
g71
NtRp3866
(dp3867
g74
(dp3868
g82
I3
ssg83
g3862
sg76
(lp3869
S''
asbasbasbag69
(g85
g71
NtRp3870
(dp3871
g74
(dp3872
sg83
g3826
sg76
(lp3873
g69
(g90
g71
NtRp3874
(dp3875
g74
(dp3876
g94
g95
ssg83
g3870
sg76
(lp3877
g348
asbag69
(g90
g71
NtRp3878
(dp3879
g74
(dp3880
g101
g102
ssg83
g3870
sg76
(lp3881
S':'
asbag69
(g90
g71
NtRp3882
(dp3883
g74
(dp3884
sg83
g3870
sg76
(lp3885
g69
(g70
g71
NtRp3886
(dp3887
g74
(dp3888
g82
I3
ssg83
g3882
sg76
(lp3889
S''
asbasbasbag69
(g85
g71
NtRp3890
(dp3891
g74
(dp3892
sg83
g3826
sg76
(lp3893
g69
(g90
g71
NtRp3894
(dp3895
g74
(dp3896
g94
g95
ssg83
g3890
sg76
(lp3897
g369
asbag69
(g90
g71
NtRp3898
(dp3899
g74
(dp3900
g101
g102
ssg83
g3890
sg76
(lp3901
S':'
asbag69
(g90
g71
NtRp3902
(dp3903
g74
(dp3904
sg83
g3890
sg76
(lp3905
g69
(g70
g71
NtRp3906
(dp3907
g74
(dp3908
g82
I3
ssg83
g3902
sg76
(lp3909
S''
asbasbasbag69
(g85
g71
NtRp3910
(dp3911
g74
(dp3912
sg83
g3826
sg76
(lp3913
g69
(g90
g71
NtRp3914
(dp3915
g74
(dp3916
g94
g95
ssg83
g3910
sg76
(lp3917
g390
asbag69
(g90
g71
NtRp3918
(dp3919
g74
(dp3920
g101
g102
ssg83
g3910
sg76
(lp3921
S':'
asbag69
(g90
g71
NtRp3922
(dp3923
g74
(dp3924
sg83
g3910
sg76
(lp3925
g69
(g70
g71
NtRp3926
(dp3927
g74
(dp3928
g82
I3
ssg83
g3922
sg76
(lp3929
S''
asbasbasbag69
(g85
g71
NtRp3930
(dp3931
g74
(dp3932
sg83
g3826
sg76
(lp3933
g69
(g90
g71
NtRp3934
(dp3935
g74
(dp3936
g94
g95
ssg83
g3930
sg76
(lp3937
g411
asbag69
(g90
g71
NtRp3938
(dp3939
g74
(dp3940
g101
g102
ssg83
g3930
sg76
(lp3941
S':'
asbag69
(g90
g71
NtRp3942
(dp3943
g74
(dp3944
sg83
g3930
sg76
(lp3945
g69
(g70
g71
NtRp3946
(dp3947
g74
(dp3948
g82
I3
ssg83
g3942
sg76
(lp3949
S'/'
asbasbasbag69
(g85
g71
NtRp3950
(dp3951
g74
(dp3952
sg83
g3826
sg76
(lp3953
g69
(g90
g71
NtRp3954
(dp3955
g74
(dp3956
g94
g95
ssg83
g3950
sg76
(lp3957
g432
asbag69
(g90
g71
NtRp3958
(dp3959
g74
(dp3960
g101
g102
ssg83
g3950
sg76
(lp3961
S':'
asbag69
(g90
g71
NtRp3962
(dp3963
g74
(dp3964
sg83
g3950
sg76
(lp3965
g69
(g70
g71
NtRp3966
(dp3967
g74
(dp3968
g82
I3
ssg83
g3962
sg76
(lp3969
S''
asbasbasbag69
(g85
g71
NtRp3970
(dp3971
g74
(dp3972
sg83
g3826
sg76
(lp3973
g69
(g90
g71
NtRp3974
(dp3975
g74
(dp3976
g94
g95
ssg83
g3970
sg76
(lp3977
g453
asbag69
(g90
g71
NtRp3978
(dp3979
g74
(dp3980
g101
g102
ssg83
g3970
sg76
(lp3981
S':'
asbag69
(g90
g71
NtRp3982
(dp3983
g74
(dp3984
sg83
g3970
sg76
(lp3985
g69
(g70
g71
NtRp3986
(dp3987
g74
(dp3988
g82
I3
ssg83
g3982
sg76
(lp3989
S''
asbasbasbasbasbasbasbasbasbasbasbag69
(g85
g71
NtRp3990
(dp3991
g74
(dp3992
sg83
g3755
sg76
(lp3993
g69
(g90
g71
NtRp3994
(dp3995
g74
(dp3996
g94
g95
ssg83
g3990
sg76
(lp3997
S'delimiters'
p3998
asbag69
(g90
g71
NtRp3999
(dp4000
g74
(dp4001
g101
g102
ssg83
g3990
sg76
(lp4002
S':'
asbag69
(g90
g71
NtRp4003
(dp4004
g74
(dp4005
sg83
g3990
sg76
(lp4006
g69
(g70
g71
NtRp4007
(dp4008
g74
(dp4009
g82
I5
ssg83
g4003
sg76
(lp4010
g69
(g78
g71
NtRp4011
(dp4012
g74
(dp4013
g82
I4
ssg83
Nsg76
(lp4014
g69
(g85
g71
NtRp4015
(dp4016
g74
(dp4017
sg83
g4011
sg76
(lp4018
g69
(g90
g71
NtRp4019
(dp4020
g74
(dp4021
sg83
g4015
sg76
(lp4022
g69
(g70
g71
NtRp4023
(dp4024
g74
(dp4025
g82
I4
ssg83
g4019
sg76
(lp4026
S'{{'
p4027
asbasbasbag69
(g85
g71
NtRp4028
(dp4029
g74
(dp4030
sg83
g4011
sg76
(lp4031
g69
(g90
g71
NtRp4032
(dp4033
g74
(dp4034
sg83
g4028
sg76
(lp4035
g69
(g70
g71
NtRp4036
(dp4037
g74
(dp4038
g82
I4
ssg83
g4032
sg76
(lp4039
S'}}'
p4040
asbasbasbasbasbasbasbag69
(g85
g71
NtRp4041
(dp4042
g74
(dp4043
sg83
g3755
sg76
(lp4044
g69
(g90
g71
NtRp4045
(dp4046
g74
(dp4047
g94
g95
ssg83
g4041
sg76
(lp4048
S'files'
p4049
asbag69
(g90
g71
NtRp4050
(dp4051
g74
(dp4052
g101
g102
ssg83
g4041
sg76
(lp4053
S':'
asbag69
(g90
g71
NtRp4054
(dp4055
g74
(dp4056
sg83
g4041
sg76
(lp4057
g69
(g70
g71
NtRp4058
(dp4059
g74
(dp4060
g82
I5
ssg83
g4054
sg76
(lp4061
g69
(g78
g71
NtRp4062
(dp4063
g74
(dp4064
g82
I4
ssg83
Nsg76
(lp4065
sbasbasbasbag69
(g85
g71
NtRp4066
(dp4067
g74
(dp4068
sg83
g3755
sg76
(lp4069
g69
(g90
g71
NtRp4070
(dp4071
g74
(dp4072
g94
g95
ssg83
g4066
sg76
(lp4073
S'flash'
p4074
asbag69
(g90
g71
NtRp4075
(dp4076
g74
(dp4077
g101
g102
ssg83
g4066
sg76
(lp4078
S':'
asbag69
(g90
g71
NtRp4079
(dp4080
g74
(dp4081
sg83
g4066
sg76
(lp4082
g69
(g70
g71
NtRp4083
(dp4084
g74
(dp4085
g82
I5
ssg83
g4079
sg76
(lp4086
S''
asbasbasbag69
(g85
g71
NtRp4087
(dp4088
g74
(dp4089
sg83
g3755
sg76
(lp4090
g69
(g90
g71
NtRp4091
(dp4092
g74
(dp4093
g94
g95
ssg83
g4087
sg76
(lp4094
S'generic_patterns'
p4095
asbag69
(g90
g71
NtRp4096
(dp4097
g74
(dp4098
g101
g102
ssg83
g4087
sg76
(lp4099
S':'
asbag69
(g90
g71
NtRp4100
(dp4101
g74
(dp4102
sg83
g4087
sg76
(lp4103
g69
(g70
g71
NtRp4104
(dp4105
g74
(dp4106
g82
I5
ssg83
g4100
sg76
(lp4107
g69
(g78
g71
NtRp4108
(dp4109
g74
(dp4110
g82
I4
ssg83
Nsg76
(lp4111
g69
(g85
g71
NtRp4112
(dp4113
g74
(dp4114
sg83
g4108
sg76
(lp4115
g69
(g90
g71
NtRp4116
(dp4117
g74
(dp4118
sg83
g4112
sg76
(lp4119
g69
(g70
g71
NtRp4120
(dp4121
g74
(dp4122
g82
I4
ssg83
g4116
sg76
(lp4123
S'*'
asbasbasbasbasbasbasbag69
(g85
g71
NtRp4124
(dp4125
g74
(dp4126
sg83
g3755
sg76
(lp4127
g69
(g90
g71
NtRp4128
(dp4129
g74
(dp4130
g94
g95
ssg83
g4124
sg76
(lp4131
S'headers'
p4132
asbag69
(g90
g71
NtRp4133
(dp4134
g74
(dp4135
g101
g102
ssg83
g4124
sg76
(lp4136
S':'
asbag69
(g90
g71
NtRp4137
(dp4138
g74
(dp4139
sg83
g4124
sg76
(lp4140
g69
(g70
g71
NtRp4141
(dp4142
g74
(dp4143
g82
I5
ssg83
g4137
sg76
(lp4144
g69
(g78
g71
NtRp4145
(dp4146
g74
(dp4147
g82
I4
ssg83
Nsg76
(lp4148
g69
(g85
g71
NtRp4149
(dp4150
g74
(dp4151
sg83
g4145
sg76
(lp4152
g69
(g90
g71
NtRp4153
(dp4154
g74
(dp4155
g94
g95
ssg83
g4149
sg76
(lp4156
S'X-Powered-By'
p4157
asbag69
(g90
g71
NtRp4158
(dp4159
g74
(dp4160
g101
g102
ssg83
g4149
sg76
(lp4161
S':'
asbag69
(g90
g71
NtRp4162
(dp4163
g74
(dp4164
sg83
g4149
sg76
(lp4165
g69
(g70
g71
NtRp4166
(dp4167
g74
(dp4168
g82
I4
ssg83
g4162
sg76
(lp4169
S'web2py'
p4170
asbasbasbasbasbasbasbag69
(g85
g71
NtRp4171
(dp4172
g74
(dp4173
sg83
g3755
sg76
(lp4174
g69
(g90
g71
NtRp4175
(dp4176
g74
(dp4177
g94
g95
ssg83
g4171
sg76
(lp4178
S'menu'
p4179
asbag69
(g90
g71
NtRp4180
(dp4181
g74
(dp4182
g101
g102
ssg83
g4171
sg76
(lp4183
S':'
asbag69
(g90
g71
NtRp4184
(dp4185
g74
(dp4186
sg83
g4171
sg76
(lp4187
g69
(g70
g71
NtRp4188
(dp4189
g74
(dp4190
g82
I5
ssg83
g4184
sg76
(lp4191
g69
(g78
g71
NtRp4192
(dp4193
g74
(dp4194
g82
I4
ssg83
Nsg76
(lp4195
sbasbasbasbag69
(g85
g71
NtRp4196
(dp4197
g74
(dp4198
sg83
g3755
sg76
(lp4199
g69
(g90
g71
NtRp4200
(dp4201
g74
(dp4202
g94
g95
ssg83
g4196
sg76
(lp4203
S'meta'
p4204
asbag69
(g90
g71
NtRp4205
(dp4206
g74
(dp4207
g101
g102
ssg83
g4196
sg76
(lp4208
S':'
asbag69
(g90
g71
NtRp4209
(dp4210
g74
(dp4211
sg83
g4196
sg76
(lp4212
g69
(g70
g71
NtRp4213
(dp4214
g74
(dp4215
g82
I5
ssg83
g4209
sg76
(lp4216
g69
(g78
g71
NtRp4217
(dp4218
g74
(dp4219
g82
I4
ssg83
Nsg76
(lp4220
sbasbasbasbag69
(g85
g71
NtRp4221
(dp4222
g74
(dp4223
sg83
g3755
sg76
(lp4224
g69
(g90
g71
NtRp4225
(dp4226
g74
(dp4227
g94
g95
ssg83
g4221
sg76
(lp4228
S'models_to_run'
p4229
asbag69
(g90
g71
NtRp4230
(dp4231
g74
(dp4232
g101
g102
ssg83
g4221
sg76
(lp4233
S':'
asbag69
(g90
g71
NtRp4234
(dp4235
g74
(dp4236
sg83
g4221
sg76
(lp4237
g69
(g70
g71
NtRp4238
(dp4239
g74
(dp4240
g82
I5
ssg83
g4234
sg76
(lp4241
g69
(g78
g71
NtRp4242
(dp4243
g74
(dp4244
g82
I4
ssg83
Nsg76
(lp4245
g69
(g85
g71
NtRp4246
(dp4247
g74
(dp4248
sg83
g4242
sg76
(lp4249
g69
(g90
g71
NtRp4250
(dp4251
g74
(dp4252
sg83
g4246
sg76
(lp4253
g69
(g70
g71
NtRp4254
(dp4255
g74
(dp4256
g82
I4
ssg83
g4250
sg76
(lp4257
S'^\\w+\\.py$'
p4258
asbasbasbag69
(g85
g71
NtRp4259
(dp4260
g74
(dp4261
sg83
g4242
sg76
(lp4262
g69
(g90
g71
NtRp4263
(dp4264
g74
(dp4265
sg83
g4259
sg76
(lp4266
g69
(g70
g71
NtRp4267
(dp4268
g74
(dp4269
g82
I4
ssg83
g4263
sg76
(lp4270
S'^appadmin/\\w+\\.py$'
p4271
asbasbasbag69
(g85
g71
NtRp4272
(dp4273
g74
(dp4274
sg83
g4242
sg76
(lp4275
g69
(g90
g71
NtRp4276
(dp4277
g74
(dp4278
sg83
g4272
sg76
(lp4279
g69
(g70
g71
NtRp4280
(dp4281
g74
(dp4282
g82
I4
ssg83
g4276
sg76
(lp4283
S'^appadmin/index/\\w+\\.py$'
p4284
asbasbasbasbasbasbasbag69
(g85
g71
NtRp4285
(dp4286
g74
(dp4287
sg83
g3755
sg76
(lp4288
g69
(g90
g71
NtRp4289
(dp4290
g74
(dp4291
g94
g95
ssg83
g4285
sg76
(lp4292
S'postprocessing'
p4293
asbag69
(g90
g71
NtRp4294
(dp4295
g74
(dp4296
g101
g102
ssg83
g4285
sg76
(lp4297
S':'
asbag69
(g90
g71
NtRp4298
(dp4299
g74
(dp4300
sg83
g4285
sg76
(lp4301
g69
(g70
g71
NtRp4302
(dp4303
g74
(dp4304
g82
I5
ssg83
g4298
sg76
(lp4305
g69
(g78
g71
NtRp4306
(dp4307
g74
(dp4308
g82
I4
ssg83
Nsg76
(lp4309
sbasbasbasbag69
(g85
g71
NtRp4310
(dp4311
g74
(dp4312
sg83
g3755
sg76
(lp4313
g69
(g90
g71
NtRp4314
(dp4315
g74
(dp4316
g94
g95
ssg83
g4310
sg76
(lp4317
S'session_cookie_expires'
p4318
asbag69
(g90
g71
NtRp4319
(dp4320
g74
(dp4321
g101
g102
ssg83
g4310
sg76
(lp4322
S':'
asbag69
(g90
g71
NtRp4323
(dp4324
g74
(dp4325
sg83
g4310
sg76
(lp4326
g69
(g70
g71
NtRp4327
(dp4328
g74
(dp4329
g82
I5
ssg83
g4323
sg76
(lp4330
S'None'
p4331
asbasbasbag69
(g85
g71
NtRp4332
(dp4333
g74
(dp4334
sg83
g3755
sg76
(lp4335
g69
(g90
g71
NtRp4336
(dp4337
g74
(dp4338
g94
g95
ssg83
g4332
sg76
(lp4339
S'session_data_name'
p4340
asbag69
(g90
g71
NtRp4341
(dp4342
g74
(dp4343
g101
g102
ssg83
g4332
sg76
(lp4344
S':'
asbag69
(g90
g71
NtRp4345
(dp4346
g74
(dp4347
sg83
g4332
sg76
(lp4348
g69
(g70
g71
NtRp4349
(dp4350
g74
(dp4351
g82
I5
ssg83
g4345
sg76
(lp4352
S'session_data_garbage_truck'
p4353
asbasbasbag69
(g85
g71
NtRp4354
(dp4355
g74
(dp4356
sg83
g3755
sg76
(lp4357
g69
(g90
g71
NtRp4358
(dp4359
g74
(dp4360
g94
g95
ssg83
g4354
sg76
(lp4361
S'session_filename'
p4362
asbag69
(g90
g71
NtRp4363
(dp4364
g74
(dp4365
g101
g102
ssg83
g4354
sg76
(lp4366
S':'
asbag69
(g90
g71
NtRp4367
(dp4368
g74
(dp4369
sg83
g4354
sg76
(lp4370
g69
(g70
g71
NtRp4371
(dp4372
g74
(dp4373
g82
I5
ssg83
g4367
sg76
(lp4374
S'/home/darshan/web2py/applications/Garbage_Truck/sessions/127.0.0.1-93aef9d0-ff99-4a18-a7c1-c1189d57ce78'
p4375
asbasbasbag69
(g85
g71
NtRp4376
(dp4377
g74
(dp4378
sg83
g3755
sg76
(lp4379
g69
(g90
g71
NtRp4380
(dp4381
g74
(dp4382
g94
g95
ssg83
g4376
sg76
(lp4383
S'session_id'
p4384
asbag69
(g90
g71
NtRp4385
(dp4386
g74
(dp4387
g101
g102
ssg83
g4376
sg76
(lp4388
S':'
asbag69
(g90
g71
NtRp4389
(dp4390
g74
(dp4391
sg83
g4376
sg76
(lp4392
g69
(g70
g71
NtRp4393
(dp4394
g74
(dp4395
g82
I5
ssg83
g4389
sg76
(lp4396
g3825
asbasbasbag69
(g85
g71
NtRp4397
(dp4398
g74
(dp4399
sg83
g3755
sg76
(lp4400
g69
(g90
g71
NtRp4401
(dp4402
g74
(dp4403
g94
g95
ssg83
g4397
sg76
(lp4404
S'session_id_name'
p4405
asbag69
(g90
g71
NtRp4406
(dp4407
g74
(dp4408
g101
g102
ssg83
g4397
sg76
(lp4409
S':'
asbag69
(g90
g71
NtRp4410
(dp4411
g74
(dp4412
sg83
g4397
sg76
(lp4413
g69
(g70
g71
NtRp4414
(dp4415
g74
(dp4416
g82
I5
ssg83
g4410
sg76
(lp4417
g3812
asbasbasbag69
(g85
g71
NtRp4418
(dp4419
g74
(dp4420
sg83
g3755
sg76
(lp4421
g69
(g90
g71
NtRp4422
(dp4423
g74
(dp4424
g94
g95
ssg83
g4418
sg76
(lp4425
S'session_new'
p4426
asbag69
(g90
g71
NtRp4427
(dp4428
g74
(dp4429
g101
g102
ssg83
g4418
sg76
(lp4430
S':'
asbag69
(g90
g71
NtRp4431
(dp4432
g74
(dp4433
sg83
g4418
sg76
(lp4434
g69
(g70
g71
NtRp4435
(dp4436
g74
(dp4437
g82
I5
ssg83
g4431
sg76
(lp4438
g2196
asbasbasbag69
(g85
g71
NtRp4439
(dp4440
g74
(dp4441
sg83
g3755
sg76
(lp4442
g69
(g90
g71
NtRp4443
(dp4444
g74
(dp4445
g94
g95
ssg83
g4439
sg76
(lp4446
S'session_storage_type'
p4447
asbag69
(g90
g71
NtRp4448
(dp4449
g74
(dp4450
g101
g102
ssg83
g4439
sg76
(lp4451
S':'
asbag69
(g90
g71
NtRp4452
(dp4453
g74
(dp4454
sg83
g4439
sg76
(lp4455
g69
(g70
g71
NtRp4456
(dp4457
g74
(dp4458
g82
I5
ssg83
g4452
sg76
(lp4459
g3669
asbasbasbag69
(g85
g71
NtRp4460
(dp4461
g74
(dp4462
sg83
g3755
sg76
(lp4463
g69
(g90
g71
NtRp4464
(dp4465
g74
(dp4466
g94
g95
ssg83
g4460
sg76
(lp4467
S'status'
p4468
asbag69
(g90
g71
NtRp4469
(dp4470
g74
(dp4471
g101
g102
ssg83
g4460
sg76
(lp4472
S':'
asbag69
(g90
g71
NtRp4473
(dp4474
g74
(dp4475
sg83
g4460
sg76
(lp4476
g69
(g70
g71
NtRp4477
(dp4478
g74
(dp4479
g82
I5
ssg83
g4473
sg76
(lp4480
S'200'
p4481
asbasbasbag69
(g85
g71
NtRp4482
(dp4483
g74
(dp4484
sg83
g3755
sg76
(lp4485
g69
(g90
g71
NtRp4486
(dp4487
g74
(dp4488
g94
g95
ssg83
g4482
sg76
(lp4489
S'view'
p4490
asbag69
(g90
g71
NtRp4491
(dp4492
g74
(dp4493
g101
g102
ssg83
g4482
sg76
(lp4494
S':'
asbag69
(g90
g71
NtRp4495
(dp4496
g74
(dp4497
sg83
g4482
sg76
(lp4498
g69
(g70
g71
NtRp4499
(dp4500
g74
(dp4501
g82
I5
ssg83
g4495
sg76
(lp4502
S'appadmin/index.html'
p4503
asbasbasbasbasbsS'locals'
p4504
(dp4505
S'authorize'
p4506
S'None'
p4507
sS'represent'
p4508
S'None'
p4509
sS'autodelete'
p4510
g112
sS'filter_out'
p4511
S'None'
p4512
sS'uploadseparate'
p4513
g112
sS'widget'
p4514
S'None'
p4515
sS'uploadfs'
p4516
S'None'
p4517
sS'custom_delete'
p4518
S'None'
p4519
sS'uploadfield'
p4520
g2196
sS'uploadfolder'
p4521
S'None'
p4522
sS'custom_qualifier'
p4523
S'None'
p4524
sS'map_none'
p4525
S'None'
p4526
sS'self'
p4527
S'<gluon.dal.Field object>'
p4528
sS'readable'
p4529
g2196
sS'label'
p4530
S'None'
p4531
sS'notnull'
p4532
g112
sS'custom_retrieve_file_properties'
p4533
S'None'
p4534
sS'filter_in'
p4535
S'None'
p4536
sS'ondelete'
p4537
S"'CASCADE'"
p4538
sS'custom_store'
p4539
S'None'
p4540
sS'custom_retrieve'
p4541
S'None'
p4542
sS'update'
p4543
S'None'
p4544
sS'unique'
p4545
g112
sS'writable'
p4546
g2196
sS'compute'
p4547
S'None'
p4548
sS'default'
p4549
S'datetime.datetime(2014, 9, 28, 0, 39, 58, 501516)'
p4550
sS'type'
p4551
S"'string'"
p4552
sS'required'
p4553
g112
sg306
S'None'
p4554
sS'length'
p4555
S'None'
p4556
sS'fieldname'
p4557
S"'on'"
p4558
sS'requires'
p4559
S'<function <lambda>>'
p4560
sssS'traceback'
p4561
S'Traceback (most recent call last):\n  File "/home/darshan/web2py/gluon/restricted.py", line 212, in restricted\n    exec ccode in environment\n  File "/home/darshan/web2py/applications/Garbage_Truck/models/db.py", line 100, in <module>\n    Field(\'on\',default=request.now),\n  File "/home/darshan/web2py/gluon/dal.py", line 8549, in __init__\n    raise SyntaxError(\'Field: invalid field name: %s\' % fieldname)\nSyntaxError: Field: invalid field name: on\n'
p4562
s.