(dp1
S'output'
p2
S"<type 'exceptions.NameError'> global name 'a' is not defined"
p3
sS'layer'
p4
S'/home/darshan/web2py/applications/Garbage_Truck/controllers/default.py'
p5
sS'code'
p6
S'# -*- coding: utf-8 -*-\n# this file is released under public domain and you can use without limitations\n\n#########################################################################\n## This is a samples controller\n## - index is the default action of any application\n## - user is required for authentication and authorization\n## - download is for downloading files uploaded in the db (does streaming)\n## - call exposes all registered services (none by default)\n#########################################################################\nimport datetime\nf = \'%Y-%m-%d %H:%M:%S\'\n\n@auth.requires_login()\ndef index():\n    session.user_id=auth.user.id\n    session.user_name=auth.user.first_name\n    if auth.has_membership(role=\'ghmc_admin\'):\n        redirect(URL(\'ghmc_official\'))\n\n    """\n    example action using the internationalization operator T and flash\n    rendered by views/default/index.html or views/generic.html\n\n    if you need a simple wiki simple replace the two lines below with:\n    return auth.wiki()\n    """\n    return dict()\n\n@auth.requires_login()\n@auth.requires_membership(\'ghmc_admin\')\ndef ghmc_official():\n    return dict()\n\n"""    \ndef groupadd(check_group):\n\tif not db(db.auth_group.role==check_group).count():\n        db.auth_group.insert(role=check_group)\n"""\n\ndef worker_report():\n    return dict()\n\n@auth.requires_login()\ndef report_absence():\n    form=SQLFORM(db.report_absent)\n    if form.process().accepted:\n        session.flash = \'form accepted\'\n        redirect(URL(\'index\'))\n    elif form.errors:\n        response.flash = \'form has errors\'\n    else:\n        response.flash = \'please fill the form\'\n    return dict(form=form)\n\n@auth.requires_login()\ndef rate_presence():\n    form=SQLFORM(db.report_present)\n    if form.process().accepted:\n        session.flash = \'form accepted\'\n        redirect(URL(\'index\'))\n    elif form.errors:\n        response.flash = \'form has errors\'\n    else:\n        response.flash = \'please fill the form\'\n    return dict(form=form)\n\n@auth.requires_login()\ndef request_urgent():\n    form=SQLFORM(db.request_festive)\n    if form.process().accepted:\n        session.flash = \'form accepted\'\n        redirect(URL(\'index\'))\n    elif form.errors:\n        response.flash = \'form has errors\'\n    else:\n        response.flash = \'please fill the form\'\n    return dict(form=form)\n\n@auth.requires_login()\ndef request_reservior():\n    form=SQLFORM(db.request_collection)\n    if form.process().accepted:\n        session.flash = \'form accepted\'\n        redirect(URL(\'index\'))\n    elif form.errors:\n        response.flash = \'form has errors\'\n    else:\n        response.flash = \'please fill the form\'\n    return dict(form=form)\n\n@auth.requires_login()\n@auth.requires_membership(\'ghmc_admin\')\ndef request_reservior_view():\n    s=db((db.request_collection.id>0) & (db.request_collection.user_id==db.auth_user.id) & (db.gmc_ward.user_id==auth.user.id)&(db.request_collection.pin==db.gmc_ward.pin)).select()\n    d={}\n    for i in s:\n        dat=i.request_collection.request_on.date()\n        #dat = i.request_collection.request_on.split()[0]\n        if dat in d:\n            d[dat]=d[dat]+[i]\n        else:\n            d[dat]=[i]\n    return dict(d=d)\n\n@auth.requires_login()\n@auth.requires_membership(\'ghmc_admin\')\ndef edit_status():\n    d={}\n    cid=request.args[0]\n    d[\'Received\']=1\n    d[\'Observed\']=2\n    d[\'Verified\']=3\n    d[\'Processing\']=4\n    d[\'Completed\']=5\n    l=[\'a\']\n    form=FORM(\'Edit Status\', \n            INPUT(_name=\'status\',requires=IS_IN_SET(a)),\n            INPUT(_type=\'submit\'))\n    if form.process().accepted:\n        db(db.request_collection.id==cid).update(status=d[form.vars.status])\n        session.flash = \'form accepted\'\n        redirect(URL(\'index\'))\n    elif form.errors:\n        response.flash = \'form has errors\'\n    else:\n        response.flash = \'please fill the form\'\n    return dict(form=form)\n\n\n@auth.requires_login()\n@auth.requires_membership(\'ghmc_admin\')\ndef request_urgent_view():\n    s=db((db.request_festive.id>0) & (db.auth_user.id==db.request_festive.user_id)).select(orderby=~db.request_festive.request_on)\n    d={}\n    for i in s:\n        #dat = i.request_festive.request_on.split()[0]\n        dat = i.request_festive.request_on.date()\n        if dat in d:\n            d[dat]=d[dat]+[[i.auth_user.first_name, i.auth_user.last_name, i.request_festive.comment1,i.request_festive.reason]]\n        else:\n            d[dat]=[[i.auth_user.first_name, i.auth_user.last_name, i.request_festive.comment1, i.request_festive.reason]]\n    return dict(d=d)    \n            \n@auth.requires_login()\n@auth.requires_membership(\'ghmc_admin\')\ndef absence_view():\n    s=db((db.report_absent.id>0) & (db.report_absent.user_id==db.auth_user.id) & (db.auth_user.id==db.consumer.user_id) & (db.gmc_ward.user_id==auth.user.id)&(db.consumer.pin==db.gmc_ward.pin)).select(db.auth_user.first_name, db.auth_user.last_name, db.report_absent.request_on, db.report_absent.comment1,db.consumer.pin, orderby=~db.report_absent.request_on)\n    d={}\n    for i in s:\n        #dat=datetime.datetime.strptime(i.report_absent.request_on,f).date()\n        dat = i.report_absent.request_on.split()[0]\n        if dat in d:\n            d[dat]=d[dat]+[[i.auth_user.first_name, i.auth_user.last_name, i.report_absent.comment1]]\n        else:\n            d[dat]=[[i.auth_user.first_name, i.auth_user.last_name, i.report_absent.comment1]]\n    return dict(d=d)\ndef presence_view():\n    s=db((db.report_present.id>0) & (db.report_present.user_id==db.auth_user.id) & (db.auth_user.id==db.consumer.user_id) & (db.gmc_ward.user_id==auth.user.id)&(db.consumer.pin==db.gmc_ward.pin)&(db.report_present.ghmc_no==db.gmc_det.id)).select(db.auth_user.first_name, db.auth_user.last_name, db.report_present.request_on, db.report_present.comment1,db.consumer.pin,db.report_present.rating, db.gmc_det.worker_id, db.gmc_det.area, db.gmc_det.name, orderby=~db.report_present.rating)\n    return dict(s=s)\n\ndef user():\n    """\n    exposes:\n    http://..../[app]/default/user/login\n    http://..../[app]/default/user/logout\n    http://..../[app]/default/user/register\n    http://..../[app]/default/user/profile\n    http://..../[app]/default/user/retrieve_password\n    http://..../[app]/default/user/change_password\n    use @auth.requires_login()\n        @auth.requires_membership(\'group name\')\n        @auth.requires_permission(\'read\',\'table name\',record_id)\n    to decorate functions that need access control\n    """\n    return dict(form=auth())\n\n\ndef download():\n    """\n    allows downloading of uploaded files\n    http://..../[app]/default/download/[filename]\n    """\n    return response.download(request, db)\n\n\ndef call():\n    """\n    exposes services. for example:\n    http://..../[app]/default/call/jsonrpc\n    decorate with @services.jsonrpc the functions to expose\n    supports xml, json, xmlrpc, jsonrpc, amfrpc, rss, csv\n    """\n    return service()\n\n\n@auth.requires_signature()\ndef data():\n    """\n    http://..../[app]/default/data/tables\n    http://..../[app]/default/data/create/[table]\n    http://..../[app]/default/data/read/[table]/[id]\n    http://..../[app]/default/data/update/[table]/[id]\n    http://..../[app]/default/data/delete/[table]/[id]\n    http://..../[app]/default/data/select/[table]\n    http://..../[app]/default/data/search/[table]\n    but URLs must be signed, i.e. linked with\n      A(\'table\',_href=URL(\'data/tables\',user_signature=True))\n    or with the signed load operator\n      LOAD(\'default\',\'data.load\',args=\'tables\',ajax=True,user_signature=True)\n    """\n    return dict(form=crud())\n\nresponse._vars=response._caller(edit_status)\n'
p7
sS'snapshot'
p8
(dp9
S'exception'
p10
(dp11
S'__hash__'
p12
S"<method-wrapper '__hash__' of exceptions.NameError object>"
p13
sS'__setattr__'
p14
S"<method-wrapper '__setattr__' of exceptions.NameError object>"
p15
sS'__reduce_ex__'
p16
S'<built-in method __reduce_ex__ of exceptions.NameError object>'
p17
sS'__getslice__'
p18
S"<method-wrapper '__getslice__' of exceptions.NameError object>"
p19
sS'__getitem__'
p20
S"<method-wrapper '__getitem__' of exceptions.NameError object>"
p21
sS'__setstate__'
p22
S'<built-in method __setstate__ of exceptions.NameError object>'
p23
sS'args'
p24
S'("global name \'a\' is not defined",)'
p25
sS'__reduce__'
p26
S'<built-in method __reduce__ of exceptions.NameError object>'
p27
sS'__str__'
p28
S"<method-wrapper '__str__' of exceptions.NameError object>"
p29
sS'__format__'
p30
S'<built-in method __format__ of exceptions.NameError object>'
p31
sS'__getattribute__'
p32
S"<method-wrapper '__getattribute__' of exceptions.NameError object>"
p33
sS'__class__'
p34
S"<type 'exceptions.NameError'>"
p35
sS'__unicode__'
p36
S'<built-in method __unicode__ of exceptions.NameError object>'
p37
sS'__delattr__'
p38
S"<method-wrapper '__delattr__' of exceptions.NameError object>"
p39
sS'__subclasshook__'
p40
S'<built-in method __subclasshook__ of type object>'
p41
sS'__repr__'
p42
S"<method-wrapper '__repr__' of exceptions.NameError object>"
p43
sS'__dict__'
p44
S'{}'
p45
sS'__sizeof__'
p46
S'<built-in method __sizeof__ of exceptions.NameError object>'
p47
sS'__doc__'
p48
S"'Name not found globally.'"
p49
sS'__init__'
p50
S"<method-wrapper '__init__' of exceptions.NameError object>"
p51
sS'__new__'
p52
S'<built-in method __new__ of type object>'
p53
ssS'evalue'
p54
S"global name 'a' is not defined"
p55
sS'request'
p56
ccopy_reg
_reconstructor
p57
(cgluon.html
BEAUTIFY
p58
c__builtin__
object
p59
NtRp60
(dp61
S'attributes'
p62
(dp63
sS'components'
p64
(lp65
g57
(cgluon.html
TABLE
p66
g59
NtRp67
(dp68
g62
(dp69
S'level'
p70
I5
ssS'parent'
p71
Nsg64
(lp72
g57
(cgluon.html
TR
p73
g59
NtRp74
(dp75
g62
(dp76
sg71
g67
sg64
(lp77
g57
(cgluon.html
TD
p78
g59
NtRp79
(dp80
g62
(dp81
S'_style'
p82
S'font-weight:bold;vertical-align:top'
p83
ssg71
g74
sg64
(lp84
S'ajax'
p85
asbag57
(g78
g59
NtRp86
(dp87
g62
(dp88
S'_valign'
p89
S'top'
p90
ssg71
g74
sg64
(lp91
S':'
asbag57
(g78
g59
NtRp92
(dp93
g62
(dp94
sg71
g74
sg64
(lp95
g57
(g58
g59
NtRp96
(dp97
g62
(dp98
g70
I5
ssg71
g92
sg64
(lp99
S'False'
p100
asbasbasbag57
(g73
g59
NtRp101
(dp102
g62
(dp103
sg71
g67
sg64
(lp104
g57
(g78
g59
NtRp105
(dp106
g62
(dp107
g82
g83
ssg71
g101
sg64
(lp108
S'application'
p109
asbag57
(g78
g59
NtRp110
(dp111
g62
(dp112
g89
g90
ssg71
g101
sg64
(lp113
S':'
asbag57
(g78
g59
NtRp114
(dp115
g62
(dp116
sg71
g101
sg64
(lp117
g57
(g58
g59
NtRp118
(dp119
g62
(dp120
g70
I5
ssg71
g114
sg64
(lp121
S'Garbage_Truck'
p122
asbasbasbag57
(g73
g59
NtRp123
(dp124
g62
(dp125
sg71
g67
sg64
(lp126
g57
(g78
g59
NtRp127
(dp128
g62
(dp129
g82
g83
ssg71
g123
sg64
(lp130
g24
asbag57
(g78
g59
NtRp131
(dp132
g62
(dp133
g89
g90
ssg71
g123
sg64
(lp134
S':'
asbag57
(g78
g59
NtRp135
(dp136
g62
(dp137
sg71
g123
sg64
(lp138
g57
(g58
g59
NtRp139
(dp140
g62
(dp141
g70
I5
ssg71
g135
sg64
(lp142
g57
(g66
g59
NtRp143
(dp144
g62
(dp145
g70
I4
ssg71
Nsg64
(lp146
g57
(g73
g59
NtRp147
(dp148
g62
(dp149
sg71
g143
sg64
(lp150
g57
(g78
g59
NtRp151
(dp152
g62
(dp153
sg71
g147
sg64
(lp154
g57
(g58
g59
NtRp155
(dp156
g62
(dp157
g70
I4
ssg71
g151
sg64
(lp158
S'1'
asbasbasbasbasbasbasbag57
(g73
g59
NtRp159
(dp160
g62
(dp161
sg71
g67
sg64
(lp162
g57
(g78
g59
NtRp163
(dp164
g62
(dp165
g82
g83
ssg71
g159
sg64
(lp166
S'body'
p167
asbag57
(g78
g59
NtRp168
(dp169
g62
(dp170
g89
g90
ssg71
g159
sg64
(lp171
S':'
asbag57
(g78
g59
NtRp172
(dp173
g62
(dp174
sg71
g159
sg64
(lp175
g57
(g58
g59
NtRp176
(dp177
g62
(dp178
g70
I5
ssg71
g172
sg64
(lp179
S'<cStringIO.StringO object at 0x7f92a8658928>'
p180
asbasbasbag57
(g73
g59
NtRp181
(dp182
g62
(dp183
sg71
g67
sg64
(lp184
g57
(g78
g59
NtRp185
(dp186
g62
(dp187
g82
g83
ssg71
g181
sg64
(lp188
S'cid'
p189
asbag57
(g78
g59
NtRp190
(dp191
g62
(dp192
g89
g90
ssg71
g181
sg64
(lp193
S':'
asbag57
(g78
g59
NtRp194
(dp195
g62
(dp196
sg71
g181
sg64
(lp197
g57
(g58
g59
NtRp198
(dp199
g62
(dp200
g70
I5
ssg71
g194
sg64
(lp201
S'None'
p202
asbasbasbag57
(g73
g59
NtRp203
(dp204
g62
(dp205
sg71
g67
sg64
(lp206
g57
(g78
g59
NtRp207
(dp208
g62
(dp209
g82
g83
ssg71
g203
sg64
(lp210
S'client'
p211
asbag57
(g78
g59
NtRp212
(dp213
g62
(dp214
g89
g90
ssg71
g203
sg64
(lp215
S':'
asbag57
(g78
g59
NtRp216
(dp217
g62
(dp218
sg71
g203
sg64
(lp219
g57
(g58
g59
NtRp220
(dp221
g62
(dp222
g70
I5
ssg71
g216
sg64
(lp223
S'127.0.0.1'
p224
asbasbasbag57
(g73
g59
NtRp225
(dp226
g62
(dp227
sg71
g67
sg64
(lp228
g57
(g78
g59
NtRp229
(dp230
g62
(dp231
g82
g83
ssg71
g225
sg64
(lp232
S'controller'
p233
asbag57
(g78
g59
NtRp234
(dp235
g62
(dp236
g89
g90
ssg71
g225
sg64
(lp237
S':'
asbag57
(g78
g59
NtRp238
(dp239
g62
(dp240
sg71
g225
sg64
(lp241
g57
(g58
g59
NtRp242
(dp243
g62
(dp244
g70
I5
ssg71
g238
sg64
(lp245
S'default'
p246
asbasbasbag57
(g73
g59
NtRp247
(dp248
g62
(dp249
sg71
g67
sg64
(lp250
g57
(g78
g59
NtRp251
(dp252
g62
(dp253
g82
g83
ssg71
g247
sg64
(lp254
S'cookies'
p255
asbag57
(g78
g59
NtRp256
(dp257
g62
(dp258
g89
g90
ssg71
g247
sg64
(lp259
S':'
asbag57
(g78
g59
NtRp260
(dp261
g62
(dp262
sg71
g247
sg64
(lp263
g57
(g58
g59
NtRp264
(dp265
g62
(dp266
g70
I5
ssg71
g260
sg64
(lp267
g57
(g66
g59
NtRp268
(dp269
g62
(dp270
g70
I4
ssg71
Nsg64
(lp271
g57
(g73
g59
NtRp272
(dp273
g62
(dp274
sg71
g268
sg64
(lp275
g57
(g78
g59
NtRp276
(dp277
g62
(dp278
g82
g83
ssg71
g272
sg64
(lp279
S'csrftoken'
p280
asbag57
(g78
g59
NtRp281
(dp282
g62
(dp283
g89
g90
ssg71
g272
sg64
(lp284
S':'
asbag57
(g78
g59
NtRp285
(dp286
g62
(dp287
sg71
g272
sg64
(lp288
g57
(g58
g59
NtRp289
(dp290
g62
(dp291
g70
I4
ssg71
g285
sg64
(lp292
S'a9lCt5w7Q4OG437IZNwjtNB3YEdWYXWm'
p293
ag57
(g66
g59
NtRp294
(dp295
g62
(dp296
g70
I3
ssg71
Nsg64
(lp297
g57
(g73
g59
NtRp298
(dp299
g62
(dp300
sg71
g294
sg64
(lp301
g57
(g78
g59
NtRp302
(dp303
g62
(dp304
g82
g83
ssg71
g298
sg64
(lp305
S'comment'
p306
asbag57
(g78
g59
NtRp307
(dp308
g62
(dp309
g89
g90
ssg71
g298
sg64
(lp310
S':'
asbag57
(g78
g59
NtRp311
(dp312
g62
(dp313
sg71
g298
sg64
(lp314
g57
(g58
g59
NtRp315
(dp316
g62
(dp317
g70
I3
ssg71
g311
sg64
(lp318
S''
asbasbasbag57
(g73
g59
NtRp319
(dp320
g62
(dp321
sg71
g294
sg64
(lp322
g57
(g78
g59
NtRp323
(dp324
g62
(dp325
g82
g83
ssg71
g319
sg64
(lp326
S'domain'
p327
asbag57
(g78
g59
NtRp328
(dp329
g62
(dp330
g89
g90
ssg71
g319
sg64
(lp331
S':'
asbag57
(g78
g59
NtRp332
(dp333
g62
(dp334
sg71
g319
sg64
(lp335
g57
(g58
g59
NtRp336
(dp337
g62
(dp338
g70
I3
ssg71
g332
sg64
(lp339
S''
asbasbasbag57
(g73
g59
NtRp340
(dp341
g62
(dp342
sg71
g294
sg64
(lp343
g57
(g78
g59
NtRp344
(dp345
g62
(dp346
g82
g83
ssg71
g340
sg64
(lp347
S'expires'
p348
asbag57
(g78
g59
NtRp349
(dp350
g62
(dp351
g89
g90
ssg71
g340
sg64
(lp352
S':'
asbag57
(g78
g59
NtRp353
(dp354
g62
(dp355
sg71
g340
sg64
(lp356
g57
(g58
g59
NtRp357
(dp358
g62
(dp359
g70
I3
ssg71
g353
sg64
(lp360
S''
asbasbasbag57
(g73
g59
NtRp361
(dp362
g62
(dp363
sg71
g294
sg64
(lp364
g57
(g78
g59
NtRp365
(dp366
g62
(dp367
g82
g83
ssg71
g361
sg64
(lp368
S'httponly'
p369
asbag57
(g78
g59
NtRp370
(dp371
g62
(dp372
g89
g90
ssg71
g361
sg64
(lp373
S':'
asbag57
(g78
g59
NtRp374
(dp375
g62
(dp376
sg71
g361
sg64
(lp377
g57
(g58
g59
NtRp378
(dp379
g62
(dp380
g70
I3
ssg71
g374
sg64
(lp381
S''
asbasbasbag57
(g73
g59
NtRp382
(dp383
g62
(dp384
sg71
g294
sg64
(lp385
g57
(g78
g59
NtRp386
(dp387
g62
(dp388
g82
g83
ssg71
g382
sg64
(lp389
S'max-age'
p390
asbag57
(g78
g59
NtRp391
(dp392
g62
(dp393
g89
g90
ssg71
g382
sg64
(lp394
S':'
asbag57
(g78
g59
NtRp395
(dp396
g62
(dp397
sg71
g382
sg64
(lp398
g57
(g58
g59
NtRp399
(dp400
g62
(dp401
g70
I3
ssg71
g395
sg64
(lp402
S''
asbasbasbag57
(g73
g59
NtRp403
(dp404
g62
(dp405
sg71
g294
sg64
(lp406
g57
(g78
g59
NtRp407
(dp408
g62
(dp409
g82
g83
ssg71
g403
sg64
(lp410
S'path'
p411
asbag57
(g78
g59
NtRp412
(dp413
g62
(dp414
g89
g90
ssg71
g403
sg64
(lp415
S':'
asbag57
(g78
g59
NtRp416
(dp417
g62
(dp418
sg71
g403
sg64
(lp419
g57
(g58
g59
NtRp420
(dp421
g62
(dp422
g70
I3
ssg71
g416
sg64
(lp423
S''
asbasbasbag57
(g73
g59
NtRp424
(dp425
g62
(dp426
sg71
g294
sg64
(lp427
g57
(g78
g59
NtRp428
(dp429
g62
(dp430
g82
g83
ssg71
g424
sg64
(lp431
S'secure'
p432
asbag57
(g78
g59
NtRp433
(dp434
g62
(dp435
g89
g90
ssg71
g424
sg64
(lp436
S':'
asbag57
(g78
g59
NtRp437
(dp438
g62
(dp439
sg71
g424
sg64
(lp440
g57
(g58
g59
NtRp441
(dp442
g62
(dp443
g70
I3
ssg71
g437
sg64
(lp444
S''
asbasbasbag57
(g73
g59
NtRp445
(dp446
g62
(dp447
sg71
g294
sg64
(lp448
g57
(g78
g59
NtRp449
(dp450
g62
(dp451
g82
g83
ssg71
g445
sg64
(lp452
S'version'
p453
asbag57
(g78
g59
NtRp454
(dp455
g62
(dp456
g89
g90
ssg71
g445
sg64
(lp457
S':'
asbag57
(g78
g59
NtRp458
(dp459
g62
(dp460
sg71
g445
sg64
(lp461
g57
(g58
g59
NtRp462
(dp463
g62
(dp464
g70
I3
ssg71
g458
sg64
(lp465
S''
asbasbasbasbasbasbasbag57
(g73
g59
NtRp466
(dp467
g62
(dp468
sg71
g268
sg64
(lp469
g57
(g78
g59
NtRp470
(dp471
g62
(dp472
g82
g83
ssg71
g466
sg64
(lp473
S'session_id_admin'
p474
asbag57
(g78
g59
NtRp475
(dp476
g62
(dp477
g89
g90
ssg71
g466
sg64
(lp478
S':'
asbag57
(g78
g59
NtRp479
(dp480
g62
(dp481
sg71
g466
sg64
(lp482
g57
(g58
g59
NtRp483
(dp484
g62
(dp485
g70
I4
ssg71
g479
sg64
(lp486
S'127.0.0.1-e6c203e9-d008-4610-8523-5a0e93da9abb'
p487
ag57
(g66
g59
NtRp488
(dp489
g62
(dp490
g70
I3
ssg71
Nsg64
(lp491
g57
(g73
g59
NtRp492
(dp493
g62
(dp494
sg71
g488
sg64
(lp495
g57
(g78
g59
NtRp496
(dp497
g62
(dp498
g82
g83
ssg71
g492
sg64
(lp499
g306
asbag57
(g78
g59
NtRp500
(dp501
g62
(dp502
g89
g90
ssg71
g492
sg64
(lp503
S':'
asbag57
(g78
g59
NtRp504
(dp505
g62
(dp506
sg71
g492
sg64
(lp507
g57
(g58
g59
NtRp508
(dp509
g62
(dp510
g70
I3
ssg71
g504
sg64
(lp511
S''
asbasbasbag57
(g73
g59
NtRp512
(dp513
g62
(dp514
sg71
g488
sg64
(lp515
g57
(g78
g59
NtRp516
(dp517
g62
(dp518
g82
g83
ssg71
g512
sg64
(lp519
g327
asbag57
(g78
g59
NtRp520
(dp521
g62
(dp522
g89
g90
ssg71
g512
sg64
(lp523
S':'
asbag57
(g78
g59
NtRp524
(dp525
g62
(dp526
sg71
g512
sg64
(lp527
g57
(g58
g59
NtRp528
(dp529
g62
(dp530
g70
I3
ssg71
g524
sg64
(lp531
S''
asbasbasbag57
(g73
g59
NtRp532
(dp533
g62
(dp534
sg71
g488
sg64
(lp535
g57
(g78
g59
NtRp536
(dp537
g62
(dp538
g82
g83
ssg71
g532
sg64
(lp539
g348
asbag57
(g78
g59
NtRp540
(dp541
g62
(dp542
g89
g90
ssg71
g532
sg64
(lp543
S':'
asbag57
(g78
g59
NtRp544
(dp545
g62
(dp546
sg71
g532
sg64
(lp547
g57
(g58
g59
NtRp548
(dp549
g62
(dp550
g70
I3
ssg71
g544
sg64
(lp551
S''
asbasbasbag57
(g73
g59
NtRp552
(dp553
g62
(dp554
sg71
g488
sg64
(lp555
g57
(g78
g59
NtRp556
(dp557
g62
(dp558
g82
g83
ssg71
g552
sg64
(lp559
g369
asbag57
(g78
g59
NtRp560
(dp561
g62
(dp562
g89
g90
ssg71
g552
sg64
(lp563
S':'
asbag57
(g78
g59
NtRp564
(dp565
g62
(dp566
sg71
g552
sg64
(lp567
g57
(g58
g59
NtRp568
(dp569
g62
(dp570
g70
I3
ssg71
g564
sg64
(lp571
S''
asbasbasbag57
(g73
g59
NtRp572
(dp573
g62
(dp574
sg71
g488
sg64
(lp575
g57
(g78
g59
NtRp576
(dp577
g62
(dp578
g82
g83
ssg71
g572
sg64
(lp579
g390
asbag57
(g78
g59
NtRp580
(dp581
g62
(dp582
g89
g90
ssg71
g572
sg64
(lp583
S':'
asbag57
(g78
g59
NtRp584
(dp585
g62
(dp586
sg71
g572
sg64
(lp587
g57
(g58
g59
NtRp588
(dp589
g62
(dp590
g70
I3
ssg71
g584
sg64
(lp591
S''
asbasbasbag57
(g73
g59
NtRp592
(dp593
g62
(dp594
sg71
g488
sg64
(lp595
g57
(g78
g59
NtRp596
(dp597
g62
(dp598
g82
g83
ssg71
g592
sg64
(lp599
g411
asbag57
(g78
g59
NtRp600
(dp601
g62
(dp602
g89
g90
ssg71
g592
sg64
(lp603
S':'
asbag57
(g78
g59
NtRp604
(dp605
g62
(dp606
sg71
g592
sg64
(lp607
g57
(g58
g59
NtRp608
(dp609
g62
(dp610
g70
I3
ssg71
g604
sg64
(lp611
S''
asbasbasbag57
(g73
g59
NtRp612
(dp613
g62
(dp614
sg71
g488
sg64
(lp615
g57
(g78
g59
NtRp616
(dp617
g62
(dp618
g82
g83
ssg71
g612
sg64
(lp619
g432
asbag57
(g78
g59
NtRp620
(dp621
g62
(dp622
g89
g90
ssg71
g612
sg64
(lp623
S':'
asbag57
(g78
g59
NtRp624
(dp625
g62
(dp626
sg71
g612
sg64
(lp627
g57
(g58
g59
NtRp628
(dp629
g62
(dp630
g70
I3
ssg71
g624
sg64
(lp631
S''
asbasbasbag57
(g73
g59
NtRp632
(dp633
g62
(dp634
sg71
g488
sg64
(lp635
g57
(g78
g59
NtRp636
(dp637
g62
(dp638
g82
g83
ssg71
g632
sg64
(lp639
g453
asbag57
(g78
g59
NtRp640
(dp641
g62
(dp642
g89
g90
ssg71
g632
sg64
(lp643
S':'
asbag57
(g78
g59
NtRp644
(dp645
g62
(dp646
sg71
g632
sg64
(lp647
g57
(g58
g59
NtRp648
(dp649
g62
(dp650
g70
I3
ssg71
g644
sg64
(lp651
S''
asbasbasbasbasbasbasbag57
(g73
g59
NtRp652
(dp653
g62
(dp654
sg71
g268
sg64
(lp655
g57
(g78
g59
NtRp656
(dp657
g62
(dp658
g82
g83
ssg71
g652
sg64
(lp659
S'session_id_garbage_truck'
p660
asbag57
(g78
g59
NtRp661
(dp662
g62
(dp663
g89
g90
ssg71
g652
sg64
(lp664
S':'
asbag57
(g78
g59
NtRp665
(dp666
g62
(dp667
sg71
g652
sg64
(lp668
g57
(g58
g59
NtRp669
(dp670
g62
(dp671
g70
I4
ssg71
g665
sg64
(lp672
S'127.0.0.1-eb5e8630-3789-44cf-90c0-4c0a37fc535a'
p673
ag57
(g66
g59
NtRp674
(dp675
g62
(dp676
g70
I3
ssg71
Nsg64
(lp677
g57
(g73
g59
NtRp678
(dp679
g62
(dp680
sg71
g674
sg64
(lp681
g57
(g78
g59
NtRp682
(dp683
g62
(dp684
g82
g83
ssg71
g678
sg64
(lp685
g306
asbag57
(g78
g59
NtRp686
(dp687
g62
(dp688
g89
g90
ssg71
g678
sg64
(lp689
S':'
asbag57
(g78
g59
NtRp690
(dp691
g62
(dp692
sg71
g678
sg64
(lp693
g57
(g58
g59
NtRp694
(dp695
g62
(dp696
g70
I3
ssg71
g690
sg64
(lp697
S''
asbasbasbag57
(g73
g59
NtRp698
(dp699
g62
(dp700
sg71
g674
sg64
(lp701
g57
(g78
g59
NtRp702
(dp703
g62
(dp704
g82
g83
ssg71
g698
sg64
(lp705
g327
asbag57
(g78
g59
NtRp706
(dp707
g62
(dp708
g89
g90
ssg71
g698
sg64
(lp709
S':'
asbag57
(g78
g59
NtRp710
(dp711
g62
(dp712
sg71
g698
sg64
(lp713
g57
(g58
g59
NtRp714
(dp715
g62
(dp716
g70
I3
ssg71
g710
sg64
(lp717
S''
asbasbasbag57
(g73
g59
NtRp718
(dp719
g62
(dp720
sg71
g674
sg64
(lp721
g57
(g78
g59
NtRp722
(dp723
g62
(dp724
g82
g83
ssg71
g718
sg64
(lp725
g348
asbag57
(g78
g59
NtRp726
(dp727
g62
(dp728
g89
g90
ssg71
g718
sg64
(lp729
S':'
asbag57
(g78
g59
NtRp730
(dp731
g62
(dp732
sg71
g718
sg64
(lp733
g57
(g58
g59
NtRp734
(dp735
g62
(dp736
g70
I3
ssg71
g730
sg64
(lp737
S''
asbasbasbag57
(g73
g59
NtRp738
(dp739
g62
(dp740
sg71
g674
sg64
(lp741
g57
(g78
g59
NtRp742
(dp743
g62
(dp744
g82
g83
ssg71
g738
sg64
(lp745
g369
asbag57
(g78
g59
NtRp746
(dp747
g62
(dp748
g89
g90
ssg71
g738
sg64
(lp749
S':'
asbag57
(g78
g59
NtRp750
(dp751
g62
(dp752
sg71
g738
sg64
(lp753
g57
(g58
g59
NtRp754
(dp755
g62
(dp756
g70
I3
ssg71
g750
sg64
(lp757
S''
asbasbasbag57
(g73
g59
NtRp758
(dp759
g62
(dp760
sg71
g674
sg64
(lp761
g57
(g78
g59
NtRp762
(dp763
g62
(dp764
g82
g83
ssg71
g758
sg64
(lp765
g390
asbag57
(g78
g59
NtRp766
(dp767
g62
(dp768
g89
g90
ssg71
g758
sg64
(lp769
S':'
asbag57
(g78
g59
NtRp770
(dp771
g62
(dp772
sg71
g758
sg64
(lp773
g57
(g58
g59
NtRp774
(dp775
g62
(dp776
g70
I3
ssg71
g770
sg64
(lp777
S''
asbasbasbag57
(g73
g59
NtRp778
(dp779
g62
(dp780
sg71
g674
sg64
(lp781
g57
(g78
g59
NtRp782
(dp783
g62
(dp784
g82
g83
ssg71
g778
sg64
(lp785
g411
asbag57
(g78
g59
NtRp786
(dp787
g62
(dp788
g89
g90
ssg71
g778
sg64
(lp789
S':'
asbag57
(g78
g59
NtRp790
(dp791
g62
(dp792
sg71
g778
sg64
(lp793
g57
(g58
g59
NtRp794
(dp795
g62
(dp796
g70
I3
ssg71
g790
sg64
(lp797
S''
asbasbasbag57
(g73
g59
NtRp798
(dp799
g62
(dp800
sg71
g674
sg64
(lp801
g57
(g78
g59
NtRp802
(dp803
g62
(dp804
g82
g83
ssg71
g798
sg64
(lp805
g432
asbag57
(g78
g59
NtRp806
(dp807
g62
(dp808
g89
g90
ssg71
g798
sg64
(lp809
S':'
asbag57
(g78
g59
NtRp810
(dp811
g62
(dp812
sg71
g798
sg64
(lp813
g57
(g58
g59
NtRp814
(dp815
g62
(dp816
g70
I3
ssg71
g810
sg64
(lp817
S''
asbasbasbag57
(g73
g59
NtRp818
(dp819
g62
(dp820
sg71
g674
sg64
(lp821
g57
(g78
g59
NtRp822
(dp823
g62
(dp824
g82
g83
ssg71
g818
sg64
(lp825
g453
asbag57
(g78
g59
NtRp826
(dp827
g62
(dp828
g89
g90
ssg71
g818
sg64
(lp829
S':'
asbag57
(g78
g59
NtRp830
(dp831
g62
(dp832
sg71
g818
sg64
(lp833
g57
(g58
g59
NtRp834
(dp835
g62
(dp836
g70
I3
ssg71
g830
sg64
(lp837
S''
asbasbasbasbasbasbasbag57
(g73
g59
NtRp838
(dp839
g62
(dp840
sg71
g268
sg64
(lp841
g57
(g78
g59
NtRp842
(dp843
g62
(dp844
g82
g83
ssg71
g838
sg64
(lp845
S'session_id_isas'
p846
asbag57
(g78
g59
NtRp847
(dp848
g62
(dp849
g89
g90
ssg71
g838
sg64
(lp850
S':'
asbag57
(g78
g59
NtRp851
(dp852
g62
(dp853
sg71
g838
sg64
(lp854
g57
(g58
g59
NtRp855
(dp856
g62
(dp857
g70
I4
ssg71
g851
sg64
(lp858
S'127.0.0.1-46261fb6-868f-4eb5-ae61-7251ec9ac039'
p859
ag57
(g66
g59
NtRp860
(dp861
g62
(dp862
g70
I3
ssg71
Nsg64
(lp863
g57
(g73
g59
NtRp864
(dp865
g62
(dp866
sg71
g860
sg64
(lp867
g57
(g78
g59
NtRp868
(dp869
g62
(dp870
g82
g83
ssg71
g864
sg64
(lp871
g306
asbag57
(g78
g59
NtRp872
(dp873
g62
(dp874
g89
g90
ssg71
g864
sg64
(lp875
S':'
asbag57
(g78
g59
NtRp876
(dp877
g62
(dp878
sg71
g864
sg64
(lp879
g57
(g58
g59
NtRp880
(dp881
g62
(dp882
g70
I3
ssg71
g876
sg64
(lp883
S''
asbasbasbag57
(g73
g59
NtRp884
(dp885
g62
(dp886
sg71
g860
sg64
(lp887
g57
(g78
g59
NtRp888
(dp889
g62
(dp890
g82
g83
ssg71
g884
sg64
(lp891
g327
asbag57
(g78
g59
NtRp892
(dp893
g62
(dp894
g89
g90
ssg71
g884
sg64
(lp895
S':'
asbag57
(g78
g59
NtRp896
(dp897
g62
(dp898
sg71
g884
sg64
(lp899
g57
(g58
g59
NtRp900
(dp901
g62
(dp902
g70
I3
ssg71
g896
sg64
(lp903
S''
asbasbasbag57
(g73
g59
NtRp904
(dp905
g62
(dp906
sg71
g860
sg64
(lp907
g57
(g78
g59
NtRp908
(dp909
g62
(dp910
g82
g83
ssg71
g904
sg64
(lp911
g348
asbag57
(g78
g59
NtRp912
(dp913
g62
(dp914
g89
g90
ssg71
g904
sg64
(lp915
S':'
asbag57
(g78
g59
NtRp916
(dp917
g62
(dp918
sg71
g904
sg64
(lp919
g57
(g58
g59
NtRp920
(dp921
g62
(dp922
g70
I3
ssg71
g916
sg64
(lp923
S''
asbasbasbag57
(g73
g59
NtRp924
(dp925
g62
(dp926
sg71
g860
sg64
(lp927
g57
(g78
g59
NtRp928
(dp929
g62
(dp930
g82
g83
ssg71
g924
sg64
(lp931
g369
asbag57
(g78
g59
NtRp932
(dp933
g62
(dp934
g89
g90
ssg71
g924
sg64
(lp935
S':'
asbag57
(g78
g59
NtRp936
(dp937
g62
(dp938
sg71
g924
sg64
(lp939
g57
(g58
g59
NtRp940
(dp941
g62
(dp942
g70
I3
ssg71
g936
sg64
(lp943
S''
asbasbasbag57
(g73
g59
NtRp944
(dp945
g62
(dp946
sg71
g860
sg64
(lp947
g57
(g78
g59
NtRp948
(dp949
g62
(dp950
g82
g83
ssg71
g944
sg64
(lp951
g390
asbag57
(g78
g59
NtRp952
(dp953
g62
(dp954
g89
g90
ssg71
g944
sg64
(lp955
S':'
asbag57
(g78
g59
NtRp956
(dp957
g62
(dp958
sg71
g944
sg64
(lp959
g57
(g58
g59
NtRp960
(dp961
g62
(dp962
g70
I3
ssg71
g956
sg64
(lp963
S''
asbasbasbag57
(g73
g59
NtRp964
(dp965
g62
(dp966
sg71
g860
sg64
(lp967
g57
(g78
g59
NtRp968
(dp969
g62
(dp970
g82
g83
ssg71
g964
sg64
(lp971
g411
asbag57
(g78
g59
NtRp972
(dp973
g62
(dp974
g89
g90
ssg71
g964
sg64
(lp975
S':'
asbag57
(g78
g59
NtRp976
(dp977
g62
(dp978
sg71
g964
sg64
(lp979
g57
(g58
g59
NtRp980
(dp981
g62
(dp982
g70
I3
ssg71
g976
sg64
(lp983
S''
asbasbasbag57
(g73
g59
NtRp984
(dp985
g62
(dp986
sg71
g860
sg64
(lp987
g57
(g78
g59
NtRp988
(dp989
g62
(dp990
g82
g83
ssg71
g984
sg64
(lp991
g432
asbag57
(g78
g59
NtRp992
(dp993
g62
(dp994
g89
g90
ssg71
g984
sg64
(lp995
S':'
asbag57
(g78
g59
NtRp996
(dp997
g62
(dp998
sg71
g984
sg64
(lp999
g57
(g58
g59
NtRp1000
(dp1001
g62
(dp1002
g70
I3
ssg71
g996
sg64
(lp1003
S''
asbasbasbag57
(g73
g59
NtRp1004
(dp1005
g62
(dp1006
sg71
g860
sg64
(lp1007
g57
(g78
g59
NtRp1008
(dp1009
g62
(dp1010
g82
g83
ssg71
g1004
sg64
(lp1011
g453
asbag57
(g78
g59
NtRp1012
(dp1013
g62
(dp1014
g89
g90
ssg71
g1004
sg64
(lp1015
S':'
asbag57
(g78
g59
NtRp1016
(dp1017
g62
(dp1018
sg71
g1004
sg64
(lp1019
g57
(g58
g59
NtRp1020
(dp1021
g62
(dp1022
g70
I3
ssg71
g1016
sg64
(lp1023
S''
asbasbasbasbasbasbasbag57
(g73
g59
NtRp1024
(dp1025
g62
(dp1026
sg71
g268
sg64
(lp1027
g57
(g78
g59
NtRp1028
(dp1029
g62
(dp1030
g82
g83
ssg71
g1024
sg64
(lp1031
S'session_id_readit'
p1032
asbag57
(g78
g59
NtRp1033
(dp1034
g62
(dp1035
g89
g90
ssg71
g1024
sg64
(lp1036
S':'
asbag57
(g78
g59
NtRp1037
(dp1038
g62
(dp1039
sg71
g1024
sg64
(lp1040
g57
(g58
g59
NtRp1041
(dp1042
g62
(dp1043
g70
I4
ssg71
g1037
sg64
(lp1044
S'127.0.0.1-e391c20a-8d22-4e6d-a1c8-f85c00f99b3d'
p1045
ag57
(g66
g59
NtRp1046
(dp1047
g62
(dp1048
g70
I3
ssg71
Nsg64
(lp1049
g57
(g73
g59
NtRp1050
(dp1051
g62
(dp1052
sg71
g1046
sg64
(lp1053
g57
(g78
g59
NtRp1054
(dp1055
g62
(dp1056
g82
g83
ssg71
g1050
sg64
(lp1057
g306
asbag57
(g78
g59
NtRp1058
(dp1059
g62
(dp1060
g89
g90
ssg71
g1050
sg64
(lp1061
S':'
asbag57
(g78
g59
NtRp1062
(dp1063
g62
(dp1064
sg71
g1050
sg64
(lp1065
g57
(g58
g59
NtRp1066
(dp1067
g62
(dp1068
g70
I3
ssg71
g1062
sg64
(lp1069
S''
asbasbasbag57
(g73
g59
NtRp1070
(dp1071
g62
(dp1072
sg71
g1046
sg64
(lp1073
g57
(g78
g59
NtRp1074
(dp1075
g62
(dp1076
g82
g83
ssg71
g1070
sg64
(lp1077
g327
asbag57
(g78
g59
NtRp1078
(dp1079
g62
(dp1080
g89
g90
ssg71
g1070
sg64
(lp1081
S':'
asbag57
(g78
g59
NtRp1082
(dp1083
g62
(dp1084
sg71
g1070
sg64
(lp1085
g57
(g58
g59
NtRp1086
(dp1087
g62
(dp1088
g70
I3
ssg71
g1082
sg64
(lp1089
S''
asbasbasbag57
(g73
g59
NtRp1090
(dp1091
g62
(dp1092
sg71
g1046
sg64
(lp1093
g57
(g78
g59
NtRp1094
(dp1095
g62
(dp1096
g82
g83
ssg71
g1090
sg64
(lp1097
g348
asbag57
(g78
g59
NtRp1098
(dp1099
g62
(dp1100
g89
g90
ssg71
g1090
sg64
(lp1101
S':'
asbag57
(g78
g59
NtRp1102
(dp1103
g62
(dp1104
sg71
g1090
sg64
(lp1105
g57
(g58
g59
NtRp1106
(dp1107
g62
(dp1108
g70
I3
ssg71
g1102
sg64
(lp1109
S''
asbasbasbag57
(g73
g59
NtRp1110
(dp1111
g62
(dp1112
sg71
g1046
sg64
(lp1113
g57
(g78
g59
NtRp1114
(dp1115
g62
(dp1116
g82
g83
ssg71
g1110
sg64
(lp1117
g369
asbag57
(g78
g59
NtRp1118
(dp1119
g62
(dp1120
g89
g90
ssg71
g1110
sg64
(lp1121
S':'
asbag57
(g78
g59
NtRp1122
(dp1123
g62
(dp1124
sg71
g1110
sg64
(lp1125
g57
(g58
g59
NtRp1126
(dp1127
g62
(dp1128
g70
I3
ssg71
g1122
sg64
(lp1129
S''
asbasbasbag57
(g73
g59
NtRp1130
(dp1131
g62
(dp1132
sg71
g1046
sg64
(lp1133
g57
(g78
g59
NtRp1134
(dp1135
g62
(dp1136
g82
g83
ssg71
g1130
sg64
(lp1137
g390
asbag57
(g78
g59
NtRp1138
(dp1139
g62
(dp1140
g89
g90
ssg71
g1130
sg64
(lp1141
S':'
asbag57
(g78
g59
NtRp1142
(dp1143
g62
(dp1144
sg71
g1130
sg64
(lp1145
g57
(g58
g59
NtRp1146
(dp1147
g62
(dp1148
g70
I3
ssg71
g1142
sg64
(lp1149
S''
asbasbasbag57
(g73
g59
NtRp1150
(dp1151
g62
(dp1152
sg71
g1046
sg64
(lp1153
g57
(g78
g59
NtRp1154
(dp1155
g62
(dp1156
g82
g83
ssg71
g1150
sg64
(lp1157
g411
asbag57
(g78
g59
NtRp1158
(dp1159
g62
(dp1160
g89
g90
ssg71
g1150
sg64
(lp1161
S':'
asbag57
(g78
g59
NtRp1162
(dp1163
g62
(dp1164
sg71
g1150
sg64
(lp1165
g57
(g58
g59
NtRp1166
(dp1167
g62
(dp1168
g70
I3
ssg71
g1162
sg64
(lp1169
S''
asbasbasbag57
(g73
g59
NtRp1170
(dp1171
g62
(dp1172
sg71
g1046
sg64
(lp1173
g57
(g78
g59
NtRp1174
(dp1175
g62
(dp1176
g82
g83
ssg71
g1170
sg64
(lp1177
g432
asbag57
(g78
g59
NtRp1178
(dp1179
g62
(dp1180
g89
g90
ssg71
g1170
sg64
(lp1181
S':'
asbag57
(g78
g59
NtRp1182
(dp1183
g62
(dp1184
sg71
g1170
sg64
(lp1185
g57
(g58
g59
NtRp1186
(dp1187
g62
(dp1188
g70
I3
ssg71
g1182
sg64
(lp1189
S''
asbasbasbag57
(g73
g59
NtRp1190
(dp1191
g62
(dp1192
sg71
g1046
sg64
(lp1193
g57
(g78
g59
NtRp1194
(dp1195
g62
(dp1196
g82
g83
ssg71
g1190
sg64
(lp1197
g453
asbag57
(g78
g59
NtRp1198
(dp1199
g62
(dp1200
g89
g90
ssg71
g1190
sg64
(lp1201
S':'
asbag57
(g78
g59
NtRp1202
(dp1203
g62
(dp1204
sg71
g1190
sg64
(lp1205
g57
(g58
g59
NtRp1206
(dp1207
g62
(dp1208
g70
I3
ssg71
g1202
sg64
(lp1209
S''
asbasbasbasbasbasbasbag57
(g73
g59
NtRp1210
(dp1211
g62
(dp1212
sg71
g268
sg64
(lp1213
g57
(g78
g59
NtRp1214
(dp1215
g62
(dp1216
g82
g83
ssg71
g1210
sg64
(lp1217
S'session_id_welcome'
p1218
asbag57
(g78
g59
NtRp1219
(dp1220
g62
(dp1221
g89
g90
ssg71
g1210
sg64
(lp1222
S':'
asbag57
(g78
g59
NtRp1223
(dp1224
g62
(dp1225
sg71
g1210
sg64
(lp1226
g57
(g58
g59
NtRp1227
(dp1228
g62
(dp1229
g70
I4
ssg71
g1223
sg64
(lp1230
S'127.0.0.1-2837c0cc-fb0c-4598-b75f-5727d328e2ad'
p1231
ag57
(g66
g59
NtRp1232
(dp1233
g62
(dp1234
g70
I3
ssg71
Nsg64
(lp1235
g57
(g73
g59
NtRp1236
(dp1237
g62
(dp1238
sg71
g1232
sg64
(lp1239
g57
(g78
g59
NtRp1240
(dp1241
g62
(dp1242
g82
g83
ssg71
g1236
sg64
(lp1243
g306
asbag57
(g78
g59
NtRp1244
(dp1245
g62
(dp1246
g89
g90
ssg71
g1236
sg64
(lp1247
S':'
asbag57
(g78
g59
NtRp1248
(dp1249
g62
(dp1250
sg71
g1236
sg64
(lp1251
g57
(g58
g59
NtRp1252
(dp1253
g62
(dp1254
g70
I3
ssg71
g1248
sg64
(lp1255
S''
asbasbasbag57
(g73
g59
NtRp1256
(dp1257
g62
(dp1258
sg71
g1232
sg64
(lp1259
g57
(g78
g59
NtRp1260
(dp1261
g62
(dp1262
g82
g83
ssg71
g1256
sg64
(lp1263
g327
asbag57
(g78
g59
NtRp1264
(dp1265
g62
(dp1266
g89
g90
ssg71
g1256
sg64
(lp1267
S':'
asbag57
(g78
g59
NtRp1268
(dp1269
g62
(dp1270
sg71
g1256
sg64
(lp1271
g57
(g58
g59
NtRp1272
(dp1273
g62
(dp1274
g70
I3
ssg71
g1268
sg64
(lp1275
S''
asbasbasbag57
(g73
g59
NtRp1276
(dp1277
g62
(dp1278
sg71
g1232
sg64
(lp1279
g57
(g78
g59
NtRp1280
(dp1281
g62
(dp1282
g82
g83
ssg71
g1276
sg64
(lp1283
g348
asbag57
(g78
g59
NtRp1284
(dp1285
g62
(dp1286
g89
g90
ssg71
g1276
sg64
(lp1287
S':'
asbag57
(g78
g59
NtRp1288
(dp1289
g62
(dp1290
sg71
g1276
sg64
(lp1291
g57
(g58
g59
NtRp1292
(dp1293
g62
(dp1294
g70
I3
ssg71
g1288
sg64
(lp1295
S''
asbasbasbag57
(g73
g59
NtRp1296
(dp1297
g62
(dp1298
sg71
g1232
sg64
(lp1299
g57
(g78
g59
NtRp1300
(dp1301
g62
(dp1302
g82
g83
ssg71
g1296
sg64
(lp1303
g369
asbag57
(g78
g59
NtRp1304
(dp1305
g62
(dp1306
g89
g90
ssg71
g1296
sg64
(lp1307
S':'
asbag57
(g78
g59
NtRp1308
(dp1309
g62
(dp1310
sg71
g1296
sg64
(lp1311
g57
(g58
g59
NtRp1312
(dp1313
g62
(dp1314
g70
I3
ssg71
g1308
sg64
(lp1315
S''
asbasbasbag57
(g73
g59
NtRp1316
(dp1317
g62
(dp1318
sg71
g1232
sg64
(lp1319
g57
(g78
g59
NtRp1320
(dp1321
g62
(dp1322
g82
g83
ssg71
g1316
sg64
(lp1323
g390
asbag57
(g78
g59
NtRp1324
(dp1325
g62
(dp1326
g89
g90
ssg71
g1316
sg64
(lp1327
S':'
asbag57
(g78
g59
NtRp1328
(dp1329
g62
(dp1330
sg71
g1316
sg64
(lp1331
g57
(g58
g59
NtRp1332
(dp1333
g62
(dp1334
g70
I3
ssg71
g1328
sg64
(lp1335
S''
asbasbasbag57
(g73
g59
NtRp1336
(dp1337
g62
(dp1338
sg71
g1232
sg64
(lp1339
g57
(g78
g59
NtRp1340
(dp1341
g62
(dp1342
g82
g83
ssg71
g1336
sg64
(lp1343
g411
asbag57
(g78
g59
NtRp1344
(dp1345
g62
(dp1346
g89
g90
ssg71
g1336
sg64
(lp1347
S':'
asbag57
(g78
g59
NtRp1348
(dp1349
g62
(dp1350
sg71
g1336
sg64
(lp1351
g57
(g58
g59
NtRp1352
(dp1353
g62
(dp1354
g70
I3
ssg71
g1348
sg64
(lp1355
S''
asbasbasbag57
(g73
g59
NtRp1356
(dp1357
g62
(dp1358
sg71
g1232
sg64
(lp1359
g57
(g78
g59
NtRp1360
(dp1361
g62
(dp1362
g82
g83
ssg71
g1356
sg64
(lp1363
g432
asbag57
(g78
g59
NtRp1364
(dp1365
g62
(dp1366
g89
g90
ssg71
g1356
sg64
(lp1367
S':'
asbag57
(g78
g59
NtRp1368
(dp1369
g62
(dp1370
sg71
g1356
sg64
(lp1371
g57
(g58
g59
NtRp1372
(dp1373
g62
(dp1374
g70
I3
ssg71
g1368
sg64
(lp1375
S''
asbasbasbag57
(g73
g59
NtRp1376
(dp1377
g62
(dp1378
sg71
g1232
sg64
(lp1379
g57
(g78
g59
NtRp1380
(dp1381
g62
(dp1382
g82
g83
ssg71
g1376
sg64
(lp1383
g453
asbag57
(g78
g59
NtRp1384
(dp1385
g62
(dp1386
g89
g90
ssg71
g1376
sg64
(lp1387
S':'
asbag57
(g78
g59
NtRp1388
(dp1389
g62
(dp1390
sg71
g1376
sg64
(lp1391
g57
(g58
g59
NtRp1392
(dp1393
g62
(dp1394
g70
I3
ssg71
g1388
sg64
(lp1395
S''
asbasbasbasbasbasbasbasbasbasbasbag57
(g73
g59
NtRp1396
(dp1397
g62
(dp1398
sg71
g67
sg64
(lp1399
g57
(g78
g59
NtRp1400
(dp1401
g62
(dp1402
g82
g83
ssg71
g1396
sg64
(lp1403
S'env'
p1404
asbag57
(g78
g59
NtRp1405
(dp1406
g62
(dp1407
g89
g90
ssg71
g1396
sg64
(lp1408
S':'
asbag57
(g78
g59
NtRp1409
(dp1410
g62
(dp1411
sg71
g1396
sg64
(lp1412
g57
(g58
g59
NtRp1413
(dp1414
g62
(dp1415
g70
I5
ssg71
g1409
sg64
(lp1416
g57
(g66
g59
NtRp1417
(dp1418
g62
(dp1419
g70
I4
ssg71
Nsg64
(lp1420
g57
(g73
g59
NtRp1421
(dp1422
g62
(dp1423
sg71
g1417
sg64
(lp1424
g57
(g78
g59
NtRp1425
(dp1426
g62
(dp1427
g82
g83
ssg71
g1421
sg64
(lp1428
S'app_folders'
p1429
asbag57
(g78
g59
NtRp1430
(dp1431
g62
(dp1432
g89
g90
ssg71
g1421
sg64
(lp1433
S':'
asbag57
(g78
g59
NtRp1434
(dp1435
g62
(dp1436
sg71
g1421
sg64
(lp1437
g57
(g58
g59
NtRp1438
(dp1439
g62
(dp1440
g70
I4
ssg71
g1434
sg64
(lp1441
S"set(['/home/darshan/web2py/applications/Isas/', '/home/darshan/web2py/applications/examples/', '/home/darshan/web2py/applications/readit/', '/home/darshan/web2py/applications/admin/', '/home/darshan/web2py/applications/Garbage_Truck/', '/home/darshan/web2py/applications/welcome/', '/home/darshan/web2py/applications/isas/'])"
p1442
asbasbasbag57
(g73
g59
NtRp1443
(dp1444
g62
(dp1445
sg71
g1417
sg64
(lp1446
g57
(g78
g59
NtRp1447
(dp1448
g62
(dp1449
g82
g83
ssg71
g1443
sg64
(lp1450
S'applications_parent'
p1451
asbag57
(g78
g59
NtRp1452
(dp1453
g62
(dp1454
g89
g90
ssg71
g1443
sg64
(lp1455
S':'
asbag57
(g78
g59
NtRp1456
(dp1457
g62
(dp1458
sg71
g1443
sg64
(lp1459
g57
(g58
g59
NtRp1460
(dp1461
g62
(dp1462
g70
I4
ssg71
g1456
sg64
(lp1463
S'/home/darshan/web2py'
p1464
asbasbasbag57
(g73
g59
NtRp1465
(dp1466
g62
(dp1467
sg71
g1417
sg64
(lp1468
g57
(g78
g59
NtRp1469
(dp1470
g62
(dp1471
g82
g83
ssg71
g1465
sg64
(lp1472
S'cmd_args'
p1473
asbag57
(g78
g59
NtRp1474
(dp1475
g62
(dp1476
g89
g90
ssg71
g1465
sg64
(lp1477
S':'
asbag57
(g78
g59
NtRp1478
(dp1479
g62
(dp1480
sg71
g1465
sg64
(lp1481
g57
(g58
g59
NtRp1482
(dp1483
g62
(dp1484
g70
I4
ssg71
g1478
sg64
(lp1485
g57
(g66
g59
NtRp1486
(dp1487
g62
(dp1488
g70
I3
ssg71
Nsg64
(lp1489
sbasbasbasbag57
(g73
g59
NtRp1490
(dp1491
g62
(dp1492
sg71
g1417
sg64
(lp1493
g57
(g78
g59
NtRp1494
(dp1495
g62
(dp1496
g82
g83
ssg71
g1490
sg64
(lp1497
S'cmd_options'
p1498
asbag57
(g78
g59
NtRp1499
(dp1500
g62
(dp1501
g89
g90
ssg71
g1490
sg64
(lp1502
S':'
asbag57
(g78
g59
NtRp1503
(dp1504
g62
(dp1505
sg71
g1490
sg64
(lp1506
g57
(g58
g59
NtRp1507
(dp1508
g62
(dp1509
g70
I4
ssg71
g1503
sg64
(lp1510
S"<Values at 0x7f92baaf7f80: {'verbose': False, 'ip': '127.0.0.1', 'with_scheduler': False, 'ips': [], 'shutdown_timeout': 5, 'taskbar': False, 'port': 8000, 'maxthreads': None, 'softcron': False, 'server_name': 'darshan-Inspiron-5520', 'bpython': False, 'nogui': False, 'pid_filename': 'httpserver.pid', 'extcron': False, 'runcron': False, 'run_system_tests': False, 'test': None, 'folder': '/home/darshan/web2py', 'config': '', 'minthreads': None, 'winservice': '', 'shell': None, 'run': '', 'log_filename': 'httpserver.log', 'debuglevel': 30, 'args': [''], 'socket_timeout': 5, 'ssl_ca_certificate': None, 'scheduler': None, 'profiler_filename': None, 'ssl_private_key': '', 'scheduler_groups': None, 'password': '<ask>', 'request_queue_size': 5, 'ssl_certificate': '', 'cronjob': False, 'numthreads': None, 'quiet': False, 'interfaces': None, 'import_models': False, 'timeout': 10, 'plain': False, 'nobanner': False}>"
p1511
asbasbasbag57
(g73
g59
NtRp1512
(dp1513
g62
(dp1514
sg71
g1417
sg64
(lp1515
g57
(g78
g59
NtRp1516
(dp1517
g62
(dp1518
g82
g83
ssg71
g1512
sg64
(lp1519
S'db_sessions'
p1520
asbag57
(g78
g59
NtRp1521
(dp1522
g62
(dp1523
g89
g90
ssg71
g1512
sg64
(lp1524
S':'
asbag57
(g78
g59
NtRp1525
(dp1526
g62
(dp1527
sg71
g1512
sg64
(lp1528
g57
(g58
g59
NtRp1529
(dp1530
g62
(dp1531
g70
I4
ssg71
g1525
sg64
(lp1532
S'set([])'
p1533
asbasbasbag57
(g73
g59
NtRp1534
(dp1535
g62
(dp1536
sg71
g1417
sg64
(lp1537
g57
(g78
g59
NtRp1538
(dp1539
g62
(dp1540
g82
g83
ssg71
g1534
sg64
(lp1541
S'debugging'
p1542
asbag57
(g78
g59
NtRp1543
(dp1544
g62
(dp1545
g89
g90
ssg71
g1534
sg64
(lp1546
S':'
asbag57
(g78
g59
NtRp1547
(dp1548
g62
(dp1549
sg71
g1534
sg64
(lp1550
g57
(g58
g59
NtRp1551
(dp1552
g62
(dp1553
g70
I4
ssg71
g1547
sg64
(lp1554
g100
asbasbasbag57
(g73
g59
NtRp1555
(dp1556
g62
(dp1557
sg71
g1417
sg64
(lp1558
g57
(g78
g59
NtRp1559
(dp1560
g62
(dp1561
g82
g83
ssg71
g1555
sg64
(lp1562
S'gluon_parent'
p1563
asbag57
(g78
g59
NtRp1564
(dp1565
g62
(dp1566
g89
g90
ssg71
g1555
sg64
(lp1567
S':'
asbag57
(g78
g59
NtRp1568
(dp1569
g62
(dp1570
sg71
g1555
sg64
(lp1571
g57
(g58
g59
NtRp1572
(dp1573
g62
(dp1574
g70
I4
ssg71
g1568
sg64
(lp1575
S'/home/darshan/web2py'
p1576
asbasbasbag57
(g73
g59
NtRp1577
(dp1578
g62
(dp1579
sg71
g1417
sg64
(lp1580
g57
(g78
g59
NtRp1581
(dp1582
g62
(dp1583
g82
g83
ssg71
g1577
sg64
(lp1584
S'http_accept'
p1585
asbag57
(g78
g59
NtRp1586
(dp1587
g62
(dp1588
g89
g90
ssg71
g1577
sg64
(lp1589
S':'
asbag57
(g78
g59
NtRp1590
(dp1591
g62
(dp1592
sg71
g1577
sg64
(lp1593
g57
(g58
g59
NtRp1594
(dp1595
g62
(dp1596
g70
I4
ssg71
g1590
sg64
(lp1597
S'text/html,application/xhtml+xml,application/xml;q=0.9,*/*;q=0.8'
p1598
asbasbasbag57
(g73
g59
NtRp1599
(dp1600
g62
(dp1601
sg71
g1417
sg64
(lp1602
g57
(g78
g59
NtRp1603
(dp1604
g62
(dp1605
g82
g83
ssg71
g1599
sg64
(lp1606
S'http_accept_encoding'
p1607
asbag57
(g78
g59
NtRp1608
(dp1609
g62
(dp1610
g89
g90
ssg71
g1599
sg64
(lp1611
S':'
asbag57
(g78
g59
NtRp1612
(dp1613
g62
(dp1614
sg71
g1599
sg64
(lp1615
g57
(g58
g59
NtRp1616
(dp1617
g62
(dp1618
g70
I4
ssg71
g1612
sg64
(lp1619
S'gzip, deflate'
p1620
asbasbasbag57
(g73
g59
NtRp1621
(dp1622
g62
(dp1623
sg71
g1417
sg64
(lp1624
g57
(g78
g59
NtRp1625
(dp1626
g62
(dp1627
g82
g83
ssg71
g1621
sg64
(lp1628
S'http_accept_language'
p1629
asbag57
(g78
g59
NtRp1630
(dp1631
g62
(dp1632
g89
g90
ssg71
g1621
sg64
(lp1633
S':'
asbag57
(g78
g59
NtRp1634
(dp1635
g62
(dp1636
sg71
g1621
sg64
(lp1637
g57
(g58
g59
NtRp1638
(dp1639
g62
(dp1640
g70
I4
ssg71
g1634
sg64
(lp1641
S'en-US,en;q=0.5'
p1642
asbasbasbag57
(g73
g59
NtRp1643
(dp1644
g62
(dp1645
sg71
g1417
sg64
(lp1646
g57
(g78
g59
NtRp1647
(dp1648
g62
(dp1649
g82
g83
ssg71
g1643
sg64
(lp1650
S'http_cache_control'
p1651
asbag57
(g78
g59
NtRp1652
(dp1653
g62
(dp1654
g89
g90
ssg71
g1643
sg64
(lp1655
S':'
asbag57
(g78
g59
NtRp1656
(dp1657
g62
(dp1658
sg71
g1643
sg64
(lp1659
g57
(g58
g59
NtRp1660
(dp1661
g62
(dp1662
g70
I4
ssg71
g1656
sg64
(lp1663
S'max-age=0'
p1664
asbasbasbag57
(g73
g59
NtRp1665
(dp1666
g62
(dp1667
sg71
g1417
sg64
(lp1668
g57
(g78
g59
NtRp1669
(dp1670
g62
(dp1671
g82
g83
ssg71
g1665
sg64
(lp1672
S'http_connection'
p1673
asbag57
(g78
g59
NtRp1674
(dp1675
g62
(dp1676
g89
g90
ssg71
g1665
sg64
(lp1677
S':'
asbag57
(g78
g59
NtRp1678
(dp1679
g62
(dp1680
sg71
g1665
sg64
(lp1681
g57
(g58
g59
NtRp1682
(dp1683
g62
(dp1684
g70
I4
ssg71
g1678
sg64
(lp1685
S'keep-alive'
p1686
asbasbasbag57
(g73
g59
NtRp1687
(dp1688
g62
(dp1689
sg71
g1417
sg64
(lp1690
g57
(g78
g59
NtRp1691
(dp1692
g62
(dp1693
g82
g83
ssg71
g1687
sg64
(lp1694
S'http_cookie'
p1695
asbag57
(g78
g59
NtRp1696
(dp1697
g62
(dp1698
g89
g90
ssg71
g1687
sg64
(lp1699
S':'
asbag57
(g78
g59
NtRp1700
(dp1701
g62
(dp1702
sg71
g1687
sg64
(lp1703
g57
(g58
g59
NtRp1704
(dp1705
g62
(dp1706
g70
I4
ssg71
g1700
sg64
(lp1707
S'csrftoken=a9lCt5w7Q4OG437IZNwjtNB3YEdWYXWm; session_id_admin=127.0.0.1-e6c203e9-d008-4610-8523-5a0e93da9abb; session_id_welcome=127.0.0.1-2837c0cc-fb0c-4598-b75f-5727d328e2ad; session_id_readit=127.0.0.1-e391c20a-8d22-4e6d-a1c8-f85c00f99b3d; session_id_isas=127.0.0.1-46261fb6-868f-4eb5-ae61-7251ec9ac039; session_id_garbage_truck=127.0.0.1-eb5e8630-3789-44cf-90c0-4c0a37fc535a'
p1708
asbasbasbag57
(g73
g59
NtRp1709
(dp1710
g62
(dp1711
sg71
g1417
sg64
(lp1712
g57
(g78
g59
NtRp1713
(dp1714
g62
(dp1715
g82
g83
ssg71
g1709
sg64
(lp1716
S'http_dnt'
p1717
asbag57
(g78
g59
NtRp1718
(dp1719
g62
(dp1720
g89
g90
ssg71
g1709
sg64
(lp1721
S':'
asbag57
(g78
g59
NtRp1722
(dp1723
g62
(dp1724
sg71
g1709
sg64
(lp1725
g57
(g58
g59
NtRp1726
(dp1727
g62
(dp1728
g70
I4
ssg71
g1722
sg64
(lp1729
S'1'
asbasbasbag57
(g73
g59
NtRp1730
(dp1731
g62
(dp1732
sg71
g1417
sg64
(lp1733
g57
(g78
g59
NtRp1734
(dp1735
g62
(dp1736
g82
g83
ssg71
g1730
sg64
(lp1737
S'http_host'
p1738
asbag57
(g78
g59
NtRp1739
(dp1740
g62
(dp1741
g89
g90
ssg71
g1730
sg64
(lp1742
S':'
asbag57
(g78
g59
NtRp1743
(dp1744
g62
(dp1745
sg71
g1730
sg64
(lp1746
g57
(g58
g59
NtRp1747
(dp1748
g62
(dp1749
g70
I4
ssg71
g1743
sg64
(lp1750
S'127.0.0.1:8000'
p1751
asbasbasbag57
(g73
g59
NtRp1752
(dp1753
g62
(dp1754
sg71
g1417
sg64
(lp1755
g57
(g78
g59
NtRp1756
(dp1757
g62
(dp1758
g82
g83
ssg71
g1752
sg64
(lp1759
S'http_referer'
p1760
asbag57
(g78
g59
NtRp1761
(dp1762
g62
(dp1763
g89
g90
ssg71
g1752
sg64
(lp1764
S':'
asbag57
(g78
g59
NtRp1765
(dp1766
g62
(dp1767
sg71
g1752
sg64
(lp1768
g57
(g58
g59
NtRp1769
(dp1770
g62
(dp1771
g70
I4
ssg71
g1765
sg64
(lp1772
S'http://127.0.0.1:8000/Garbage_Truck/default/request_reservior_view'
p1773
asbasbasbag57
(g73
g59
NtRp1774
(dp1775
g62
(dp1776
sg71
g1417
sg64
(lp1777
g57
(g78
g59
NtRp1778
(dp1779
g62
(dp1780
g82
g83
ssg71
g1774
sg64
(lp1781
S'http_user_agent'
p1782
asbag57
(g78
g59
NtRp1783
(dp1784
g62
(dp1785
g89
g90
ssg71
g1774
sg64
(lp1786
S':'
asbag57
(g78
g59
NtRp1787
(dp1788
g62
(dp1789
sg71
g1774
sg64
(lp1790
g57
(g58
g59
NtRp1791
(dp1792
g62
(dp1793
g70
I4
ssg71
g1787
sg64
(lp1794
S'Mozilla/5.0 (X11; Ubuntu; Linux x86_64; rv:32.0) Gecko/20100101 Firefox/32.0'
p1795
asbasbasbag57
(g73
g59
NtRp1796
(dp1797
g62
(dp1798
sg71
g1417
sg64
(lp1799
g57
(g78
g59
NtRp1800
(dp1801
g62
(dp1802
g82
g83
ssg71
g1796
sg64
(lp1803
S'is_jython'
p1804
asbag57
(g78
g59
NtRp1805
(dp1806
g62
(dp1807
g89
g90
ssg71
g1796
sg64
(lp1808
S':'
asbag57
(g78
g59
NtRp1809
(dp1810
g62
(dp1811
sg71
g1796
sg64
(lp1812
g57
(g58
g59
NtRp1813
(dp1814
g62
(dp1815
g70
I4
ssg71
g1809
sg64
(lp1816
g100
asbasbasbag57
(g73
g59
NtRp1817
(dp1818
g62
(dp1819
sg71
g1417
sg64
(lp1820
g57
(g78
g59
NtRp1821
(dp1822
g62
(dp1823
g82
g83
ssg71
g1817
sg64
(lp1824
S'is_pypy'
p1825
asbag57
(g78
g59
NtRp1826
(dp1827
g62
(dp1828
g89
g90
ssg71
g1817
sg64
(lp1829
S':'
asbag57
(g78
g59
NtRp1830
(dp1831
g62
(dp1832
sg71
g1817
sg64
(lp1833
g57
(g58
g59
NtRp1834
(dp1835
g62
(dp1836
g70
I4
ssg71
g1830
sg64
(lp1837
g100
asbasbasbag57
(g73
g59
NtRp1838
(dp1839
g62
(dp1840
sg71
g1417
sg64
(lp1841
g57
(g78
g59
NtRp1842
(dp1843
g62
(dp1844
g82
g83
ssg71
g1838
sg64
(lp1845
S'local_hosts'
p1846
asbag57
(g78
g59
NtRp1847
(dp1848
g62
(dp1849
g89
g90
ssg71
g1838
sg64
(lp1850
S':'
asbag57
(g78
g59
NtRp1851
(dp1852
g62
(dp1853
sg71
g1838
sg64
(lp1854
g57
(g58
g59
NtRp1855
(dp1856
g62
(dp1857
g70
I4
ssg71
g1851
sg64
(lp1858
g57
(g66
g59
NtRp1859
(dp1860
g62
(dp1861
g70
I3
ssg71
Nsg64
(lp1862
g57
(g73
g59
NtRp1863
(dp1864
g62
(dp1865
sg71
g1859
sg64
(lp1866
g57
(g78
g59
NtRp1867
(dp1868
g62
(dp1869
sg71
g1863
sg64
(lp1870
g57
(g58
g59
NtRp1871
(dp1872
g62
(dp1873
g70
I3
ssg71
g1867
sg64
(lp1874
S'::1'
p1875
asbasbasbag57
(g73
g59
NtRp1876
(dp1877
g62
(dp1878
sg71
g1859
sg64
(lp1879
g57
(g78
g59
NtRp1880
(dp1881
g62
(dp1882
sg71
g1876
sg64
(lp1883
g57
(g58
g59
NtRp1884
(dp1885
g62
(dp1886
g70
I3
ssg71
g1880
sg64
(lp1887
S'127.0.1.1'
p1888
asbasbasbag57
(g73
g59
NtRp1889
(dp1890
g62
(dp1891
sg71
g1859
sg64
(lp1892
g57
(g78
g59
NtRp1893
(dp1894
g62
(dp1895
sg71
g1889
sg64
(lp1896
g57
(g58
g59
NtRp1897
(dp1898
g62
(dp1899
g70
I3
ssg71
g1893
sg64
(lp1900
S'darshan-Inspiron-5520'
p1901
asbasbasbag57
(g73
g59
NtRp1902
(dp1903
g62
(dp1904
sg71
g1859
sg64
(lp1905
g57
(g78
g59
NtRp1906
(dp1907
g62
(dp1908
sg71
g1902
sg64
(lp1909
g57
(g58
g59
NtRp1910
(dp1911
g62
(dp1912
g70
I3
ssg71
g1906
sg64
(lp1913
S'::ffff:127.0.0.1'
p1914
asbasbasbag57
(g73
g59
NtRp1915
(dp1916
g62
(dp1917
sg71
g1859
sg64
(lp1918
g57
(g78
g59
NtRp1919
(dp1920
g62
(dp1921
sg71
g1915
sg64
(lp1922
g57
(g58
g59
NtRp1923
(dp1924
g62
(dp1925
g70
I3
ssg71
g1919
sg64
(lp1926
S'127.0.0.1'
p1927
asbasbasbasbasbasbasbag57
(g73
g59
NtRp1928
(dp1929
g62
(dp1930
sg71
g1417
sg64
(lp1931
g57
(g78
g59
NtRp1932
(dp1933
g62
(dp1934
g82
g83
ssg71
g1928
sg64
(lp1935
S'path_info'
p1936
asbag57
(g78
g59
NtRp1937
(dp1938
g62
(dp1939
g89
g90
ssg71
g1928
sg64
(lp1940
S':'
asbag57
(g78
g59
NtRp1941
(dp1942
g62
(dp1943
sg71
g1928
sg64
(lp1944
g57
(g58
g59
NtRp1945
(dp1946
g62
(dp1947
g70
I4
ssg71
g1941
sg64
(lp1948
S'/Garbage_Truck/default/edit_status/1'
p1949
asbasbasbag57
(g73
g59
NtRp1950
(dp1951
g62
(dp1952
sg71
g1417
sg64
(lp1953
g57
(g78
g59
NtRp1954
(dp1955
g62
(dp1956
g82
g83
ssg71
g1950
sg64
(lp1957
S'query_string'
p1958
asbag57
(g78
g59
NtRp1959
(dp1960
g62
(dp1961
g89
g90
ssg71
g1950
sg64
(lp1962
S':'
asbag57
(g78
g59
NtRp1963
(dp1964
g62
(dp1965
sg71
g1950
sg64
(lp1966
g57
(g58
g59
NtRp1967
(dp1968
g62
(dp1969
g70
I4
ssg71
g1963
sg64
(lp1970
S''
asbasbasbag57
(g73
g59
NtRp1971
(dp1972
g62
(dp1973
sg71
g1417
sg64
(lp1974
g57
(g78
g59
NtRp1975
(dp1976
g62
(dp1977
g82
g83
ssg71
g1971
sg64
(lp1978
S'remote_addr'
p1979
asbag57
(g78
g59
NtRp1980
(dp1981
g62
(dp1982
g89
g90
ssg71
g1971
sg64
(lp1983
S':'
asbag57
(g78
g59
NtRp1984
(dp1985
g62
(dp1986
sg71
g1971
sg64
(lp1987
g57
(g58
g59
NtRp1988
(dp1989
g62
(dp1990
g70
I4
ssg71
g1984
sg64
(lp1991
g224
asbasbasbag57
(g73
g59
NtRp1992
(dp1993
g62
(dp1994
sg71
g1417
sg64
(lp1995
g57
(g78
g59
NtRp1996
(dp1997
g62
(dp1998
g82
g83
ssg71
g1992
sg64
(lp1999
S'remote_port'
p2000
asbag57
(g78
g59
NtRp2001
(dp2002
g62
(dp2003
g89
g90
ssg71
g1992
sg64
(lp2004
S':'
asbag57
(g78
g59
NtRp2005
(dp2006
g62
(dp2007
sg71
g1992
sg64
(lp2008
g57
(g58
g59
NtRp2009
(dp2010
g62
(dp2011
g70
I4
ssg71
g2005
sg64
(lp2012
S'34780'
p2013
asbasbasbag57
(g73
g59
NtRp2014
(dp2015
g62
(dp2016
sg71
g1417
sg64
(lp2017
g57
(g78
g59
NtRp2018
(dp2019
g62
(dp2020
g82
g83
ssg71
g2014
sg64
(lp2021
S'request_method'
p2022
asbag57
(g78
g59
NtRp2023
(dp2024
g62
(dp2025
g89
g90
ssg71
g2014
sg64
(lp2026
S':'
asbag57
(g78
g59
NtRp2027
(dp2028
g62
(dp2029
sg71
g2014
sg64
(lp2030
g57
(g58
g59
NtRp2031
(dp2032
g62
(dp2033
g70
I4
ssg71
g2027
sg64
(lp2034
S'GET'
p2035
asbasbasbag57
(g73
g59
NtRp2036
(dp2037
g62
(dp2038
sg71
g1417
sg64
(lp2039
g57
(g78
g59
NtRp2040
(dp2041
g62
(dp2042
g82
g83
ssg71
g2036
sg64
(lp2043
S'request_uri'
p2044
asbag57
(g78
g59
NtRp2045
(dp2046
g62
(dp2047
g89
g90
ssg71
g2036
sg64
(lp2048
S':'
asbag57
(g78
g59
NtRp2049
(dp2050
g62
(dp2051
sg71
g2036
sg64
(lp2052
g57
(g58
g59
NtRp2053
(dp2054
g62
(dp2055
g70
I4
ssg71
g2049
sg64
(lp2056
g1949
asbasbasbag57
(g73
g59
NtRp2057
(dp2058
g62
(dp2059
sg71
g1417
sg64
(lp2060
g57
(g78
g59
NtRp2061
(dp2062
g62
(dp2063
g82
g83
ssg71
g2057
sg64
(lp2064
S'script_name'
p2065
asbag57
(g78
g59
NtRp2066
(dp2067
g62
(dp2068
g89
g90
ssg71
g2057
sg64
(lp2069
S':'
asbag57
(g78
g59
NtRp2070
(dp2071
g62
(dp2072
sg71
g2057
sg64
(lp2073
g57
(g58
g59
NtRp2074
(dp2075
g62
(dp2076
g70
I4
ssg71
g2070
sg64
(lp2077
S''
asbasbasbag57
(g73
g59
NtRp2078
(dp2079
g62
(dp2080
sg71
g1417
sg64
(lp2081
g57
(g78
g59
NtRp2082
(dp2083
g62
(dp2084
g82
g83
ssg71
g2078
sg64
(lp2085
S'server_name'
p2086
asbag57
(g78
g59
NtRp2087
(dp2088
g62
(dp2089
g89
g90
ssg71
g2078
sg64
(lp2090
S':'
asbag57
(g78
g59
NtRp2091
(dp2092
g62
(dp2093
sg71
g2078
sg64
(lp2094
g57
(g58
g59
NtRp2095
(dp2096
g62
(dp2097
g70
I4
ssg71
g2091
sg64
(lp2098
S'darshan-Inspiron-5520'
p2099
asbasbasbag57
(g73
g59
NtRp2100
(dp2101
g62
(dp2102
sg71
g1417
sg64
(lp2103
g57
(g78
g59
NtRp2104
(dp2105
g62
(dp2106
g82
g83
ssg71
g2100
sg64
(lp2107
S'server_port'
p2108
asbag57
(g78
g59
NtRp2109
(dp2110
g62
(dp2111
g89
g90
ssg71
g2100
sg64
(lp2112
S':'
asbag57
(g78
g59
NtRp2113
(dp2114
g62
(dp2115
sg71
g2100
sg64
(lp2116
g57
(g58
g59
NtRp2117
(dp2118
g62
(dp2119
g70
I4
ssg71
g2113
sg64
(lp2120
S'8000'
p2121
asbasbasbag57
(g73
g59
NtRp2122
(dp2123
g62
(dp2124
sg71
g1417
sg64
(lp2125
g57
(g78
g59
NtRp2126
(dp2127
g62
(dp2128
g82
g83
ssg71
g2122
sg64
(lp2129
S'server_protocol'
p2130
asbag57
(g78
g59
NtRp2131
(dp2132
g62
(dp2133
g89
g90
ssg71
g2122
sg64
(lp2134
S':'
asbag57
(g78
g59
NtRp2135
(dp2136
g62
(dp2137
sg71
g2122
sg64
(lp2138
g57
(g58
g59
NtRp2139
(dp2140
g62
(dp2141
g70
I4
ssg71
g2135
sg64
(lp2142
S'HTTP/1.1'
p2143
asbasbasbag57
(g73
g59
NtRp2144
(dp2145
g62
(dp2146
sg71
g1417
sg64
(lp2147
g57
(g78
g59
NtRp2148
(dp2149
g62
(dp2150
g82
g83
ssg71
g2144
sg64
(lp2151
S'server_software'
p2152
asbag57
(g78
g59
NtRp2153
(dp2154
g62
(dp2155
g89
g90
ssg71
g2144
sg64
(lp2156
S':'
asbag57
(g78
g59
NtRp2157
(dp2158
g62
(dp2159
sg71
g2144
sg64
(lp2160
g57
(g58
g59
NtRp2161
(dp2162
g62
(dp2163
g70
I4
ssg71
g2157
sg64
(lp2164
S'Rocket 1.2.6'
p2165
asbasbasbag57
(g73
g59
NtRp2166
(dp2167
g62
(dp2168
sg71
g1417
sg64
(lp2169
g57
(g78
g59
NtRp2170
(dp2171
g62
(dp2172
g82
g83
ssg71
g2166
sg64
(lp2173
S'web2py_path'
p2174
asbag57
(g78
g59
NtRp2175
(dp2176
g62
(dp2177
g89
g90
ssg71
g2166
sg64
(lp2178
S':'
asbag57
(g78
g59
NtRp2179
(dp2180
g62
(dp2181
sg71
g2166
sg64
(lp2182
g57
(g58
g59
NtRp2183
(dp2184
g62
(dp2185
g70
I4
ssg71
g2179
sg64
(lp2186
g1464
asbasbasbag57
(g73
g59
NtRp2187
(dp2188
g62
(dp2189
sg71
g1417
sg64
(lp2190
g57
(g78
g59
NtRp2191
(dp2192
g62
(dp2193
g82
g83
ssg71
g2187
sg64
(lp2194
S'web2py_version'
p2195
asbag57
(g78
g59
NtRp2196
(dp2197
g62
(dp2198
g89
g90
ssg71
g2187
sg64
(lp2199
S':'
asbag57
(g78
g59
NtRp2200
(dp2201
g62
(dp2202
sg71
g2187
sg64
(lp2203
g57
(g58
g59
NtRp2204
(dp2205
g62
(dp2206
g70
I4
ssg71
g2200
sg64
(lp2207
g57
(g66
g59
NtRp2208
(dp2209
g62
(dp2210
g70
I3
ssg71
Nsg64
(lp2211
g57
(g73
g59
NtRp2212
(dp2213
g62
(dp2214
sg71
g2208
sg64
(lp2215
g57
(g78
g59
NtRp2216
(dp2217
g62
(dp2218
sg71
g2212
sg64
(lp2219
g57
(g58
g59
NtRp2220
(dp2221
g62
(dp2222
g70
I3
ssg71
g2216
sg64
(lp2223
S'2'
asbasbasbag57
(g73
g59
NtRp2224
(dp2225
g62
(dp2226
sg71
g2208
sg64
(lp2227
g57
(g78
g59
NtRp2228
(dp2229
g62
(dp2230
sg71
g2224
sg64
(lp2231
g57
(g58
g59
NtRp2232
(dp2233
g62
(dp2234
g70
I3
ssg71
g2228
sg64
(lp2235
S'3'
asbasbasbag57
(g73
g59
NtRp2236
(dp2237
g62
(dp2238
sg71
g2208
sg64
(lp2239
g57
(g78
g59
NtRp2240
(dp2241
g62
(dp2242
sg71
g2236
sg64
(lp2243
g57
(g58
g59
NtRp2244
(dp2245
g62
(dp2246
g70
I3
ssg71
g2240
sg64
(lp2247
S'2'
asbasbasbag57
(g73
g59
NtRp2248
(dp2249
g62
(dp2250
sg71
g2208
sg64
(lp2251
g57
(g78
g59
NtRp2252
(dp2253
g62
(dp2254
sg71
g2248
sg64
(lp2255
g57
(g58
g59
NtRp2256
(dp2257
g62
(dp2258
g70
I3
ssg71
g2252
sg64
(lp2259
S'datetime.datetime(2012, 12, 17, 15, 3, 30)'
p2260
asbasbasbag57
(g73
g59
NtRp2261
(dp2262
g62
(dp2263
sg71
g2208
sg64
(lp2264
g57
(g78
g59
NtRp2265
(dp2266
g62
(dp2267
sg71
g2261
sg64
(lp2268
g57
(g58
g59
NtRp2269
(dp2270
g62
(dp2271
g70
I3
ssg71
g2265
sg64
(lp2272
S'stable'
p2273
asbasbasbasbasbasbasbag57
(g73
g59
NtRp2274
(dp2275
g62
(dp2276
sg71
g1417
sg64
(lp2277
g57
(g78
g59
NtRp2278
(dp2279
g62
(dp2280
g82
g83
ssg71
g2274
sg64
(lp2281
S'wsgi_errors'
p2282
asbag57
(g78
g59
NtRp2283
(dp2284
g62
(dp2285
g89
g90
ssg71
g2274
sg64
(lp2286
S':'
asbag57
(g78
g59
NtRp2287
(dp2288
g62
(dp2289
sg71
g2274
sg64
(lp2290
g57
(g58
g59
NtRp2291
(dp2292
g62
(dp2293
g70
I4
ssg71
g2287
sg64
(lp2294
S"<open file '<stderr>', mode 'w' at 0x7f92c1bb41e0>"
p2295
asbasbasbag57
(g73
g59
NtRp2296
(dp2297
g62
(dp2298
sg71
g1417
sg64
(lp2299
g57
(g78
g59
NtRp2300
(dp2301
g62
(dp2302
g82
g83
ssg71
g2296
sg64
(lp2303
S'wsgi_file_wrapper'
p2304
asbag57
(g78
g59
NtRp2305
(dp2306
g62
(dp2307
g89
g90
ssg71
g2296
sg64
(lp2308
S':'
asbag57
(g78
g59
NtRp2309
(dp2310
g62
(dp2311
sg71
g2296
sg64
(lp2312
g57
(g58
g59
NtRp2313
(dp2314
g62
(dp2315
g70
I4
ssg71
g2309
sg64
(lp2316
S'<class wsgiref.util.FileWrapper at 0x7f92bab98808>'
p2317
asbasbasbag57
(g73
g59
NtRp2318
(dp2319
g62
(dp2320
sg71
g1417
sg64
(lp2321
g57
(g78
g59
NtRp2322
(dp2323
g62
(dp2324
g82
g83
ssg71
g2318
sg64
(lp2325
S'wsgi_input'
p2326
asbag57
(g78
g59
NtRp2327
(dp2328
g62
(dp2329
g89
g90
ssg71
g2318
sg64
(lp2330
S':'
asbag57
(g78
g59
NtRp2331
(dp2332
g62
(dp2333
sg71
g2318
sg64
(lp2334
g57
(g58
g59
NtRp2335
(dp2336
g62
(dp2337
g70
I4
ssg71
g2331
sg64
(lp2338
S'<socket._fileobject object at 0x7f9288f88ed0>'
p2339
asbasbasbag57
(g73
g59
NtRp2340
(dp2341
g62
(dp2342
sg71
g1417
sg64
(lp2343
g57
(g78
g59
NtRp2344
(dp2345
g62
(dp2346
g82
g83
ssg71
g2340
sg64
(lp2347
S'wsgi_multiprocess'
p2348
asbag57
(g78
g59
NtRp2349
(dp2350
g62
(dp2351
g89
g90
ssg71
g2340
sg64
(lp2352
S':'
asbag57
(g78
g59
NtRp2353
(dp2354
g62
(dp2355
sg71
g2340
sg64
(lp2356
g57
(g58
g59
NtRp2357
(dp2358
g62
(dp2359
g70
I4
ssg71
g2353
sg64
(lp2360
g100
asbasbasbag57
(g73
g59
NtRp2361
(dp2362
g62
(dp2363
sg71
g1417
sg64
(lp2364
g57
(g78
g59
NtRp2365
(dp2366
g62
(dp2367
g82
g83
ssg71
g2361
sg64
(lp2368
S'wsgi_multithread'
p2369
asbag57
(g78
g59
NtRp2370
(dp2371
g62
(dp2372
g89
g90
ssg71
g2361
sg64
(lp2373
S':'
asbag57
(g78
g59
NtRp2374
(dp2375
g62
(dp2376
sg71
g2361
sg64
(lp2377
g57
(g58
g59
NtRp2378
(dp2379
g62
(dp2380
g70
I4
ssg71
g2374
sg64
(lp2381
S'True'
p2382
asbasbasbag57
(g73
g59
NtRp2383
(dp2384
g62
(dp2385
sg71
g1417
sg64
(lp2386
g57
(g78
g59
NtRp2387
(dp2388
g62
(dp2389
g82
g83
ssg71
g2383
sg64
(lp2390
S'wsgi_run_once'
p2391
asbag57
(g78
g59
NtRp2392
(dp2393
g62
(dp2394
g89
g90
ssg71
g2383
sg64
(lp2395
S':'
asbag57
(g78
g59
NtRp2396
(dp2397
g62
(dp2398
sg71
g2383
sg64
(lp2399
g57
(g58
g59
NtRp2400
(dp2401
g62
(dp2402
g70
I4
ssg71
g2396
sg64
(lp2403
g100
asbasbasbag57
(g73
g59
NtRp2404
(dp2405
g62
(dp2406
sg71
g1417
sg64
(lp2407
g57
(g78
g59
NtRp2408
(dp2409
g62
(dp2410
g82
g83
ssg71
g2404
sg64
(lp2411
S'wsgi_url_scheme'
p2412
asbag57
(g78
g59
NtRp2413
(dp2414
g62
(dp2415
g89
g90
ssg71
g2404
sg64
(lp2416
S':'
asbag57
(g78
g59
NtRp2417
(dp2418
g62
(dp2419
sg71
g2404
sg64
(lp2420
g57
(g58
g59
NtRp2421
(dp2422
g62
(dp2423
g70
I4
ssg71
g2417
sg64
(lp2424
S'http'
p2425
asbasbasbag57
(g73
g59
NtRp2426
(dp2427
g62
(dp2428
sg71
g1417
sg64
(lp2429
g57
(g78
g59
NtRp2430
(dp2431
g62
(dp2432
g82
g83
ssg71
g2426
sg64
(lp2433
S'wsgi_version'
p2434
asbag57
(g78
g59
NtRp2435
(dp2436
g62
(dp2437
g89
g90
ssg71
g2426
sg64
(lp2438
S':'
asbag57
(g78
g59
NtRp2439
(dp2440
g62
(dp2441
sg71
g2426
sg64
(lp2442
g57
(g58
g59
NtRp2443
(dp2444
g62
(dp2445
g70
I4
ssg71
g2439
sg64
(lp2446
g57
(g66
g59
NtRp2447
(dp2448
g62
(dp2449
g70
I3
ssg71
Nsg64
(lp2450
g57
(g73
g59
NtRp2451
(dp2452
g62
(dp2453
sg71
g2447
sg64
(lp2454
g57
(g78
g59
NtRp2455
(dp2456
g62
(dp2457
sg71
g2451
sg64
(lp2458
g57
(g58
g59
NtRp2459
(dp2460
g62
(dp2461
g70
I3
ssg71
g2455
sg64
(lp2462
S'1'
asbasbasbag57
(g73
g59
NtRp2463
(dp2464
g62
(dp2465
sg71
g2447
sg64
(lp2466
g57
(g78
g59
NtRp2467
(dp2468
g62
(dp2469
sg71
g2463
sg64
(lp2470
g57
(g58
g59
NtRp2471
(dp2472
g62
(dp2473
g70
I3
ssg71
g2467
sg64
(lp2474
S'0'
asbasbasbasbasbasbasbasbasbasbasbag57
(g73
g59
NtRp2475
(dp2476
g62
(dp2477
sg71
g67
sg64
(lp2478
g57
(g78
g59
NtRp2479
(dp2480
g62
(dp2481
g82
g83
ssg71
g2475
sg64
(lp2482
S'extension'
p2483
asbag57
(g78
g59
NtRp2484
(dp2485
g62
(dp2486
g89
g90
ssg71
g2475
sg64
(lp2487
S':'
asbag57
(g78
g59
NtRp2488
(dp2489
g62
(dp2490
sg71
g2475
sg64
(lp2491
g57
(g58
g59
NtRp2492
(dp2493
g62
(dp2494
g70
I5
ssg71
g2488
sg64
(lp2495
S'html'
p2496
asbasbasbag57
(g73
g59
NtRp2497
(dp2498
g62
(dp2499
sg71
g67
sg64
(lp2500
g57
(g78
g59
NtRp2501
(dp2502
g62
(dp2503
g82
g83
ssg71
g2497
sg64
(lp2504
S'folder'
p2505
asbag57
(g78
g59
NtRp2506
(dp2507
g62
(dp2508
g89
g90
ssg71
g2497
sg64
(lp2509
S':'
asbag57
(g78
g59
NtRp2510
(dp2511
g62
(dp2512
sg71
g2497
sg64
(lp2513
g57
(g58
g59
NtRp2514
(dp2515
g62
(dp2516
g70
I5
ssg71
g2510
sg64
(lp2517
S'/home/darshan/web2py/applications/Garbage_Truck/'
p2518
asbasbasbag57
(g73
g59
NtRp2519
(dp2520
g62
(dp2521
sg71
g67
sg64
(lp2522
g57
(g78
g59
NtRp2523
(dp2524
g62
(dp2525
g82
g83
ssg71
g2519
sg64
(lp2526
S'function'
p2527
asbag57
(g78
g59
NtRp2528
(dp2529
g62
(dp2530
g89
g90
ssg71
g2519
sg64
(lp2531
S':'
asbag57
(g78
g59
NtRp2532
(dp2533
g62
(dp2534
sg71
g2519
sg64
(lp2535
g57
(g58
g59
NtRp2536
(dp2537
g62
(dp2538
g70
I5
ssg71
g2532
sg64
(lp2539
S'edit_status'
p2540
asbasbasbag57
(g73
g59
NtRp2541
(dp2542
g62
(dp2543
sg71
g67
sg64
(lp2544
g57
(g78
g59
NtRp2545
(dp2546
g62
(dp2547
g82
g83
ssg71
g2541
sg64
(lp2548
S'get_vars'
p2549
asbag57
(g78
g59
NtRp2550
(dp2551
g62
(dp2552
g89
g90
ssg71
g2541
sg64
(lp2553
S':'
asbag57
(g78
g59
NtRp2554
(dp2555
g62
(dp2556
sg71
g2541
sg64
(lp2557
g57
(g58
g59
NtRp2558
(dp2559
g62
(dp2560
g70
I5
ssg71
g2554
sg64
(lp2561
g57
(g66
g59
NtRp2562
(dp2563
g62
(dp2564
g70
I4
ssg71
Nsg64
(lp2565
sbasbasbasbag57
(g73
g59
NtRp2566
(dp2567
g62
(dp2568
sg71
g67
sg64
(lp2569
g57
(g78
g59
NtRp2570
(dp2571
g62
(dp2572
g82
g83
ssg71
g2566
sg64
(lp2573
S'global_settings'
p2574
asbag57
(g78
g59
NtRp2575
(dp2576
g62
(dp2577
g89
g90
ssg71
g2566
sg64
(lp2578
S':'
asbag57
(g78
g59
NtRp2579
(dp2580
g62
(dp2581
sg71
g2566
sg64
(lp2582
g57
(g58
g59
NtRp2583
(dp2584
g62
(dp2585
g70
I5
ssg71
g2579
sg64
(lp2586
g57
(g66
g59
NtRp2587
(dp2588
g62
(dp2589
g70
I4
ssg71
Nsg64
(lp2590
g57
(g73
g59
NtRp2591
(dp2592
g62
(dp2593
sg71
g2587
sg64
(lp2594
g57
(g78
g59
NtRp2595
(dp2596
g62
(dp2597
g82
g83
ssg71
g2591
sg64
(lp2598
g1429
asbag57
(g78
g59
NtRp2599
(dp2600
g62
(dp2601
g89
g90
ssg71
g2591
sg64
(lp2602
S':'
asbag57
(g78
g59
NtRp2603
(dp2604
g62
(dp2605
sg71
g2591
sg64
(lp2606
g57
(g58
g59
NtRp2607
(dp2608
g62
(dp2609
g70
I4
ssg71
g2603
sg64
(lp2610
S"set(['/home/darshan/web2py/applications/Isas/', '/home/darshan/web2py/applications/examples/', '/home/darshan/web2py/applications/readit/', '/home/darshan/web2py/applications/admin/', '/home/darshan/web2py/applications/Garbage_Truck/', '/home/darshan/web2py/applications/welcome/', '/home/darshan/web2py/applications/isas/'])"
p2611
asbasbasbag57
(g73
g59
NtRp2612
(dp2613
g62
(dp2614
sg71
g2587
sg64
(lp2615
g57
(g78
g59
NtRp2616
(dp2617
g62
(dp2618
g82
g83
ssg71
g2612
sg64
(lp2619
g1451
asbag57
(g78
g59
NtRp2620
(dp2621
g62
(dp2622
g89
g90
ssg71
g2612
sg64
(lp2623
S':'
asbag57
(g78
g59
NtRp2624
(dp2625
g62
(dp2626
sg71
g2612
sg64
(lp2627
g57
(g58
g59
NtRp2628
(dp2629
g62
(dp2630
g70
I4
ssg71
g2624
sg64
(lp2631
g1464
asbasbasbag57
(g73
g59
NtRp2632
(dp2633
g62
(dp2634
sg71
g2587
sg64
(lp2635
g57
(g78
g59
NtRp2636
(dp2637
g62
(dp2638
g82
g83
ssg71
g2632
sg64
(lp2639
g1473
asbag57
(g78
g59
NtRp2640
(dp2641
g62
(dp2642
g89
g90
ssg71
g2632
sg64
(lp2643
S':'
asbag57
(g78
g59
NtRp2644
(dp2645
g62
(dp2646
sg71
g2632
sg64
(lp2647
g57
(g58
g59
NtRp2648
(dp2649
g62
(dp2650
g70
I4
ssg71
g2644
sg64
(lp2651
g57
(g66
g59
NtRp2652
(dp2653
g62
(dp2654
g70
I3
ssg71
Nsg64
(lp2655
sbasbasbasbag57
(g73
g59
NtRp2656
(dp2657
g62
(dp2658
sg71
g2587
sg64
(lp2659
g57
(g78
g59
NtRp2660
(dp2661
g62
(dp2662
g82
g83
ssg71
g2656
sg64
(lp2663
g1498
asbag57
(g78
g59
NtRp2664
(dp2665
g62
(dp2666
g89
g90
ssg71
g2656
sg64
(lp2667
S':'
asbag57
(g78
g59
NtRp2668
(dp2669
g62
(dp2670
sg71
g2656
sg64
(lp2671
g57
(g58
g59
NtRp2672
(dp2673
g62
(dp2674
g70
I4
ssg71
g2668
sg64
(lp2675
S"<Values at 0x7f92baaf7f80: {'verbose': False, 'ip': '127.0.0.1', 'with_scheduler': False, 'ips': [], 'shutdown_timeout': 5, 'taskbar': False, 'port': 8000, 'maxthreads': None, 'softcron': False, 'server_name': 'darshan-Inspiron-5520', 'bpython': False, 'nogui': False, 'pid_filename': 'httpserver.pid', 'extcron': False, 'runcron': False, 'run_system_tests': False, 'test': None, 'folder': '/home/darshan/web2py', 'config': '', 'minthreads': None, 'winservice': '', 'shell': None, 'run': '', 'log_filename': 'httpserver.log', 'debuglevel': 30, 'args': [''], 'socket_timeout': 5, 'ssl_ca_certificate': None, 'scheduler': None, 'profiler_filename': None, 'ssl_private_key': '', 'scheduler_groups': None, 'password': '<ask>', 'request_queue_size': 5, 'ssl_certificate': '', 'cronjob': False, 'numthreads': None, 'quiet': False, 'interfaces': None, 'import_models': False, 'timeout': 10, 'plain': False, 'nobanner': False}>"
p2676
asbasbasbag57
(g73
g59
NtRp2677
(dp2678
g62
(dp2679
sg71
g2587
sg64
(lp2680
g57
(g78
g59
NtRp2681
(dp2682
g62
(dp2683
g82
g83
ssg71
g2677
sg64
(lp2684
g1520
asbag57
(g78
g59
NtRp2685
(dp2686
g62
(dp2687
g89
g90
ssg71
g2677
sg64
(lp2688
S':'
asbag57
(g78
g59
NtRp2689
(dp2690
g62
(dp2691
sg71
g2677
sg64
(lp2692
g57
(g58
g59
NtRp2693
(dp2694
g62
(dp2695
g70
I4
ssg71
g2689
sg64
(lp2696
S'set([])'
p2697
asbasbasbag57
(g73
g59
NtRp2698
(dp2699
g62
(dp2700
sg71
g2587
sg64
(lp2701
g57
(g78
g59
NtRp2702
(dp2703
g62
(dp2704
g82
g83
ssg71
g2698
sg64
(lp2705
g1542
asbag57
(g78
g59
NtRp2706
(dp2707
g62
(dp2708
g89
g90
ssg71
g2698
sg64
(lp2709
S':'
asbag57
(g78
g59
NtRp2710
(dp2711
g62
(dp2712
sg71
g2698
sg64
(lp2713
g57
(g58
g59
NtRp2714
(dp2715
g62
(dp2716
g70
I4
ssg71
g2710
sg64
(lp2717
g100
asbasbasbag57
(g73
g59
NtRp2718
(dp2719
g62
(dp2720
sg71
g2587
sg64
(lp2721
g57
(g78
g59
NtRp2722
(dp2723
g62
(dp2724
g82
g83
ssg71
g2718
sg64
(lp2725
g1563
asbag57
(g78
g59
NtRp2726
(dp2727
g62
(dp2728
g89
g90
ssg71
g2718
sg64
(lp2729
S':'
asbag57
(g78
g59
NtRp2730
(dp2731
g62
(dp2732
sg71
g2718
sg64
(lp2733
g57
(g58
g59
NtRp2734
(dp2735
g62
(dp2736
g70
I4
ssg71
g2730
sg64
(lp2737
g1576
asbasbasbag57
(g73
g59
NtRp2738
(dp2739
g62
(dp2740
sg71
g2587
sg64
(lp2741
g57
(g78
g59
NtRp2742
(dp2743
g62
(dp2744
g82
g83
ssg71
g2738
sg64
(lp2745
g1804
asbag57
(g78
g59
NtRp2746
(dp2747
g62
(dp2748
g89
g90
ssg71
g2738
sg64
(lp2749
S':'
asbag57
(g78
g59
NtRp2750
(dp2751
g62
(dp2752
sg71
g2738
sg64
(lp2753
g57
(g58
g59
NtRp2754
(dp2755
g62
(dp2756
g70
I4
ssg71
g2750
sg64
(lp2757
g100
asbasbasbag57
(g73
g59
NtRp2758
(dp2759
g62
(dp2760
sg71
g2587
sg64
(lp2761
g57
(g78
g59
NtRp2762
(dp2763
g62
(dp2764
g82
g83
ssg71
g2758
sg64
(lp2765
g1825
asbag57
(g78
g59
NtRp2766
(dp2767
g62
(dp2768
g89
g90
ssg71
g2758
sg64
(lp2769
S':'
asbag57
(g78
g59
NtRp2770
(dp2771
g62
(dp2772
sg71
g2758
sg64
(lp2773
g57
(g58
g59
NtRp2774
(dp2775
g62
(dp2776
g70
I4
ssg71
g2770
sg64
(lp2777
g100
asbasbasbag57
(g73
g59
NtRp2778
(dp2779
g62
(dp2780
sg71
g2587
sg64
(lp2781
g57
(g78
g59
NtRp2782
(dp2783
g62
(dp2784
g82
g83
ssg71
g2778
sg64
(lp2785
g1846
asbag57
(g78
g59
NtRp2786
(dp2787
g62
(dp2788
g89
g90
ssg71
g2778
sg64
(lp2789
S':'
asbag57
(g78
g59
NtRp2790
(dp2791
g62
(dp2792
sg71
g2778
sg64
(lp2793
g57
(g58
g59
NtRp2794
(dp2795
g62
(dp2796
g70
I4
ssg71
g2790
sg64
(lp2797
g57
(g66
g59
NtRp2798
(dp2799
g62
(dp2800
g70
I3
ssg71
Nsg64
(lp2801
g57
(g73
g59
NtRp2802
(dp2803
g62
(dp2804
sg71
g2798
sg64
(lp2805
g57
(g78
g59
NtRp2806
(dp2807
g62
(dp2808
sg71
g2802
sg64
(lp2809
g57
(g58
g59
NtRp2810
(dp2811
g62
(dp2812
g70
I3
ssg71
g2806
sg64
(lp2813
g1875
asbasbasbag57
(g73
g59
NtRp2814
(dp2815
g62
(dp2816
sg71
g2798
sg64
(lp2817
g57
(g78
g59
NtRp2818
(dp2819
g62
(dp2820
sg71
g2814
sg64
(lp2821
g57
(g58
g59
NtRp2822
(dp2823
g62
(dp2824
g70
I3
ssg71
g2818
sg64
(lp2825
g1888
asbasbasbag57
(g73
g59
NtRp2826
(dp2827
g62
(dp2828
sg71
g2798
sg64
(lp2829
g57
(g78
g59
NtRp2830
(dp2831
g62
(dp2832
sg71
g2826
sg64
(lp2833
g57
(g58
g59
NtRp2834
(dp2835
g62
(dp2836
g70
I3
ssg71
g2830
sg64
(lp2837
g1901
asbasbasbag57
(g73
g59
NtRp2838
(dp2839
g62
(dp2840
sg71
g2798
sg64
(lp2841
g57
(g78
g59
NtRp2842
(dp2843
g62
(dp2844
sg71
g2838
sg64
(lp2845
g57
(g58
g59
NtRp2846
(dp2847
g62
(dp2848
g70
I3
ssg71
g2842
sg64
(lp2849
g1914
asbasbasbag57
(g73
g59
NtRp2850
(dp2851
g62
(dp2852
sg71
g2798
sg64
(lp2853
g57
(g78
g59
NtRp2854
(dp2855
g62
(dp2856
sg71
g2850
sg64
(lp2857
g57
(g58
g59
NtRp2858
(dp2859
g62
(dp2860
g70
I3
ssg71
g2854
sg64
(lp2861
g1927
asbasbasbasbasbasbasbag57
(g73
g59
NtRp2862
(dp2863
g62
(dp2864
sg71
g2587
sg64
(lp2865
g57
(g78
g59
NtRp2866
(dp2867
g62
(dp2868
g82
g83
ssg71
g2862
sg64
(lp2869
g2195
asbag57
(g78
g59
NtRp2870
(dp2871
g62
(dp2872
g89
g90
ssg71
g2862
sg64
(lp2873
S':'
asbag57
(g78
g59
NtRp2874
(dp2875
g62
(dp2876
sg71
g2862
sg64
(lp2877
g57
(g58
g59
NtRp2878
(dp2879
g62
(dp2880
g70
I4
ssg71
g2874
sg64
(lp2881
g57
(g66
g59
NtRp2882
(dp2883
g62
(dp2884
g70
I3
ssg71
Nsg64
(lp2885
g57
(g73
g59
NtRp2886
(dp2887
g62
(dp2888
sg71
g2882
sg64
(lp2889
g57
(g78
g59
NtRp2890
(dp2891
g62
(dp2892
sg71
g2886
sg64
(lp2893
g57
(g58
g59
NtRp2894
(dp2895
g62
(dp2896
g70
I3
ssg71
g2890
sg64
(lp2897
S'2'
asbasbasbag57
(g73
g59
NtRp2898
(dp2899
g62
(dp2900
sg71
g2882
sg64
(lp2901
g57
(g78
g59
NtRp2902
(dp2903
g62
(dp2904
sg71
g2898
sg64
(lp2905
g57
(g58
g59
NtRp2906
(dp2907
g62
(dp2908
g70
I3
ssg71
g2902
sg64
(lp2909
S'3'
asbasbasbag57
(g73
g59
NtRp2910
(dp2911
g62
(dp2912
sg71
g2882
sg64
(lp2913
g57
(g78
g59
NtRp2914
(dp2915
g62
(dp2916
sg71
g2910
sg64
(lp2917
g57
(g58
g59
NtRp2918
(dp2919
g62
(dp2920
g70
I3
ssg71
g2914
sg64
(lp2921
S'2'
asbasbasbag57
(g73
g59
NtRp2922
(dp2923
g62
(dp2924
sg71
g2882
sg64
(lp2925
g57
(g78
g59
NtRp2926
(dp2927
g62
(dp2928
sg71
g2922
sg64
(lp2929
g57
(g58
g59
NtRp2930
(dp2931
g62
(dp2932
g70
I3
ssg71
g2926
sg64
(lp2933
S'datetime.datetime(2012, 12, 17, 15, 3, 30)'
p2934
asbasbasbag57
(g73
g59
NtRp2935
(dp2936
g62
(dp2937
sg71
g2882
sg64
(lp2938
g57
(g78
g59
NtRp2939
(dp2940
g62
(dp2941
sg71
g2935
sg64
(lp2942
g57
(g58
g59
NtRp2943
(dp2944
g62
(dp2945
g70
I3
ssg71
g2939
sg64
(lp2946
g2273
asbasbasbasbasbasbasbasbasbasbasbag57
(g73
g59
NtRp2947
(dp2948
g62
(dp2949
sg71
g67
sg64
(lp2950
g57
(g78
g59
NtRp2951
(dp2952
g62
(dp2953
g82
g83
ssg71
g2947
sg64
(lp2954
S'is_https'
p2955
asbag57
(g78
g59
NtRp2956
(dp2957
g62
(dp2958
g89
g90
ssg71
g2947
sg64
(lp2959
S':'
asbag57
(g78
g59
NtRp2960
(dp2961
g62
(dp2962
sg71
g2947
sg64
(lp2963
g57
(g58
g59
NtRp2964
(dp2965
g62
(dp2966
g70
I5
ssg71
g2960
sg64
(lp2967
g100
asbasbasbag57
(g73
g59
NtRp2968
(dp2969
g62
(dp2970
sg71
g67
sg64
(lp2971
g57
(g78
g59
NtRp2972
(dp2973
g62
(dp2974
g82
g83
ssg71
g2968
sg64
(lp2975
S'is_local'
p2976
asbag57
(g78
g59
NtRp2977
(dp2978
g62
(dp2979
g89
g90
ssg71
g2968
sg64
(lp2980
S':'
asbag57
(g78
g59
NtRp2981
(dp2982
g62
(dp2983
sg71
g2968
sg64
(lp2984
g57
(g58
g59
NtRp2985
(dp2986
g62
(dp2987
g70
I5
ssg71
g2981
sg64
(lp2988
g2382
asbasbasbag57
(g73
g59
NtRp2989
(dp2990
g62
(dp2991
sg71
g67
sg64
(lp2992
g57
(g78
g59
NtRp2993
(dp2994
g62
(dp2995
g82
g83
ssg71
g2989
sg64
(lp2996
S'is_restful'
p2997
asbag57
(g78
g59
NtRp2998
(dp2999
g62
(dp3000
g89
g90
ssg71
g2989
sg64
(lp3001
S':'
asbag57
(g78
g59
NtRp3002
(dp3003
g62
(dp3004
sg71
g2989
sg64
(lp3005
g57
(g58
g59
NtRp3006
(dp3007
g62
(dp3008
g70
I5
ssg71
g3002
sg64
(lp3009
g100
asbasbasbag57
(g73
g59
NtRp3010
(dp3011
g62
(dp3012
sg71
g67
sg64
(lp3013
g57
(g78
g59
NtRp3014
(dp3015
g62
(dp3016
g82
g83
ssg71
g3010
sg64
(lp3017
S'now'
p3018
asbag57
(g78
g59
NtRp3019
(dp3020
g62
(dp3021
g89
g90
ssg71
g3010
sg64
(lp3022
S':'
asbag57
(g78
g59
NtRp3023
(dp3024
g62
(dp3025
sg71
g3010
sg64
(lp3026
g57
(g58
g59
NtRp3027
(dp3028
g62
(dp3029
g70
I5
ssg71
g3023
sg64
(lp3030
S'datetime.datetime(2014, 9, 28, 13, 18, 0, 945189)'
p3031
asbasbasbag57
(g73
g59
NtRp3032
(dp3033
g62
(dp3034
sg71
g67
sg64
(lp3035
g57
(g78
g59
NtRp3036
(dp3037
g62
(dp3038
g82
g83
ssg71
g3032
sg64
(lp3039
S'post_vars'
p3040
asbag57
(g78
g59
NtRp3041
(dp3042
g62
(dp3043
g89
g90
ssg71
g3032
sg64
(lp3044
S':'
asbag57
(g78
g59
NtRp3045
(dp3046
g62
(dp3047
sg71
g3032
sg64
(lp3048
g57
(g58
g59
NtRp3049
(dp3050
g62
(dp3051
g70
I5
ssg71
g3045
sg64
(lp3052
g57
(g66
g59
NtRp3053
(dp3054
g62
(dp3055
g70
I4
ssg71
Nsg64
(lp3056
sbasbasbasbag57
(g73
g59
NtRp3057
(dp3058
g62
(dp3059
sg71
g67
sg64
(lp3060
g57
(g78
g59
NtRp3061
(dp3062
g62
(dp3063
g82
g83
ssg71
g3057
sg64
(lp3064
S'raw_args'
p3065
asbag57
(g78
g59
NtRp3066
(dp3067
g62
(dp3068
g89
g90
ssg71
g3057
sg64
(lp3069
S':'
asbag57
(g78
g59
NtRp3070
(dp3071
g62
(dp3072
sg71
g3057
sg64
(lp3073
g57
(g58
g59
NtRp3074
(dp3075
g62
(dp3076
g70
I5
ssg71
g3070
sg64
(lp3077
S'1'
asbasbasbag57
(g73
g59
NtRp3078
(dp3079
g62
(dp3080
sg71
g67
sg64
(lp3081
g57
(g78
g59
NtRp3082
(dp3083
g62
(dp3084
g82
g83
ssg71
g3078
sg64
(lp3085
S'raw_extension'
p3086
asbag57
(g78
g59
NtRp3087
(dp3088
g62
(dp3089
g89
g90
ssg71
g3078
sg64
(lp3090
S':'
asbag57
(g78
g59
NtRp3091
(dp3092
g62
(dp3093
sg71
g3078
sg64
(lp3094
g57
(g58
g59
NtRp3095
(dp3096
g62
(dp3097
g70
I5
ssg71
g3091
sg64
(lp3098
S'None'
p3099
asbasbasbag57
(g73
g59
NtRp3100
(dp3101
g62
(dp3102
sg71
g67
sg64
(lp3103
g57
(g78
g59
NtRp3104
(dp3105
g62
(dp3106
g82
g83
ssg71
g3100
sg64
(lp3107
S'url'
p3108
asbag57
(g78
g59
NtRp3109
(dp3110
g62
(dp3111
g89
g90
ssg71
g3100
sg64
(lp3112
S':'
asbag57
(g78
g59
NtRp3113
(dp3114
g62
(dp3115
sg71
g3100
sg64
(lp3116
g57
(g58
g59
NtRp3117
(dp3118
g62
(dp3119
g70
I5
ssg71
g3113
sg64
(lp3120
g1949
asbasbasbag57
(g73
g59
NtRp3121
(dp3122
g62
(dp3123
sg71
g67
sg64
(lp3124
g57
(g78
g59
NtRp3125
(dp3126
g62
(dp3127
g82
g83
ssg71
g3121
sg64
(lp3128
S'utcnow'
p3129
asbag57
(g78
g59
NtRp3130
(dp3131
g62
(dp3132
g89
g90
ssg71
g3121
sg64
(lp3133
S':'
asbag57
(g78
g59
NtRp3134
(dp3135
g62
(dp3136
sg71
g3121
sg64
(lp3137
g57
(g58
g59
NtRp3138
(dp3139
g62
(dp3140
g70
I5
ssg71
g3134
sg64
(lp3141
S'datetime.datetime(2014, 9, 28, 7, 48, 0, 945209)'
p3142
asbasbasbag57
(g73
g59
NtRp3143
(dp3144
g62
(dp3145
sg71
g67
sg64
(lp3146
g57
(g78
g59
NtRp3147
(dp3148
g62
(dp3149
g82
g83
ssg71
g3143
sg64
(lp3150
S'uuid'
p3151
asbag57
(g78
g59
NtRp3152
(dp3153
g62
(dp3154
g89
g90
ssg71
g3143
sg64
(lp3155
S':'
asbag57
(g78
g59
NtRp3156
(dp3157
g62
(dp3158
sg71
g3143
sg64
(lp3159
g57
(g58
g59
NtRp3160
(dp3161
g62
(dp3162
g70
I5
ssg71
g3156
sg64
(lp3163
S'Garbage_Truck/127.0.0.1.2014-09-28.13-18-00.eca6c6ab-228c-4fb0-bc56-2e9e74f252c5'
p3164
asbasbasbag57
(g73
g59
NtRp3165
(dp3166
g62
(dp3167
sg71
g67
sg64
(lp3168
g57
(g78
g59
NtRp3169
(dp3170
g62
(dp3171
g82
g83
ssg71
g3165
sg64
(lp3172
S'vars'
p3173
asbag57
(g78
g59
NtRp3174
(dp3175
g62
(dp3176
g89
g90
ssg71
g3165
sg64
(lp3177
S':'
asbag57
(g78
g59
NtRp3178
(dp3179
g62
(dp3180
sg71
g3165
sg64
(lp3181
g57
(g58
g59
NtRp3182
(dp3183
g62
(dp3184
g70
I5
ssg71
g3178
sg64
(lp3185
g57
(g66
g59
NtRp3186
(dp3187
g62
(dp3188
g70
I4
ssg71
Nsg64
(lp3189
sbasbasbasbag57
(g73
g59
NtRp3190
(dp3191
g62
(dp3192
sg71
g67
sg64
(lp3193
g57
(g78
g59
NtRp3194
(dp3195
g62
(dp3196
g82
g83
ssg71
g3190
sg64
(lp3197
S'wsgi'
p3198
asbag57
(g78
g59
NtRp3199
(dp3200
g62
(dp3201
g89
g90
ssg71
g3190
sg64
(lp3202
S':'
asbag57
(g78
g59
NtRp3203
(dp3204
g62
(dp3205
sg71
g3190
sg64
(lp3206
g57
(g58
g59
NtRp3207
(dp3208
g62
(dp3209
g70
I5
ssg71
g3203
sg64
(lp3210
g57
(g66
g59
NtRp3211
(dp3212
g62
(dp3213
g70
I4
ssg71
Nsg64
(lp3214
g57
(g73
g59
NtRp3215
(dp3216
g62
(dp3217
sg71
g3211
sg64
(lp3218
g57
(g78
g59
NtRp3219
(dp3220
g62
(dp3221
g82
g83
ssg71
g3215
sg64
(lp3222
S'environ'
p3223
asbag57
(g78
g59
NtRp3224
(dp3225
g62
(dp3226
g89
g90
ssg71
g3215
sg64
(lp3227
S':'
asbag57
(g78
g59
NtRp3228
(dp3229
g62
(dp3230
sg71
g3215
sg64
(lp3231
g57
(g58
g59
NtRp3232
(dp3233
g62
(dp3234
g70
I4
ssg71
g3228
sg64
(lp3235
g57
(g66
g59
NtRp3236
(dp3237
g62
(dp3238
g70
I3
ssg71
Nsg64
(lp3239
g57
(g73
g59
NtRp3240
(dp3241
g62
(dp3242
sg71
g3236
sg64
(lp3243
g57
(g78
g59
NtRp3244
(dp3245
g62
(dp3246
g82
g83
ssg71
g3240
sg64
(lp3247
S'HTTP_ACCEPT'
p3248
asbag57
(g78
g59
NtRp3249
(dp3250
g62
(dp3251
g89
g90
ssg71
g3240
sg64
(lp3252
S':'
asbag57
(g78
g59
NtRp3253
(dp3254
g62
(dp3255
sg71
g3240
sg64
(lp3256
g57
(g58
g59
NtRp3257
(dp3258
g62
(dp3259
g70
I3
ssg71
g3253
sg64
(lp3260
g1598
asbasbasbag57
(g73
g59
NtRp3261
(dp3262
g62
(dp3263
sg71
g3236
sg64
(lp3264
g57
(g78
g59
NtRp3265
(dp3266
g62
(dp3267
g82
g83
ssg71
g3261
sg64
(lp3268
S'HTTP_ACCEPT_ENCODING'
p3269
asbag57
(g78
g59
NtRp3270
(dp3271
g62
(dp3272
g89
g90
ssg71
g3261
sg64
(lp3273
S':'
asbag57
(g78
g59
NtRp3274
(dp3275
g62
(dp3276
sg71
g3261
sg64
(lp3277
g57
(g58
g59
NtRp3278
(dp3279
g62
(dp3280
g70
I3
ssg71
g3274
sg64
(lp3281
g1620
asbasbasbag57
(g73
g59
NtRp3282
(dp3283
g62
(dp3284
sg71
g3236
sg64
(lp3285
g57
(g78
g59
NtRp3286
(dp3287
g62
(dp3288
g82
g83
ssg71
g3282
sg64
(lp3289
S'HTTP_ACCEPT_LANGUAGE'
p3290
asbag57
(g78
g59
NtRp3291
(dp3292
g62
(dp3293
g89
g90
ssg71
g3282
sg64
(lp3294
S':'
asbag57
(g78
g59
NtRp3295
(dp3296
g62
(dp3297
sg71
g3282
sg64
(lp3298
g57
(g58
g59
NtRp3299
(dp3300
g62
(dp3301
g70
I3
ssg71
g3295
sg64
(lp3302
g1642
asbasbasbag57
(g73
g59
NtRp3303
(dp3304
g62
(dp3305
sg71
g3236
sg64
(lp3306
g57
(g78
g59
NtRp3307
(dp3308
g62
(dp3309
g82
g83
ssg71
g3303
sg64
(lp3310
S'HTTP_CACHE_CONTROL'
p3311
asbag57
(g78
g59
NtRp3312
(dp3313
g62
(dp3314
g89
g90
ssg71
g3303
sg64
(lp3315
S':'
asbag57
(g78
g59
NtRp3316
(dp3317
g62
(dp3318
sg71
g3303
sg64
(lp3319
g57
(g58
g59
NtRp3320
(dp3321
g62
(dp3322
g70
I3
ssg71
g3316
sg64
(lp3323
g1664
asbasbasbag57
(g73
g59
NtRp3324
(dp3325
g62
(dp3326
sg71
g3236
sg64
(lp3327
g57
(g78
g59
NtRp3328
(dp3329
g62
(dp3330
g82
g83
ssg71
g3324
sg64
(lp3331
S'HTTP_CONNECTION'
p3332
asbag57
(g78
g59
NtRp3333
(dp3334
g62
(dp3335
g89
g90
ssg71
g3324
sg64
(lp3336
S':'
asbag57
(g78
g59
NtRp3337
(dp3338
g62
(dp3339
sg71
g3324
sg64
(lp3340
g57
(g58
g59
NtRp3341
(dp3342
g62
(dp3343
g70
I3
ssg71
g3337
sg64
(lp3344
g1686
asbasbasbag57
(g73
g59
NtRp3345
(dp3346
g62
(dp3347
sg71
g3236
sg64
(lp3348
g57
(g78
g59
NtRp3349
(dp3350
g62
(dp3351
g82
g83
ssg71
g3345
sg64
(lp3352
S'HTTP_COOKIE'
p3353
asbag57
(g78
g59
NtRp3354
(dp3355
g62
(dp3356
g89
g90
ssg71
g3345
sg64
(lp3357
S':'
asbag57
(g78
g59
NtRp3358
(dp3359
g62
(dp3360
sg71
g3345
sg64
(lp3361
g57
(g58
g59
NtRp3362
(dp3363
g62
(dp3364
g70
I3
ssg71
g3358
sg64
(lp3365
g1708
asbasbasbag57
(g73
g59
NtRp3366
(dp3367
g62
(dp3368
sg71
g3236
sg64
(lp3369
g57
(g78
g59
NtRp3370
(dp3371
g62
(dp3372
g82
g83
ssg71
g3366
sg64
(lp3373
S'HTTP_DNT'
p3374
asbag57
(g78
g59
NtRp3375
(dp3376
g62
(dp3377
g89
g90
ssg71
g3366
sg64
(lp3378
S':'
asbag57
(g78
g59
NtRp3379
(dp3380
g62
(dp3381
sg71
g3366
sg64
(lp3382
g57
(g58
g59
NtRp3383
(dp3384
g62
(dp3385
g70
I3
ssg71
g3379
sg64
(lp3386
S'1'
asbasbasbag57
(g73
g59
NtRp3387
(dp3388
g62
(dp3389
sg71
g3236
sg64
(lp3390
g57
(g78
g59
NtRp3391
(dp3392
g62
(dp3393
g82
g83
ssg71
g3387
sg64
(lp3394
S'HTTP_HOST'
p3395
asbag57
(g78
g59
NtRp3396
(dp3397
g62
(dp3398
g89
g90
ssg71
g3387
sg64
(lp3399
S':'
asbag57
(g78
g59
NtRp3400
(dp3401
g62
(dp3402
sg71
g3387
sg64
(lp3403
g57
(g58
g59
NtRp3404
(dp3405
g62
(dp3406
g70
I3
ssg71
g3400
sg64
(lp3407
g1751
asbasbasbag57
(g73
g59
NtRp3408
(dp3409
g62
(dp3410
sg71
g3236
sg64
(lp3411
g57
(g78
g59
NtRp3412
(dp3413
g62
(dp3414
g82
g83
ssg71
g3408
sg64
(lp3415
S'HTTP_REFERER'
p3416
asbag57
(g78
g59
NtRp3417
(dp3418
g62
(dp3419
g89
g90
ssg71
g3408
sg64
(lp3420
S':'
asbag57
(g78
g59
NtRp3421
(dp3422
g62
(dp3423
sg71
g3408
sg64
(lp3424
g57
(g58
g59
NtRp3425
(dp3426
g62
(dp3427
g70
I3
ssg71
g3421
sg64
(lp3428
g1773
asbasbasbag57
(g73
g59
NtRp3429
(dp3430
g62
(dp3431
sg71
g3236
sg64
(lp3432
g57
(g78
g59
NtRp3433
(dp3434
g62
(dp3435
g82
g83
ssg71
g3429
sg64
(lp3436
S'HTTP_USER_AGENT'
p3437
asbag57
(g78
g59
NtRp3438
(dp3439
g62
(dp3440
g89
g90
ssg71
g3429
sg64
(lp3441
S':'
asbag57
(g78
g59
NtRp3442
(dp3443
g62
(dp3444
sg71
g3429
sg64
(lp3445
g57
(g58
g59
NtRp3446
(dp3447
g62
(dp3448
g70
I3
ssg71
g3442
sg64
(lp3449
g1795
asbasbasbag57
(g73
g59
NtRp3450
(dp3451
g62
(dp3452
sg71
g3236
sg64
(lp3453
g57
(g78
g59
NtRp3454
(dp3455
g62
(dp3456
g82
g83
ssg71
g3450
sg64
(lp3457
S'PATH_INFO'
p3458
asbag57
(g78
g59
NtRp3459
(dp3460
g62
(dp3461
g89
g90
ssg71
g3450
sg64
(lp3462
S':'
asbag57
(g78
g59
NtRp3463
(dp3464
g62
(dp3465
sg71
g3450
sg64
(lp3466
g57
(g58
g59
NtRp3467
(dp3468
g62
(dp3469
g70
I3
ssg71
g3463
sg64
(lp3470
g1949
asbasbasbag57
(g73
g59
NtRp3471
(dp3472
g62
(dp3473
sg71
g3236
sg64
(lp3474
g57
(g78
g59
NtRp3475
(dp3476
g62
(dp3477
g82
g83
ssg71
g3471
sg64
(lp3478
S'QUERY_STRING'
p3479
asbag57
(g78
g59
NtRp3480
(dp3481
g62
(dp3482
g89
g90
ssg71
g3471
sg64
(lp3483
S':'
asbag57
(g78
g59
NtRp3484
(dp3485
g62
(dp3486
sg71
g3471
sg64
(lp3487
g57
(g58
g59
NtRp3488
(dp3489
g62
(dp3490
g70
I3
ssg71
g3484
sg64
(lp3491
S''
asbasbasbag57
(g73
g59
NtRp3492
(dp3493
g62
(dp3494
sg71
g3236
sg64
(lp3495
g57
(g78
g59
NtRp3496
(dp3497
g62
(dp3498
g82
g83
ssg71
g3492
sg64
(lp3499
S'REMOTE_ADDR'
p3500
asbag57
(g78
g59
NtRp3501
(dp3502
g62
(dp3503
g89
g90
ssg71
g3492
sg64
(lp3504
S':'
asbag57
(g78
g59
NtRp3505
(dp3506
g62
(dp3507
sg71
g3492
sg64
(lp3508
g57
(g58
g59
NtRp3509
(dp3510
g62
(dp3511
g70
I3
ssg71
g3505
sg64
(lp3512
g224
asbasbasbag57
(g73
g59
NtRp3513
(dp3514
g62
(dp3515
sg71
g3236
sg64
(lp3516
g57
(g78
g59
NtRp3517
(dp3518
g62
(dp3519
g82
g83
ssg71
g3513
sg64
(lp3520
S'REMOTE_PORT'
p3521
asbag57
(g78
g59
NtRp3522
(dp3523
g62
(dp3524
g89
g90
ssg71
g3513
sg64
(lp3525
S':'
asbag57
(g78
g59
NtRp3526
(dp3527
g62
(dp3528
sg71
g3513
sg64
(lp3529
g57
(g58
g59
NtRp3530
(dp3531
g62
(dp3532
g70
I3
ssg71
g3526
sg64
(lp3533
g2013
asbasbasbag57
(g73
g59
NtRp3534
(dp3535
g62
(dp3536
sg71
g3236
sg64
(lp3537
g57
(g78
g59
NtRp3538
(dp3539
g62
(dp3540
g82
g83
ssg71
g3534
sg64
(lp3541
S'REQUEST_METHOD'
p3542
asbag57
(g78
g59
NtRp3543
(dp3544
g62
(dp3545
g89
g90
ssg71
g3534
sg64
(lp3546
S':'
asbag57
(g78
g59
NtRp3547
(dp3548
g62
(dp3549
sg71
g3534
sg64
(lp3550
g57
(g58
g59
NtRp3551
(dp3552
g62
(dp3553
g70
I3
ssg71
g3547
sg64
(lp3554
g2035
asbasbasbag57
(g73
g59
NtRp3555
(dp3556
g62
(dp3557
sg71
g3236
sg64
(lp3558
g57
(g78
g59
NtRp3559
(dp3560
g62
(dp3561
g82
g83
ssg71
g3555
sg64
(lp3562
S'REQUEST_URI'
p3563
asbag57
(g78
g59
NtRp3564
(dp3565
g62
(dp3566
g89
g90
ssg71
g3555
sg64
(lp3567
S':'
asbag57
(g78
g59
NtRp3568
(dp3569
g62
(dp3570
sg71
g3555
sg64
(lp3571
g57
(g58
g59
NtRp3572
(dp3573
g62
(dp3574
g70
I3
ssg71
g3568
sg64
(lp3575
g1949
asbasbasbag57
(g73
g59
NtRp3576
(dp3577
g62
(dp3578
sg71
g3236
sg64
(lp3579
g57
(g78
g59
NtRp3580
(dp3581
g62
(dp3582
g82
g83
ssg71
g3576
sg64
(lp3583
S'SCRIPT_NAME'
p3584
asbag57
(g78
g59
NtRp3585
(dp3586
g62
(dp3587
g89
g90
ssg71
g3576
sg64
(lp3588
S':'
asbag57
(g78
g59
NtRp3589
(dp3590
g62
(dp3591
sg71
g3576
sg64
(lp3592
g57
(g58
g59
NtRp3593
(dp3594
g62
(dp3595
g70
I3
ssg71
g3589
sg64
(lp3596
S''
asbasbasbag57
(g73
g59
NtRp3597
(dp3598
g62
(dp3599
sg71
g3236
sg64
(lp3600
g57
(g78
g59
NtRp3601
(dp3602
g62
(dp3603
g82
g83
ssg71
g3597
sg64
(lp3604
S'SERVER_NAME'
p3605
asbag57
(g78
g59
NtRp3606
(dp3607
g62
(dp3608
g89
g90
ssg71
g3597
sg64
(lp3609
S':'
asbag57
(g78
g59
NtRp3610
(dp3611
g62
(dp3612
sg71
g3597
sg64
(lp3613
g57
(g58
g59
NtRp3614
(dp3615
g62
(dp3616
g70
I3
ssg71
g3610
sg64
(lp3617
g2099
asbasbasbag57
(g73
g59
NtRp3618
(dp3619
g62
(dp3620
sg71
g3236
sg64
(lp3621
g57
(g78
g59
NtRp3622
(dp3623
g62
(dp3624
g82
g83
ssg71
g3618
sg64
(lp3625
S'SERVER_PORT'
p3626
asbag57
(g78
g59
NtRp3627
(dp3628
g62
(dp3629
g89
g90
ssg71
g3618
sg64
(lp3630
S':'
asbag57
(g78
g59
NtRp3631
(dp3632
g62
(dp3633
sg71
g3618
sg64
(lp3634
g57
(g58
g59
NtRp3635
(dp3636
g62
(dp3637
g70
I3
ssg71
g3631
sg64
(lp3638
g2121
asbasbasbag57
(g73
g59
NtRp3639
(dp3640
g62
(dp3641
sg71
g3236
sg64
(lp3642
g57
(g78
g59
NtRp3643
(dp3644
g62
(dp3645
g82
g83
ssg71
g3639
sg64
(lp3646
S'SERVER_PROTOCOL'
p3647
asbag57
(g78
g59
NtRp3648
(dp3649
g62
(dp3650
g89
g90
ssg71
g3639
sg64
(lp3651
S':'
asbag57
(g78
g59
NtRp3652
(dp3653
g62
(dp3654
sg71
g3639
sg64
(lp3655
g57
(g58
g59
NtRp3656
(dp3657
g62
(dp3658
g70
I3
ssg71
g3652
sg64
(lp3659
g2143
asbasbasbag57
(g73
g59
NtRp3660
(dp3661
g62
(dp3662
sg71
g3236
sg64
(lp3663
g57
(g78
g59
NtRp3664
(dp3665
g62
(dp3666
g82
g83
ssg71
g3660
sg64
(lp3667
S'SERVER_SOFTWARE'
p3668
asbag57
(g78
g59
NtRp3669
(dp3670
g62
(dp3671
g89
g90
ssg71
g3660
sg64
(lp3672
S':'
asbag57
(g78
g59
NtRp3673
(dp3674
g62
(dp3675
sg71
g3660
sg64
(lp3676
g57
(g58
g59
NtRp3677
(dp3678
g62
(dp3679
g70
I3
ssg71
g3673
sg64
(lp3680
g2165
asbasbasbag57
(g73
g59
NtRp3681
(dp3682
g62
(dp3683
sg71
g3236
sg64
(lp3684
g57
(g78
g59
NtRp3685
(dp3686
g62
(dp3687
g82
g83
ssg71
g3681
sg64
(lp3688
S'wsgi.errors'
p3689
asbag57
(g78
g59
NtRp3690
(dp3691
g62
(dp3692
g89
g90
ssg71
g3681
sg64
(lp3693
S':'
asbag57
(g78
g59
NtRp3694
(dp3695
g62
(dp3696
sg71
g3681
sg64
(lp3697
g57
(g58
g59
NtRp3698
(dp3699
g62
(dp3700
g70
I3
ssg71
g3694
sg64
(lp3701
S"<open file '<stderr>', mode 'w' at 0x7f92c1bb41e0>"
p3702
asbasbasbag57
(g73
g59
NtRp3703
(dp3704
g62
(dp3705
sg71
g3236
sg64
(lp3706
g57
(g78
g59
NtRp3707
(dp3708
g62
(dp3709
g82
g83
ssg71
g3703
sg64
(lp3710
S'wsgi.file_wrapper'
p3711
asbag57
(g78
g59
NtRp3712
(dp3713
g62
(dp3714
g89
g90
ssg71
g3703
sg64
(lp3715
S':'
asbag57
(g78
g59
NtRp3716
(dp3717
g62
(dp3718
sg71
g3703
sg64
(lp3719
g57
(g58
g59
NtRp3720
(dp3721
g62
(dp3722
g70
I3
ssg71
g3716
sg64
(lp3723
S'<class wsgiref.util.FileWrapper at 0x7f92bab98808>'
p3724
asbasbasbag57
(g73
g59
NtRp3725
(dp3726
g62
(dp3727
sg71
g3236
sg64
(lp3728
g57
(g78
g59
NtRp3729
(dp3730
g62
(dp3731
g82
g83
ssg71
g3725
sg64
(lp3732
S'wsgi.input'
p3733
asbag57
(g78
g59
NtRp3734
(dp3735
g62
(dp3736
g89
g90
ssg71
g3725
sg64
(lp3737
S':'
asbag57
(g78
g59
NtRp3738
(dp3739
g62
(dp3740
sg71
g3725
sg64
(lp3741
g57
(g58
g59
NtRp3742
(dp3743
g62
(dp3744
g70
I3
ssg71
g3738
sg64
(lp3745
S'<cStringIO.StringO object at 0x7f92a8658928>'
p3746
asbasbasbag57
(g73
g59
NtRp3747
(dp3748
g62
(dp3749
sg71
g3236
sg64
(lp3750
g57
(g78
g59
NtRp3751
(dp3752
g62
(dp3753
g82
g83
ssg71
g3747
sg64
(lp3754
S'wsgi.multiprocess'
p3755
asbag57
(g78
g59
NtRp3756
(dp3757
g62
(dp3758
g89
g90
ssg71
g3747
sg64
(lp3759
S':'
asbag57
(g78
g59
NtRp3760
(dp3761
g62
(dp3762
sg71
g3747
sg64
(lp3763
g57
(g58
g59
NtRp3764
(dp3765
g62
(dp3766
g70
I3
ssg71
g3760
sg64
(lp3767
g100
asbasbasbag57
(g73
g59
NtRp3768
(dp3769
g62
(dp3770
sg71
g3236
sg64
(lp3771
g57
(g78
g59
NtRp3772
(dp3773
g62
(dp3774
g82
g83
ssg71
g3768
sg64
(lp3775
S'wsgi.multithread'
p3776
asbag57
(g78
g59
NtRp3777
(dp3778
g62
(dp3779
g89
g90
ssg71
g3768
sg64
(lp3780
S':'
asbag57
(g78
g59
NtRp3781
(dp3782
g62
(dp3783
sg71
g3768
sg64
(lp3784
g57
(g58
g59
NtRp3785
(dp3786
g62
(dp3787
g70
I3
ssg71
g3781
sg64
(lp3788
g2382
asbasbasbag57
(g73
g59
NtRp3789
(dp3790
g62
(dp3791
sg71
g3236
sg64
(lp3792
g57
(g78
g59
NtRp3793
(dp3794
g62
(dp3795
g82
g83
ssg71
g3789
sg64
(lp3796
S'wsgi.run_once'
p3797
asbag57
(g78
g59
NtRp3798
(dp3799
g62
(dp3800
g89
g90
ssg71
g3789
sg64
(lp3801
S':'
asbag57
(g78
g59
NtRp3802
(dp3803
g62
(dp3804
sg71
g3789
sg64
(lp3805
g57
(g58
g59
NtRp3806
(dp3807
g62
(dp3808
g70
I3
ssg71
g3802
sg64
(lp3809
g100
asbasbasbag57
(g73
g59
NtRp3810
(dp3811
g62
(dp3812
sg71
g3236
sg64
(lp3813
g57
(g78
g59
NtRp3814
(dp3815
g62
(dp3816
g82
g83
ssg71
g3810
sg64
(lp3817
S'wsgi.url_scheme'
p3818
asbag57
(g78
g59
NtRp3819
(dp3820
g62
(dp3821
g89
g90
ssg71
g3810
sg64
(lp3822
S':'
asbag57
(g78
g59
NtRp3823
(dp3824
g62
(dp3825
sg71
g3810
sg64
(lp3826
g57
(g58
g59
NtRp3827
(dp3828
g62
(dp3829
g70
I3
ssg71
g3823
sg64
(lp3830
g2425
asbasbasbag57
(g73
g59
NtRp3831
(dp3832
g62
(dp3833
sg71
g3236
sg64
(lp3834
g57
(g78
g59
NtRp3835
(dp3836
g62
(dp3837
g82
g83
ssg71
g3831
sg64
(lp3838
S'wsgi.version'
p3839
asbag57
(g78
g59
NtRp3840
(dp3841
g62
(dp3842
g89
g90
ssg71
g3831
sg64
(lp3843
S':'
asbag57
(g78
g59
NtRp3844
(dp3845
g62
(dp3846
sg71
g3831
sg64
(lp3847
g57
(g58
g59
NtRp3848
(dp3849
g62
(dp3850
g70
I3
ssg71
g3844
sg64
(lp3851
S'1'
asbasbasbasbasbasbasbasbasbasbasbasbasbsS'frames'
p3852
(lp3853
(dp3854
S'file'
p3855
S'/home/darshan/web2py/gluon/restricted.py'
p3856
sS'dump'
p3857
(dp3858
S'environment'
p3859
S"{'A': <class 'gluon.html.A'>, 'Auth': <class 'gluon.tools.Auth'>, 'B': <class 'gluon.html.B'>, 'BEAUTIFY': <class 'gluon.html.BEAUTIFY'>, 'BODY': <class 'gluon.html.BODY'>, 'BR': <class 'gluon.html.BR'>, 'BUTTON': <class 'gluon.html.BUTTON'>, 'CAT': <class 'gluon.html.CAT'>, 'CENTER': <class 'gluon.html.CENTER'>, 'CLEANUP': <class 'gluon.validators.CLEANUP'>, ...}"
p3860
sS'ccode'
p3861
S'<code object <module> at 0x7f92885b7eb0, file "/...s/Garbage_Truck/controllers/default.py", line 11>'
p3862
ssS'lnum'
p3863
I212
sS'lines'
p3864
(dp3865
I207
S'    try:'
p3866
sI208
S'        if isinstance(code, types.CodeType):'
p3867
sI209
S'            ccode = code'
p3868
sI210
S'        else:'
p3869
sI211
S'            ccode = compile2(code, layer)'
p3870
sI212
S'        exec ccode in environment'
p3871
sI213
S'    except HTTP:'
p3872
sI214
S'        raise'
p3873
sI215
S'    except RestrictedError:'
p3874
sI216
S'        # do not encapsulate (obfuscate) the original RestrictedError'
p3875
ssS'call'
p3876
S"(code='# -*- coding: utf-8 -*-\\n# this file is released ...))\\n\\nresponse._vars=response._caller(edit_status)\\n', environment={'A': <class 'gluon.html.A'>, 'Auth': <class 'gluon.tools.Auth'>, 'B': <class 'gluon.html.B'>, 'BEAUTIFY': <class 'gluon.html.BEAUTIFY'>, 'BODY': <class 'gluon.html.BODY'>, 'BR': <class 'gluon.html.BR'>, 'BUTTON': <class 'gluon.html.BUTTON'>, 'CAT': <class 'gluon.html.CAT'>, 'CENTER': <class 'gluon.html.CENTER'>, 'CLEANUP': <class 'gluon.validators.CLEANUP'>, ...}, layer='/home/darshan/web2py/applications/Garbage_Truck/controllers/default.py')"
p3877
sS'func'
p3878
S'restricted'
p3879
sa(dp3880
g3855
S'/home/darshan/web2py/applications/Garbage_Truck/controllers/default.py'
p3881
sg3857
(dp3882
sg3863
I214
sg3864
(dp3883
I203
S'    http://..../[app]/default/data/update/[table]/[id]'
p3884
sI204
S'    http://..../[app]/default/data/delete/[table]/[id]'
p3885
sI205
S'    http://..../[app]/default/data/select/[table]'
p3886
sI206
S'    http://..../[app]/default/data/search/[table]'
p3887
sI207
S'    but URLs must be signed, i.e. linked with'
p3888
sI208
S"      A('table',_href=URL('data/tables',user_signature=True))"
p3889
sI209
S'    or with the signed load operator'
p3890
sI210
S"      LOAD('default','data.load',args='tables',ajax=True,user_signature=True)"
p3891
sI211
S'    """'
p3892
sI212
S'    return dict(form=crud())'
p3893
ssg3876
S'()'
p3894
sg3878
S'<module>'
p3895
sa(dp3896
g3855
S'/home/darshan/web2py/gluon/globals.py'
p3897
sg3857
(dp3898
S'self'
p3899
S'undefined'
p3900
sS'f'
S'<function edit_status>'
p3901
ssg3863
I193
sg3864
(dp3902
I192
S'        self._vars = None'
p3903
sI193
S'        self._caller = lambda f: f()'
p3904
sI194
S'        self._view_environment = None'
p3905
sI195
S'        self._custom_commit = None'
p3906
sI196
S'        self._custom_rollback = None'
p3907
sI197
S''
sI188
S'        self.menu = []             # used by the default view layout'
p3908
sI189
S'        self.files = []            # used by web2py_ajax.html'
p3909
sI190
S'        self.generic_patterns = []  # patterns to allow generic views'
p3910
sI191
S"        self.delimiters = ('{{', '}}')"
p3911
ssg3876
S'(f=<function edit_status>)'
p3912
sg3878
S'<lambda>'
p3913
sa(dp3914
g3855
S'/home/darshan/web2py/gluon/tools.py'
p3915
sg3857
(dp3916
S'action'
p3917
S'<function edit_status>'
p3918
sS'a'
S'()'
p3919
sS'b'
g45
ssg3863
I2929
sg3864
(dp3920
I2924
S'                    flag = condition'
p3921
sI2925
S'                if not flag:'
p3922
sI2926
S'                    current.session.flash = self.messages.access_denied'
p3923
sI2927
S'                    return call_or_redirect('
p3924
sI2928
S'                        self.settings.on_failed_authorization)'
p3925
sI2929
S'                return action(*a, **b)'
p3926
sI2930
S'            f.__doc__ = action.__doc__'
p3927
sI2931
S'            f.__name__ = action.__name__'
p3928
sI2932
S'            f.__dict__.update(action.__dict__)'
p3929
sI2933
S'            return f'
p3930
ssg3876
S'(*a=(), **b={})'
p3931
sg3878
S'f'
sa(dp3932
g3855
S'/home/darshan/web2py/gluon/tools.py'
p3933
sg3857
(dp3934
S'action'
p3935
S'<function edit_status>'
p3936
sS'a'
S'()'
p3937
sS'b'
g45
ssg3863
I2929
sg3864
(dp3938
I2924
S'                    flag = condition'
p3939
sI2925
S'                if not flag:'
p3940
sI2926
S'                    current.session.flash = self.messages.access_denied'
p3941
sI2927
S'                    return call_or_redirect('
p3942
sI2928
S'                        self.settings.on_failed_authorization)'
p3943
sI2929
S'                return action(*a, **b)'
p3944
sI2930
S'            f.__doc__ = action.__doc__'
p3945
sI2931
S'            f.__name__ = action.__name__'
p3946
sI2932
S'            f.__dict__.update(action.__dict__)'
p3947
sI2933
S'            return f'
p3948
ssg3876
S'(*a=(), **b={})'
p3949
sg3878
S'f'
sa(dp3950
g3855
S'/home/darshan/web2py/applications/Garbage_Truck/controllers/default.py'
p3951
sg3857
(dp3952
S'a'
g3900
sS'requires'
p3953
g3900
sS'global INPUT'
p3954
S"<class 'gluon.html.INPUT'>"
p3955
sS'global IS_IN_SET'
p3956
S"<class 'gluon.validators.IS_IN_SET'>"
p3957
sS'_name'
p3958
g3900
ssg3863
I118
sg3864
(dp3959
I113
S"    d['Verified']=3"
p3960
sI114
S"    d['Processing']=4"
p3961
sI115
S"    d['Completed']=5"
p3962
sI116
S"    l=['a']"
p3963
sI117
S"    form=FORM('Edit Status',"
p3964
sI118
S"            INPUT(_name='status',requires=IS_IN_SET(a)),"
p3965
sI119
S"            INPUT(_type='submit'))"
p3966
sI120
S'    if form.process().accepted:'
p3967
sI121
S'        db(db.request_collection.id==cid).update(status=d[form.vars.status])'
p3968
sI122
S"        session.flash = 'form accepted'"
p3969
ssg3876
S'()'
p3970
sg3878
S'edit_status'
p3971
sasS'pyver'
p3972
S'Python 2.7.6: /usr/bin/python'
p3973
sS'session'
p3974
g57
(g58
g59
NtRp3975
(dp3976
g62
(dp3977
sg64
(lp3978
g57
(g66
g59
NtRp3979
(dp3980
g62
(dp3981
g70
I5
ssg71
Nsg64
(lp3982
g57
(g73
g59
NtRp3983
(dp3984
g62
(dp3985
sg71
g3979
sg64
(lp3986
g57
(g78
g59
NtRp3987
(dp3988
g62
(dp3989
g82
g83
ssg71
g3983
sg64
(lp3990
S'auth'
p3991
asbag57
(g78
g59
NtRp3992
(dp3993
g62
(dp3994
g89
g90
ssg71
g3983
sg64
(lp3995
S':'
asbag57
(g78
g59
NtRp3996
(dp3997
g62
(dp3998
sg71
g3983
sg64
(lp3999
g57
(g58
g59
NtRp4000
(dp4001
g62
(dp4002
g70
I5
ssg71
g3996
sg64
(lp4003
g57
(g66
g59
NtRp4004
(dp4005
g62
(dp4006
g70
I4
ssg71
Nsg64
(lp4007
g57
(g73
g59
NtRp4008
(dp4009
g62
(dp4010
sg71
g4004
sg64
(lp4011
g57
(g78
g59
NtRp4012
(dp4013
g62
(dp4014
g82
g83
ssg71
g4008
sg64
(lp4015
S'expiration'
p4016
asbag57
(g78
g59
NtRp4017
(dp4018
g62
(dp4019
g89
g90
ssg71
g4008
sg64
(lp4020
S':'
asbag57
(g78
g59
NtRp4021
(dp4022
g62
(dp4023
sg71
g4008
sg64
(lp4024
g57
(g58
g59
NtRp4025
(dp4026
g62
(dp4027
g70
I4
ssg71
g4021
sg64
(lp4028
S'3600'
p4029
asbasbasbag57
(g73
g59
NtRp4030
(dp4031
g62
(dp4032
sg71
g4004
sg64
(lp4033
g57
(g78
g59
NtRp4034
(dp4035
g62
(dp4036
g82
g83
ssg71
g4030
sg64
(lp4037
S'hmac_key'
p4038
asbag57
(g78
g59
NtRp4039
(dp4040
g62
(dp4041
g89
g90
ssg71
g4030
sg64
(lp4042
S':'
asbag57
(g78
g59
NtRp4043
(dp4044
g62
(dp4045
sg71
g4030
sg64
(lp4046
g57
(g58
g59
NtRp4047
(dp4048
g62
(dp4049
g70
I4
ssg71
g4043
sg64
(lp4050
S'd4d241e7-6afc-422e-a638-d1cb724bb071'
p4051
asbasbasbag57
(g73
g59
NtRp4052
(dp4053
g62
(dp4054
sg71
g4004
sg64
(lp4055
g57
(g78
g59
NtRp4056
(dp4057
g62
(dp4058
g82
g83
ssg71
g4052
sg64
(lp4059
S'last_visit'
p4060
asbag57
(g78
g59
NtRp4061
(dp4062
g62
(dp4063
g89
g90
ssg71
g4052
sg64
(lp4064
S':'
asbag57
(g78
g59
NtRp4065
(dp4066
g62
(dp4067
sg71
g4052
sg64
(lp4068
g57
(g58
g59
NtRp4069
(dp4070
g62
(dp4071
g70
I4
ssg71
g4065
sg64
(lp4072
S'datetime.datetime(2014, 9, 28, 13, 14, 45, 327470)'
p4073
asbasbasbag57
(g73
g59
NtRp4074
(dp4075
g62
(dp4076
sg71
g4004
sg64
(lp4077
g57
(g78
g59
NtRp4078
(dp4079
g62
(dp4080
g82
g83
ssg71
g4074
sg64
(lp4081
S'remember'
p4082
asbag57
(g78
g59
NtRp4083
(dp4084
g62
(dp4085
g89
g90
ssg71
g4074
sg64
(lp4086
S':'
asbag57
(g78
g59
NtRp4087
(dp4088
g62
(dp4089
sg71
g4074
sg64
(lp4090
g57
(g58
g59
NtRp4091
(dp4092
g62
(dp4093
g70
I4
ssg71
g4087
sg64
(lp4094
g100
asbasbasbag57
(g73
g59
NtRp4095
(dp4096
g62
(dp4097
sg71
g4004
sg64
(lp4098
g57
(g78
g59
NtRp4099
(dp4100
g62
(dp4101
g82
g83
ssg71
g4095
sg64
(lp4102
S'user'
p4103
asbag57
(g78
g59
NtRp4104
(dp4105
g62
(dp4106
g89
g90
ssg71
g4095
sg64
(lp4107
S':'
asbag57
(g78
g59
NtRp4108
(dp4109
g62
(dp4110
sg71
g4095
sg64
(lp4111
g57
(g58
g59
NtRp4112
(dp4113
g62
(dp4114
g70
I4
ssg71
g4108
sg64
(lp4115
g57
(g66
g59
NtRp4116
(dp4117
g62
(dp4118
g70
I3
ssg71
Nsg64
(lp4119
g57
(g73
g59
NtRp4120
(dp4121
g62
(dp4122
sg71
g4116
sg64
(lp4123
g57
(g78
g59
NtRp4124
(dp4125
g62
(dp4126
g82
g83
ssg71
g4120
sg64
(lp4127
S'email'
p4128
asbag57
(g78
g59
NtRp4129
(dp4130
g62
(dp4131
g89
g90
ssg71
g4120
sg64
(lp4132
S':'
asbag57
(g78
g59
NtRp4133
(dp4134
g62
(dp4135
sg71
g4120
sg64
(lp4136
g57
(g58
g59
NtRp4137
(dp4138
g62
(dp4139
g70
I3
ssg71
g4133
sg64
(lp4140
S'rahul@gmail.com'
p4141
asbasbasbag57
(g73
g59
NtRp4142
(dp4143
g62
(dp4144
sg71
g4116
sg64
(lp4145
g57
(g78
g59
NtRp4146
(dp4147
g62
(dp4148
g82
g83
ssg71
g4142
sg64
(lp4149
S'first_name'
p4150
asbag57
(g78
g59
NtRp4151
(dp4152
g62
(dp4153
g89
g90
ssg71
g4142
sg64
(lp4154
S':'
asbag57
(g78
g59
NtRp4155
(dp4156
g62
(dp4157
sg71
g4142
sg64
(lp4158
g57
(g58
g59
NtRp4159
(dp4160
g62
(dp4161
g70
I3
ssg71
g4155
sg64
(lp4162
S'Rahul'
p4163
asbasbasbag57
(g73
g59
NtRp4164
(dp4165
g62
(dp4166
sg71
g4116
sg64
(lp4167
g57
(g78
g59
NtRp4168
(dp4169
g62
(dp4170
g82
g83
ssg71
g4164
sg64
(lp4171
S'id'
p4172
asbag57
(g78
g59
NtRp4173
(dp4174
g62
(dp4175
g89
g90
ssg71
g4164
sg64
(lp4176
S':'
asbag57
(g78
g59
NtRp4177
(dp4178
g62
(dp4179
sg71
g4164
sg64
(lp4180
g57
(g58
g59
NtRp4181
(dp4182
g62
(dp4183
g70
I3
ssg71
g4177
sg64
(lp4184
S'5'
asbasbasbag57
(g73
g59
NtRp4185
(dp4186
g62
(dp4187
sg71
g4116
sg64
(lp4188
g57
(g78
g59
NtRp4189
(dp4190
g62
(dp4191
g82
g83
ssg71
g4185
sg64
(lp4192
S'last_name'
p4193
asbag57
(g78
g59
NtRp4194
(dp4195
g62
(dp4196
g89
g90
ssg71
g4185
sg64
(lp4197
S':'
asbag57
(g78
g59
NtRp4198
(dp4199
g62
(dp4200
sg71
g4185
sg64
(lp4201
g57
(g58
g59
NtRp4202
(dp4203
g62
(dp4204
g70
I3
ssg71
g4198
sg64
(lp4205
S'Sharma'
p4206
asbasbasbag57
(g73
g59
NtRp4207
(dp4208
g62
(dp4209
sg71
g4116
sg64
(lp4210
g57
(g78
g59
NtRp4211
(dp4212
g62
(dp4213
g82
g83
ssg71
g4207
sg64
(lp4214
S'registration_id'
p4215
asbag57
(g78
g59
NtRp4216
(dp4217
g62
(dp4218
g89
g90
ssg71
g4207
sg64
(lp4219
S':'
asbag57
(g78
g59
NtRp4220
(dp4221
g62
(dp4222
sg71
g4207
sg64
(lp4223
g57
(g58
g59
NtRp4224
(dp4225
g62
(dp4226
g70
I3
ssg71
g4220
sg64
(lp4227
S''
asbasbasbag57
(g73
g59
NtRp4228
(dp4229
g62
(dp4230
sg71
g4116
sg64
(lp4231
g57
(g78
g59
NtRp4232
(dp4233
g62
(dp4234
g82
g83
ssg71
g4228
sg64
(lp4235
S'registration_key'
p4236
asbag57
(g78
g59
NtRp4237
(dp4238
g62
(dp4239
g89
g90
ssg71
g4228
sg64
(lp4240
S':'
asbag57
(g78
g59
NtRp4241
(dp4242
g62
(dp4243
sg71
g4228
sg64
(lp4244
g57
(g58
g59
NtRp4245
(dp4246
g62
(dp4247
g70
I3
ssg71
g4241
sg64
(lp4248
S''
asbasbasbag57
(g73
g59
NtRp4249
(dp4250
g62
(dp4251
sg71
g4116
sg64
(lp4252
g57
(g78
g59
NtRp4253
(dp4254
g62
(dp4255
g82
g83
ssg71
g4249
sg64
(lp4256
S'reset_password_key'
p4257
asbag57
(g78
g59
NtRp4258
(dp4259
g62
(dp4260
g89
g90
ssg71
g4249
sg64
(lp4261
S':'
asbag57
(g78
g59
NtRp4262
(dp4263
g62
(dp4264
sg71
g4249
sg64
(lp4265
g57
(g58
g59
NtRp4266
(dp4267
g62
(dp4268
g70
I3
ssg71
g4262
sg64
(lp4269
S''
asbasbasbag57
(g73
g59
NtRp4270
(dp4271
g62
(dp4272
sg71
g4116
sg64
(lp4273
g57
(g78
g59
NtRp4274
(dp4275
g62
(dp4276
g82
g83
ssg71
g4270
sg64
(lp4277
S'username'
p4278
asbag57
(g78
g59
NtRp4279
(dp4280
g62
(dp4281
g89
g90
ssg71
g4270
sg64
(lp4282
S':'
asbag57
(g78
g59
NtRp4283
(dp4284
g62
(dp4285
sg71
g4270
sg64
(lp4286
g57
(g58
g59
NtRp4287
(dp4288
g62
(dp4289
g70
I3
ssg71
g4283
sg64
(lp4290
S'321567890'
p4291
asbasbasbasbasbasbasbag57
(g73
g59
NtRp4292
(dp4293
g62
(dp4294
sg71
g4004
sg64
(lp4295
g57
(g78
g59
NtRp4296
(dp4297
g62
(dp4298
g82
g83
ssg71
g4292
sg64
(lp4299
S'user_groups'
p4300
asbag57
(g78
g59
NtRp4301
(dp4302
g62
(dp4303
g89
g90
ssg71
g4292
sg64
(lp4304
S':'
asbag57
(g78
g59
NtRp4305
(dp4306
g62
(dp4307
sg71
g4292
sg64
(lp4308
g57
(g58
g59
NtRp4309
(dp4310
g62
(dp4311
g70
I4
ssg71
g4305
sg64
(lp4312
g57
(g66
g59
NtRp4313
(dp4314
g62
(dp4315
g70
I3
ssg71
Nsg64
(lp4316
g57
(g73
g59
NtRp4317
(dp4318
g62
(dp4319
sg71
g4313
sg64
(lp4320
g57
(g78
g59
NtRp4321
(dp4322
g62
(dp4323
g82
g83
ssg71
g4317
sg64
(lp4324
S'2'
asbag57
(g78
g59
NtRp4325
(dp4326
g62
(dp4327
g89
g90
ssg71
g4317
sg64
(lp4328
S':'
asbag57
(g78
g59
NtRp4329
(dp4330
g62
(dp4331
sg71
g4317
sg64
(lp4332
g57
(g58
g59
NtRp4333
(dp4334
g62
(dp4335
g70
I3
ssg71
g4329
sg64
(lp4336
S'ghmc_admin'
p4337
asbasbasbasbasbasbasbasbasbasbasbag57
(g73
g59
NtRp4338
(dp4339
g62
(dp4340
sg71
g3979
sg64
(lp4341
g57
(g78
g59
NtRp4342
(dp4343
g62
(dp4344
g82
g83
ssg71
g4338
sg64
(lp4345
S'flash'
p4346
asbag57
(g78
g59
NtRp4347
(dp4348
g62
(dp4349
g89
g90
ssg71
g4338
sg64
(lp4350
S':'
asbag57
(g78
g59
NtRp4351
(dp4352
g62
(dp4353
sg71
g4338
sg64
(lp4354
g57
(g58
g59
NtRp4355
(dp4356
g62
(dp4357
g70
I5
ssg71
g4351
sg64
(lp4358
S'None'
p4359
asbasbasbag57
(g73
g59
NtRp4360
(dp4361
g62
(dp4362
sg71
g3979
sg64
(lp4363
g57
(g78
g59
NtRp4364
(dp4365
g62
(dp4366
g82
g83
ssg71
g4360
sg64
(lp4367
S'last_orderby'
p4368
asbag57
(g78
g59
NtRp4369
(dp4370
g62
(dp4371
g89
g90
ssg71
g4360
sg64
(lp4372
S':'
asbag57
(g78
g59
NtRp4373
(dp4374
g62
(dp4375
sg71
g4360
sg64
(lp4376
g57
(g58
g59
NtRp4377
(dp4378
g62
(dp4379
g70
I5
ssg71
g4373
sg64
(lp4380
S'None'
p4381
asbasbasbag57
(g73
g59
NtRp4382
(dp4383
g62
(dp4384
sg71
g3979
sg64
(lp4385
g57
(g78
g59
NtRp4386
(dp4387
g62
(dp4388
g82
g83
ssg71
g4382
sg64
(lp4389
S'last_query'
p4390
asbag57
(g78
g59
NtRp4391
(dp4392
g62
(dp4393
g89
g90
ssg71
g4382
sg64
(lp4394
S':'
asbag57
(g78
g59
NtRp4395
(dp4396
g62
(dp4397
sg71
g4382
sg64
(lp4398
g57
(g58
g59
NtRp4399
(dp4400
g62
(dp4401
g70
I5
ssg71
g4395
sg64
(lp4402
S'db.gmc_det.id>0'
p4403
asbasbasbag57
(g73
g59
NtRp4404
(dp4405
g62
(dp4406
sg71
g3979
sg64
(lp4407
g57
(g78
g59
NtRp4408
(dp4409
g62
(dp4410
g82
g83
ssg71
g4404
sg64
(lp4411
S'user_id'
p4412
asbag57
(g78
g59
NtRp4413
(dp4414
g62
(dp4415
g89
g90
ssg71
g4404
sg64
(lp4416
S':'
asbag57
(g78
g59
NtRp4417
(dp4418
g62
(dp4419
sg71
g4404
sg64
(lp4420
g57
(g58
g59
NtRp4421
(dp4422
g62
(dp4423
g70
I5
ssg71
g4417
sg64
(lp4424
S'5'
asbasbasbag57
(g73
g59
NtRp4425
(dp4426
g62
(dp4427
sg71
g3979
sg64
(lp4428
g57
(g78
g59
NtRp4429
(dp4430
g62
(dp4431
g82
g83
ssg71
g4425
sg64
(lp4432
S'user_name'
p4433
asbag57
(g78
g59
NtRp4434
(dp4435
g62
(dp4436
g89
g90
ssg71
g4425
sg64
(lp4437
S':'
asbag57
(g78
g59
NtRp4438
(dp4439
g62
(dp4440
sg71
g4425
sg64
(lp4441
g57
(g58
g59
NtRp4442
(dp4443
g62
(dp4444
g70
I5
ssg71
g4438
sg64
(lp4445
g4163
asbasbasbasbasbsS'etype'
p4446
S"<type 'exceptions.NameError'>"
p4447
sS'date'
p4448
S'Sun Sep 28 13:18:00 2014'
p4449
sS'response'
p4450
g57
(g58
g59
NtRp4451
(dp4452
g62
(dp4453
sg64
(lp4454
g57
(g66
g59
NtRp4455
(dp4456
g62
(dp4457
g70
I5
ssg71
Nsg64
(lp4458
g57
(g73
g59
NtRp4459
(dp4460
g62
(dp4461
sg71
g4455
sg64
(lp4462
g57
(g78
g59
NtRp4463
(dp4464
g62
(dp4465
g82
g83
ssg71
g4459
sg64
(lp4466
g167
asbag57
(g78
g59
NtRp4467
(dp4468
g62
(dp4469
g89
g90
ssg71
g4459
sg64
(lp4470
S':'
asbag57
(g78
g59
NtRp4471
(dp4472
g62
(dp4473
sg71
g4459
sg64
(lp4474
g57
(g58
g59
NtRp4475
(dp4476
g62
(dp4477
g70
I5
ssg71
g4471
sg64
(lp4478
S'<cStringIO.StringO object at 0x7f92899f1d88>'
p4479
asbasbasbag57
(g73
g59
NtRp4480
(dp4481
g62
(dp4482
sg71
g4455
sg64
(lp4483
g57
(g78
g59
NtRp4484
(dp4485
g62
(dp4486
g82
g83
ssg71
g4480
sg64
(lp4487
g255
asbag57
(g78
g59
NtRp4488
(dp4489
g62
(dp4490
g89
g90
ssg71
g4480
sg64
(lp4491
S':'
asbag57
(g78
g59
NtRp4492
(dp4493
g62
(dp4494
sg71
g4480
sg64
(lp4495
g57
(g58
g59
NtRp4496
(dp4497
g62
(dp4498
g70
I5
ssg71
g4492
sg64
(lp4499
g57
(g66
g59
NtRp4500
(dp4501
g62
(dp4502
g70
I4
ssg71
Nsg64
(lp4503
g57
(g73
g59
NtRp4504
(dp4505
g62
(dp4506
sg71
g4500
sg64
(lp4507
g57
(g78
g59
NtRp4508
(dp4509
g62
(dp4510
g82
g83
ssg71
g4504
sg64
(lp4511
S'session_id_garbage_truck'
p4512
asbag57
(g78
g59
NtRp4513
(dp4514
g62
(dp4515
g89
g90
ssg71
g4504
sg64
(lp4516
S':'
asbag57
(g78
g59
NtRp4517
(dp4518
g62
(dp4519
sg71
g4504
sg64
(lp4520
g57
(g58
g59
NtRp4521
(dp4522
g62
(dp4523
g70
I4
ssg71
g4517
sg64
(lp4524
g673
ag57
(g66
g59
NtRp4525
(dp4526
g62
(dp4527
g70
I3
ssg71
Nsg64
(lp4528
g57
(g73
g59
NtRp4529
(dp4530
g62
(dp4531
sg71
g4525
sg64
(lp4532
g57
(g78
g59
NtRp4533
(dp4534
g62
(dp4535
g82
g83
ssg71
g4529
sg64
(lp4536
g306
asbag57
(g78
g59
NtRp4537
(dp4538
g62
(dp4539
g89
g90
ssg71
g4529
sg64
(lp4540
S':'
asbag57
(g78
g59
NtRp4541
(dp4542
g62
(dp4543
sg71
g4529
sg64
(lp4544
g57
(g58
g59
NtRp4545
(dp4546
g62
(dp4547
g70
I3
ssg71
g4541
sg64
(lp4548
S''
asbasbasbag57
(g73
g59
NtRp4549
(dp4550
g62
(dp4551
sg71
g4525
sg64
(lp4552
g57
(g78
g59
NtRp4553
(dp4554
g62
(dp4555
g82
g83
ssg71
g4549
sg64
(lp4556
g327
asbag57
(g78
g59
NtRp4557
(dp4558
g62
(dp4559
g89
g90
ssg71
g4549
sg64
(lp4560
S':'
asbag57
(g78
g59
NtRp4561
(dp4562
g62
(dp4563
sg71
g4549
sg64
(lp4564
g57
(g58
g59
NtRp4565
(dp4566
g62
(dp4567
g70
I3
ssg71
g4561
sg64
(lp4568
S''
asbasbasbag57
(g73
g59
NtRp4569
(dp4570
g62
(dp4571
sg71
g4525
sg64
(lp4572
g57
(g78
g59
NtRp4573
(dp4574
g62
(dp4575
g82
g83
ssg71
g4569
sg64
(lp4576
g348
asbag57
(g78
g59
NtRp4577
(dp4578
g62
(dp4579
g89
g90
ssg71
g4569
sg64
(lp4580
S':'
asbag57
(g78
g59
NtRp4581
(dp4582
g62
(dp4583
sg71
g4569
sg64
(lp4584
g57
(g58
g59
NtRp4585
(dp4586
g62
(dp4587
g70
I3
ssg71
g4581
sg64
(lp4588
S''
asbasbasbag57
(g73
g59
NtRp4589
(dp4590
g62
(dp4591
sg71
g4525
sg64
(lp4592
g57
(g78
g59
NtRp4593
(dp4594
g62
(dp4595
g82
g83
ssg71
g4589
sg64
(lp4596
g369
asbag57
(g78
g59
NtRp4597
(dp4598
g62
(dp4599
g89
g90
ssg71
g4589
sg64
(lp4600
S':'
asbag57
(g78
g59
NtRp4601
(dp4602
g62
(dp4603
sg71
g4589
sg64
(lp4604
g57
(g58
g59
NtRp4605
(dp4606
g62
(dp4607
g70
I3
ssg71
g4601
sg64
(lp4608
S''
asbasbasbag57
(g73
g59
NtRp4609
(dp4610
g62
(dp4611
sg71
g4525
sg64
(lp4612
g57
(g78
g59
NtRp4613
(dp4614
g62
(dp4615
g82
g83
ssg71
g4609
sg64
(lp4616
g390
asbag57
(g78
g59
NtRp4617
(dp4618
g62
(dp4619
g89
g90
ssg71
g4609
sg64
(lp4620
S':'
asbag57
(g78
g59
NtRp4621
(dp4622
g62
(dp4623
sg71
g4609
sg64
(lp4624
g57
(g58
g59
NtRp4625
(dp4626
g62
(dp4627
g70
I3
ssg71
g4621
sg64
(lp4628
S''
asbasbasbag57
(g73
g59
NtRp4629
(dp4630
g62
(dp4631
sg71
g4525
sg64
(lp4632
g57
(g78
g59
NtRp4633
(dp4634
g62
(dp4635
g82
g83
ssg71
g4629
sg64
(lp4636
g411
asbag57
(g78
g59
NtRp4637
(dp4638
g62
(dp4639
g89
g90
ssg71
g4629
sg64
(lp4640
S':'
asbag57
(g78
g59
NtRp4641
(dp4642
g62
(dp4643
sg71
g4629
sg64
(lp4644
g57
(g58
g59
NtRp4645
(dp4646
g62
(dp4647
g70
I3
ssg71
g4641
sg64
(lp4648
S'/'
asbasbasbag57
(g73
g59
NtRp4649
(dp4650
g62
(dp4651
sg71
g4525
sg64
(lp4652
g57
(g78
g59
NtRp4653
(dp4654
g62
(dp4655
g82
g83
ssg71
g4649
sg64
(lp4656
g432
asbag57
(g78
g59
NtRp4657
(dp4658
g62
(dp4659
g89
g90
ssg71
g4649
sg64
(lp4660
S':'
asbag57
(g78
g59
NtRp4661
(dp4662
g62
(dp4663
sg71
g4649
sg64
(lp4664
g57
(g58
g59
NtRp4665
(dp4666
g62
(dp4667
g70
I3
ssg71
g4661
sg64
(lp4668
S''
asbasbasbag57
(g73
g59
NtRp4669
(dp4670
g62
(dp4671
sg71
g4525
sg64
(lp4672
g57
(g78
g59
NtRp4673
(dp4674
g62
(dp4675
g82
g83
ssg71
g4669
sg64
(lp4676
g453
asbag57
(g78
g59
NtRp4677
(dp4678
g62
(dp4679
g89
g90
ssg71
g4669
sg64
(lp4680
S':'
asbag57
(g78
g59
NtRp4681
(dp4682
g62
(dp4683
sg71
g4669
sg64
(lp4684
g57
(g58
g59
NtRp4685
(dp4686
g62
(dp4687
g70
I3
ssg71
g4681
sg64
(lp4688
S''
asbasbasbasbasbasbasbasbasbasbasbag57
(g73
g59
NtRp4689
(dp4690
g62
(dp4691
sg71
g4455
sg64
(lp4692
g57
(g78
g59
NtRp4693
(dp4694
g62
(dp4695
g82
g83
ssg71
g4689
sg64
(lp4696
S'delimiters'
p4697
asbag57
(g78
g59
NtRp4698
(dp4699
g62
(dp4700
g89
g90
ssg71
g4689
sg64
(lp4701
S':'
asbag57
(g78
g59
NtRp4702
(dp4703
g62
(dp4704
sg71
g4689
sg64
(lp4705
g57
(g58
g59
NtRp4706
(dp4707
g62
(dp4708
g70
I5
ssg71
g4702
sg64
(lp4709
g57
(g66
g59
NtRp4710
(dp4711
g62
(dp4712
g70
I4
ssg71
Nsg64
(lp4713
g57
(g73
g59
NtRp4714
(dp4715
g62
(dp4716
sg71
g4710
sg64
(lp4717
g57
(g78
g59
NtRp4718
(dp4719
g62
(dp4720
sg71
g4714
sg64
(lp4721
g57
(g58
g59
NtRp4722
(dp4723
g62
(dp4724
g70
I4
ssg71
g4718
sg64
(lp4725
S'{{'
p4726
asbasbasbag57
(g73
g59
NtRp4727
(dp4728
g62
(dp4729
sg71
g4710
sg64
(lp4730
g57
(g78
g59
NtRp4731
(dp4732
g62
(dp4733
sg71
g4727
sg64
(lp4734
g57
(g58
g59
NtRp4735
(dp4736
g62
(dp4737
g70
I4
ssg71
g4731
sg64
(lp4738
S'}}'
p4739
asbasbasbasbasbasbasbag57
(g73
g59
NtRp4740
(dp4741
g62
(dp4742
sg71
g4455
sg64
(lp4743
g57
(g78
g59
NtRp4744
(dp4745
g62
(dp4746
g82
g83
ssg71
g4740
sg64
(lp4747
S'files'
p4748
asbag57
(g78
g59
NtRp4749
(dp4750
g62
(dp4751
g89
g90
ssg71
g4740
sg64
(lp4752
S':'
asbag57
(g78
g59
NtRp4753
(dp4754
g62
(dp4755
sg71
g4740
sg64
(lp4756
g57
(g58
g59
NtRp4757
(dp4758
g62
(dp4759
g70
I5
ssg71
g4753
sg64
(lp4760
g57
(g66
g59
NtRp4761
(dp4762
g62
(dp4763
g70
I4
ssg71
Nsg64
(lp4764
sbasbasbasbag57
(g73
g59
NtRp4765
(dp4766
g62
(dp4767
sg71
g4455
sg64
(lp4768
g57
(g78
g59
NtRp4769
(dp4770
g62
(dp4771
g82
g83
ssg71
g4765
sg64
(lp4772
S'flash'
p4773
asbag57
(g78
g59
NtRp4774
(dp4775
g62
(dp4776
g89
g90
ssg71
g4765
sg64
(lp4777
S':'
asbag57
(g78
g59
NtRp4778
(dp4779
g62
(dp4780
sg71
g4765
sg64
(lp4781
g57
(g58
g59
NtRp4782
(dp4783
g62
(dp4784
g70
I5
ssg71
g4778
sg64
(lp4785
S''
asbasbasbag57
(g73
g59
NtRp4786
(dp4787
g62
(dp4788
sg71
g4455
sg64
(lp4789
g57
(g78
g59
NtRp4790
(dp4791
g62
(dp4792
g82
g83
ssg71
g4786
sg64
(lp4793
S'generic_patterns'
p4794
asbag57
(g78
g59
NtRp4795
(dp4796
g62
(dp4797
g89
g90
ssg71
g4786
sg64
(lp4798
S':'
asbag57
(g78
g59
NtRp4799
(dp4800
g62
(dp4801
sg71
g4786
sg64
(lp4802
g57
(g58
g59
NtRp4803
(dp4804
g62
(dp4805
g70
I5
ssg71
g4799
sg64
(lp4806
g57
(g66
g59
NtRp4807
(dp4808
g62
(dp4809
g70
I4
ssg71
Nsg64
(lp4810
g57
(g73
g59
NtRp4811
(dp4812
g62
(dp4813
sg71
g4807
sg64
(lp4814
g57
(g78
g59
NtRp4815
(dp4816
g62
(dp4817
sg71
g4811
sg64
(lp4818
g57
(g58
g59
NtRp4819
(dp4820
g62
(dp4821
g70
I4
ssg71
g4815
sg64
(lp4822
S'*'
asbasbasbasbasbasbasbag57
(g73
g59
NtRp4823
(dp4824
g62
(dp4825
sg71
g4455
sg64
(lp4826
g57
(g78
g59
NtRp4827
(dp4828
g62
(dp4829
g82
g83
ssg71
g4823
sg64
(lp4830
S'google_analytics_id'
p4831
asbag57
(g78
g59
NtRp4832
(dp4833
g62
(dp4834
g89
g90
ssg71
g4823
sg64
(lp4835
S':'
asbag57
(g78
g59
NtRp4836
(dp4837
g62
(dp4838
sg71
g4823
sg64
(lp4839
g57
(g58
g59
NtRp4840
(dp4841
g62
(dp4842
g70
I5
ssg71
g4836
sg64
(lp4843
S'None'
p4844
asbasbasbag57
(g73
g59
NtRp4845
(dp4846
g62
(dp4847
sg71
g4455
sg64
(lp4848
g57
(g78
g59
NtRp4849
(dp4850
g62
(dp4851
g82
g83
ssg71
g4845
sg64
(lp4852
S'headers'
p4853
asbag57
(g78
g59
NtRp4854
(dp4855
g62
(dp4856
g89
g90
ssg71
g4845
sg64
(lp4857
S':'
asbag57
(g78
g59
NtRp4858
(dp4859
g62
(dp4860
sg71
g4845
sg64
(lp4861
g57
(g58
g59
NtRp4862
(dp4863
g62
(dp4864
g70
I5
ssg71
g4858
sg64
(lp4865
g57
(g66
g59
NtRp4866
(dp4867
g62
(dp4868
g70
I4
ssg71
Nsg64
(lp4869
g57
(g73
g59
NtRp4870
(dp4871
g62
(dp4872
sg71
g4866
sg64
(lp4873
g57
(g78
g59
NtRp4874
(dp4875
g62
(dp4876
g82
g83
ssg71
g4870
sg64
(lp4877
S'X-Powered-By'
p4878
asbag57
(g78
g59
NtRp4879
(dp4880
g62
(dp4881
g89
g90
ssg71
g4870
sg64
(lp4882
S':'
asbag57
(g78
g59
NtRp4883
(dp4884
g62
(dp4885
sg71
g4870
sg64
(lp4886
g57
(g58
g59
NtRp4887
(dp4888
g62
(dp4889
g70
I4
ssg71
g4883
sg64
(lp4890
S'web2py'
p4891
asbasbasbasbasbasbasbag57
(g73
g59
NtRp4892
(dp4893
g62
(dp4894
sg71
g4455
sg64
(lp4895
g57
(g78
g59
NtRp4896
(dp4897
g62
(dp4898
g82
g83
ssg71
g4892
sg64
(lp4899
S'logo'
p4900
asbag57
(g78
g59
NtRp4901
(dp4902
g62
(dp4903
g89
g90
ssg71
g4892
sg64
(lp4904
S':'
asbag57
(g78
g59
NtRp4905
(dp4906
g62
(dp4907
sg71
g4892
sg64
(lp4908
g57
(g58
g59
NtRp4909
(dp4910
g62
(dp4911
g70
I5
ssg71
g4905
sg64
(lp4912
g57
(cgluon.html
A
p4913
g59
NtRp4914
(dp4915
g62
(dp4916
S'_class'
p4917
S'brand'
p4918
sS'_href'
p4919
S'http://www.web2py.com/'
p4920
ssg71
Nsg64
(lp4921
g57
(cgluon.html
B
p4922
g59
NtRp4923
(dp4924
g62
(dp4925
sg71
g4914
sg64
(lp4926
S'web'
p4927
ag57
(cgluon.html
SPAN
p4928
g59
NtRp4929
(dp4930
g62
(dp4931
sg71
g4923
sg64
(lp4932
I2
asbaS'py'
p4933
asbacgluon.html
XML_unpickle
p4934
(S's\r\x00\x00\x00&trade;&nbsp;'
tRp4935
asbasbasbasbag57
(g73
g59
NtRp4936
(dp4937
g62
(dp4938
sg71
g4455
sg64
(lp4939
g57
(g78
g59
NtRp4940
(dp4941
g62
(dp4942
g82
g83
ssg71
g4936
sg64
(lp4943
S'menu'
p4944
asbag57
(g78
g59
NtRp4945
(dp4946
g62
(dp4947
g89
g90
ssg71
g4936
sg64
(lp4948
S':'
asbag57
(g78
g59
NtRp4949
(dp4950
g62
(dp4951
sg71
g4936
sg64
(lp4952
g57
(g58
g59
NtRp4953
(dp4954
g62
(dp4955
g70
I5
ssg71
g4949
sg64
(lp4956
g57
(g66
g59
NtRp4957
(dp4958
g62
(dp4959
g70
I4
ssg71
Nsg64
(lp4960
g57
(g73
g59
NtRp4961
(dp4962
g62
(dp4963
sg71
g4957
sg64
(lp4964
g57
(g78
g59
NtRp4965
(dp4966
g62
(dp4967
sg71
g4961
sg64
(lp4968
g57
(g58
g59
NtRp4969
(dp4970
g62
(dp4971
g70
I4
ssg71
g4965
sg64
(lp4972
g57
(g66
g59
NtRp4973
(dp4974
g62
(dp4975
g70
I3
ssg71
Nsg64
(lp4976
g57
(g73
g59
NtRp4977
(dp4978
g62
(dp4979
sg71
g4973
sg64
(lp4980
g57
(g78
g59
NtRp4981
(dp4982
g62
(dp4983
sg71
g4977
sg64
(lp4984
g57
(g58
g59
NtRp4985
(dp4986
g62
(dp4987
g70
I3
ssg71
g4981
sg64
(lp4988
cgluon.languages
lazyT_unpickle
p4989
(S's\x04\x00\x00\x00Home'
tRp4990
asbasbasbag57
(g73
g59
NtRp4991
(dp4992
g62
(dp4993
sg71
g4973
sg64
(lp4994
g57
(g78
g59
NtRp4995
(dp4996
g62
(dp4997
sg71
g4991
sg64
(lp4998
g57
(g58
g59
NtRp4999
(dp5000
g62
(dp5001
g70
I3
ssg71
g4995
sg64
(lp5002
g100
asbasbasbag57
(g73
g59
NtRp5003
(dp5004
g62
(dp5005
sg71
g4973
sg64
(lp5006
g57
(g78
g59
NtRp5007
(dp5008
g62
(dp5009
sg71
g5003
sg64
(lp5010
g57
(g58
g59
NtRp5011
(dp5012
g62
(dp5013
g70
I3
ssg71
g5007
sg64
(lp5014
S'/Garbage_Truck/default/index'
p5015
asbasbasbag57
(g73
g59
NtRp5016
(dp5017
g62
(dp5018
sg71
g4973
sg64
(lp5019
g57
(g78
g59
NtRp5020
(dp5021
g62
(dp5022
sg71
g5016
sg64
(lp5023
g57
(g58
g59
NtRp5024
(dp5025
g62
(dp5026
g70
I3
ssg71
g5020
sg64
(lp5027
g57
(g66
g59
NtRp5028
(dp5029
g62
(dp5030
g70
I2
ssg71
Nsg64
(lp5031
sbasbasbasbasbasbasbasbag57
(g73
g59
NtRp5032
(dp5033
g62
(dp5034
sg71
g4957
sg64
(lp5035
g57
(g78
g59
NtRp5036
(dp5037
g62
(dp5038
sg71
g5032
sg64
(lp5039
g57
(g58
g59
NtRp5040
(dp5041
g62
(dp5042
g70
I4
ssg71
g5036
sg64
(lp5043
g57
(g66
g59
NtRp5044
(dp5045
g62
(dp5046
g70
I3
ssg71
Nsg64
(lp5047
g57
(g73
g59
NtRp5048
(dp5049
g62
(dp5050
sg71
g5044
sg64
(lp5051
g57
(g78
g59
NtRp5052
(dp5053
g62
(dp5054
sg71
g5048
sg64
(lp5055
g57
(g58
g59
NtRp5056
(dp5057
g62
(dp5058
g70
I3
ssg71
g5052
sg64
(lp5059
g57
(g4928
g59
NtRp5060
(dp5061
g62
(dp5062
g4917
S'highlighted'
p5063
ssg71
Nsg64
(lp5064
g4891
asbasbasbasbag57
(g73
g59
NtRp5065
(dp5066
g62
(dp5067
sg71
g5044
sg64
(lp5068
g57
(g78
g59
NtRp5069
(dp5070
g62
(dp5071
sg71
g5065
sg64
(lp5072
g57
(g58
g59
NtRp5073
(dp5074
g62
(dp5075
g70
I3
ssg71
g5069
sg64
(lp5076
g100
asbasbasbag57
(g73
g59
NtRp5077
(dp5078
g62
(dp5079
sg71
g5044
sg64
(lp5080
g57
(g78
g59
NtRp5081
(dp5082
g62
(dp5083
sg71
g5077
sg64
(lp5084
g57
(g58
g59
NtRp5085
(dp5086
g62
(dp5087
g70
I3
ssg71
g5081
sg64
(lp5088
S'http://web2py.com'
p5089
asbasbasbag57
(g73
g59
NtRp5090
(dp5091
g62
(dp5092
sg71
g5044
sg64
(lp5093
g57
(g78
g59
NtRp5094
(dp5095
g62
(dp5096
sg71
g5090
sg64
(lp5097
g57
(g58
g59
NtRp5098
(dp5099
g62
(dp5100
g70
I3
ssg71
g5094
sg64
(lp5101
g57
(g66
g59
NtRp5102
(dp5103
g62
(dp5104
g70
I2
ssg71
Nsg64
(lp5105
g57
(g73
g59
NtRp5106
(dp5107
g62
(dp5108
sg71
g5102
sg64
(lp5109
g57
(g78
g59
NtRp5110
(dp5111
g62
(dp5112
sg71
g5106
sg64
(lp5113
g57
(g58
g59
NtRp5114
(dp5115
g62
(dp5116
g70
I2
ssg71
g5110
sg64
(lp5117
g57
(g66
g59
NtRp5118
(dp5119
g62
(dp5120
g70
I1
ssg71
Nsg64
(lp5121
g57
(g73
g59
NtRp5122
(dp5123
g62
(dp5124
sg71
g5118
sg64
(lp5125
g57
(g78
g59
NtRp5126
(dp5127
g62
(dp5128
sg71
g5122
sg64
(lp5129
g57
(g58
g59
NtRp5130
(dp5131
g62
(dp5132
g70
I1
ssg71
g5126
sg64
(lp5133
g4989
(S's\x08\x00\x00\x00My Sites'
tRp5134
asbasbasbag57
(g73
g59
NtRp5135
(dp5136
g62
(dp5137
sg71
g5118
sg64
(lp5138
g57
(g78
g59
NtRp5139
(dp5140
g62
(dp5141
sg71
g5135
sg64
(lp5142
g57
(g58
g59
NtRp5143
(dp5144
g62
(dp5145
g70
I1
ssg71
g5139
sg64
(lp5146
I00
asbasbasbag57
(g73
g59
NtRp5147
(dp5148
g62
(dp5149
sg71
g5118
sg64
(lp5150
g57
(g78
g59
NtRp5151
(dp5152
g62
(dp5153
sg71
g5147
sg64
(lp5154
g57
(g58
g59
NtRp5155
(dp5156
g62
(dp5157
g70
I1
ssg71
g5151
sg64
(lp5158
S'/admin/default/site'
p5159
asbasbasbasbasbasbasbag57
(g73
g59
NtRp5160
(dp5161
g62
(dp5162
sg71
g5102
sg64
(lp5163
g57
(g78
g59
NtRp5164
(dp5165
g62
(dp5166
sg71
g5160
sg64
(lp5167
g57
(g58
g59
NtRp5168
(dp5169
g62
(dp5170
g70
I2
ssg71
g5164
sg64
(lp5171
g57
(g66
g59
NtRp5172
(dp5173
g62
(dp5174
g70
I1
ssg71
Nsg64
(lp5175
g57
(g73
g59
NtRp5176
(dp5177
g62
(dp5178
sg71
g5172
sg64
(lp5179
g57
(g78
g59
NtRp5180
(dp5181
g62
(dp5182
sg71
g5176
sg64
(lp5183
g57
(g58
g59
NtRp5184
(dp5185
g62
(dp5186
g70
I1
ssg71
g5180
sg64
(lp5187
g4989
(S's\x08\x00\x00\x00This App'
tRp5188
asbasbasbag57
(g73
g59
NtRp5189
(dp5190
g62
(dp5191
sg71
g5172
sg64
(lp5192
g57
(g78
g59
NtRp5193
(dp5194
g62
(dp5195
sg71
g5189
sg64
(lp5196
g57
(g58
g59
NtRp5197
(dp5198
g62
(dp5199
g70
I1
ssg71
g5193
sg64
(lp5200
I00
asbasbasbag57
(g73
g59
NtRp5201
(dp5202
g62
(dp5203
sg71
g5172
sg64
(lp5204
g57
(g78
g59
NtRp5205
(dp5206
g62
(dp5207
sg71
g5201
sg64
(lp5208
g57
(g58
g59
NtRp5209
(dp5210
g62
(dp5211
g70
I1
ssg71
g5205
sg64
(lp5212
S'/admin/default/design/Garbage_Truck'
p5213
asbasbasbag57
(g73
g59
NtRp5214
(dp5215
g62
(dp5216
sg71
g5172
sg64
(lp5217
g57
(g78
g59
NtRp5218
(dp5219
g62
(dp5220
sg71
g5214
sg64
(lp5221
g57
(g58
g59
NtRp5222
(dp5223
g62
(dp5224
g70
I1
ssg71
g5218
sg64
(lp5225
(lp5226
(g4989
(S's\n\x00\x00\x00Controller'
tRp5227
I00
S'/admin/default/edit/Garbage_Truck/controllers/default.py'
tp5228
a(g4989
(S's\x04\x00\x00\x00View'
tRp5229
I00
S'/admin/default/edit/Garbage_Truck/views/default/edit_status.html'
tp5230
a(g4989
(S's\x06\x00\x00\x00Layout'
tRp5231
I00
S'/admin/default/edit/Garbage_Truck/views/layout.html'
tp5232
a(g4989
(S's\n\x00\x00\x00Stylesheet'
tRp5233
I00
S'/admin/default/edit/Garbage_Truck/static/css/web2py.css'
tp5234
a(g4989
(S's\x08\x00\x00\x00DB Model'
tRp5235
I00
S'/admin/default/edit/Garbage_Truck/models/db.py'
tp5236
a(g4989
(S's\n\x00\x00\x00Menu Model'
tRp5237
I00
S'/admin/default/edit/Garbage_Truck/models/menu.py'
tp5238
a(g4989
(S's\x08\x00\x00\x00Database'
tRp5239
I00
S'/Garbage_Truck/appadmin/index'
tp5240
a(g4989
(S's\x06\x00\x00\x00Errors'
tRp5241
I00
S'/admin/default/errors/Garbage_Truck'
tp5242
a(g4989
(S's\x05\x00\x00\x00About'
tRp5243
I00
S'/admin/default/about/Garbage_Truck'
tp5244
aasbasbasbasbasbasbasbag57
(g73
g59
NtRp5245
(dp5246
g62
(dp5247
sg71
g5102
sg64
(lp5248
g57
(g78
g59
NtRp5249
(dp5250
g62
(dp5251
sg71
g5245
sg64
(lp5252
g57
(g58
g59
NtRp5253
(dp5254
g62
(dp5255
g70
I2
ssg71
g5249
sg64
(lp5256
g57
(g66
g59
NtRp5257
(dp5258
g62
(dp5259
g70
I1
ssg71
Nsg64
(lp5260
g57
(g73
g59
NtRp5261
(dp5262
g62
(dp5263
sg71
g5257
sg64
(lp5264
g57
(g78
g59
NtRp5265
(dp5266
g62
(dp5267
sg71
g5261
sg64
(lp5268
g57
(g58
g59
NtRp5269
(dp5270
g62
(dp5271
g70
I1
ssg71
g5265
sg64
(lp5272
S'web2py.com'
p5273
asbasbasbag57
(g73
g59
NtRp5274
(dp5275
g62
(dp5276
sg71
g5257
sg64
(lp5277
g57
(g78
g59
NtRp5278
(dp5279
g62
(dp5280
sg71
g5274
sg64
(lp5281
g57
(g58
g59
NtRp5282
(dp5283
g62
(dp5284
g70
I1
ssg71
g5278
sg64
(lp5285
I00
asbasbasbag57
(g73
g59
NtRp5286
(dp5287
g62
(dp5288
sg71
g5257
sg64
(lp5289
g57
(g78
g59
NtRp5290
(dp5291
g62
(dp5292
sg71
g5286
sg64
(lp5293
g57
(g58
g59
NtRp5294
(dp5295
g62
(dp5296
g70
I1
ssg71
g5290
sg64
(lp5297
S'http://www.web2py.com'
p5298
asbasbasbag57
(g73
g59
NtRp5299
(dp5300
g62
(dp5301
sg71
g5257
sg64
(lp5302
g57
(g78
g59
NtRp5303
(dp5304
g62
(dp5305
sg71
g5299
sg64
(lp5306
g57
(g58
g59
NtRp5307
(dp5308
g62
(dp5309
g70
I1
ssg71
g5303
sg64
(lp5310
(lp5311
(g4989
(S's\x08\x00\x00\x00Download'
tRp5312
I00
S'http://www.web2py.com/examples/default/download'
p5313
tp5314
a(g4989
(S's\x07\x00\x00\x00Support'
tRp5315
I00
S'http://www.web2py.com/examples/default/support'
p5316
tp5317
a(g4989
(S's\x04\x00\x00\x00Demo'
tRp5318
I00
S'http://web2py.com/demo_admin'
p5319
tp5320
a(g4989
(S's\x0e\x00\x00\x00Quick Examples'
tRp5321
I00
S'http://web2py.com/examples/default/examples'
p5322
tp5323
a(g4989
(S's\x03\x00\x00\x00FAQ'
tRp5324
I00
S'http://web2py.com/AlterEgo'
p5325
tp5326
a(g4989
(S's\x06\x00\x00\x00Videos'
tRp5327
I00
S'http://www.web2py.com/examples/default/videos/'
p5328
tp5329
a(g4989
(S's\x11\x00\x00\x00Free Applications'
tRp5330
I00
S'http://web2py.com/appliances'
p5331
tp5332
a(g4989
(S's\x07\x00\x00\x00Plugins'
tRp5333
I00
S'http://web2py.com/plugins'
p5334
tp5335
a(g4989
(S's\x07\x00\x00\x00Layouts'
tRp5336
I00
S'http://web2py.com/layouts'
p5337
tp5338
a(g4989
(S's\x07\x00\x00\x00Recipes'
tRp5339
I00
S'http://web2pyslices.com/'
p5340
tp5341
a(g4989
(S's\x08\x00\x00\x00Semantic'
tRp5342
I00
S'http://web2py.com/semantic'
p5343
tp5344
aasbasbasbasbasbasbasbag57
(g73
g59
NtRp5345
(dp5346
g62
(dp5347
sg71
g5102
sg64
(lp5348
g57
(g78
g59
NtRp5349
(dp5350
g62
(dp5351
sg71
g5345
sg64
(lp5352
g57
(g58
g59
NtRp5353
(dp5354
g62
(dp5355
g70
I2
ssg71
g5349
sg64
(lp5356
g57
(g66
g59
NtRp5357
(dp5358
g62
(dp5359
g70
I1
ssg71
Nsg64
(lp5360
g57
(g73
g59
NtRp5361
(dp5362
g62
(dp5363
sg71
g5357
sg64
(lp5364
g57
(g78
g59
NtRp5365
(dp5366
g62
(dp5367
sg71
g5361
sg64
(lp5368
g57
(g58
g59
NtRp5369
(dp5370
g62
(dp5371
g70
I1
ssg71
g5365
sg64
(lp5372
g4989
(S's\r\x00\x00\x00Documentation'
tRp5373
asbasbasbag57
(g73
g59
NtRp5374
(dp5375
g62
(dp5376
sg71
g5357
sg64
(lp5377
g57
(g78
g59
NtRp5378
(dp5379
g62
(dp5380
sg71
g5374
sg64
(lp5381
g57
(g58
g59
NtRp5382
(dp5383
g62
(dp5384
g70
I1
ssg71
g5378
sg64
(lp5385
I00
asbasbasbag57
(g73
g59
NtRp5386
(dp5387
g62
(dp5388
sg71
g5357
sg64
(lp5389
g57
(g78
g59
NtRp5390
(dp5391
g62
(dp5392
sg71
g5386
sg64
(lp5393
g57
(g58
g59
NtRp5394
(dp5395
g62
(dp5396
g70
I1
ssg71
g5390
sg64
(lp5397
S'http://www.web2py.com/book'
p5398
asbasbasbag57
(g73
g59
NtRp5399
(dp5400
g62
(dp5401
sg71
g5357
sg64
(lp5402
g57
(g78
g59
NtRp5403
(dp5404
g62
(dp5405
sg71
g5399
sg64
(lp5406
g57
(g58
g59
NtRp5407
(dp5408
g62
(dp5409
g70
I1
ssg71
g5403
sg64
(lp5410
(lp5411
(g4989
(S's\x07\x00\x00\x00Preface'
tRp5412
I00
S'http://www.web2py.com/book/default/chapter/00'
p5413
tp5414
a(g4989
(S's\x0c\x00\x00\x00Introduction'
tRp5415
I00
S'http://www.web2py.com/book/default/chapter/01'
p5416
tp5417
a(g4989
(S's\x06\x00\x00\x00Python'
tRp5418
I00
S'http://www.web2py.com/book/default/chapter/02'
p5419
tp5420
a(g4989
(S's\x08\x00\x00\x00Overview'
tRp5421
I00
S'http://www.web2py.com/book/default/chapter/03'
p5422
tp5423
a(g4989
(S's\x08\x00\x00\x00The Core'
tRp5424
I00
S'http://www.web2py.com/book/default/chapter/04'
p5425
tp5426
a(g4989
(S's\t\x00\x00\x00The Views'
tRp5427
I00
S'http://www.web2py.com/book/default/chapter/05'
p5428
tp5429
a(g4989
(S's\x08\x00\x00\x00Database'
tRp5430
I00
S'http://www.web2py.com/book/default/chapter/06'
p5431
tp5432
a(g4989
(S's\x14\x00\x00\x00Forms and Validators'
tRp5433
I00
S'http://www.web2py.com/book/default/chapter/07'
p5434
tp5435
a(g4989
(S's\r\x00\x00\x00Email and SMS'
tRp5436
I00
S'http://www.web2py.com/book/default/chapter/08'
p5437
tp5438
a(g4989
(S's\x0e\x00\x00\x00Access Control'
tRp5439
I00
S'http://www.web2py.com/book/default/chapter/09'
p5440
tp5441
a(g4989
(S's\x08\x00\x00\x00Services'
tRp5442
I00
S'http://www.web2py.com/book/default/chapter/10'
p5443
tp5444
a(g4989
(S's\x0c\x00\x00\x00Ajax Recipes'
tRp5445
I00
S'http://www.web2py.com/book/default/chapter/11'
p5446
tp5447
a(g4989
(S's\x16\x00\x00\x00Components and Plugins'
tRp5448
I00
S'http://www.web2py.com/book/default/chapter/12'
p5449
tp5450
a(g4989
(S's\x12\x00\x00\x00Deployment Recipes'
tRp5451
I00
S'http://www.web2py.com/book/default/chapter/13'
p5452
tp5453
a(g4989
(S's\r\x00\x00\x00Other Recipes'
tRp5454
I00
S'http://www.web2py.com/book/default/chapter/14'
p5455
tp5456
a(g4989
(S's\r\x00\x00\x00Buy this book'
tRp5457
I00
S'http://stores.lulu.com/web2py'
p5458
tp5459
aasbasbasbasbasbasbasbag57
(g73
g59
NtRp5460
(dp5461
g62
(dp5462
sg71
g5102
sg64
(lp5463
g57
(g78
g59
NtRp5464
(dp5465
g62
(dp5466
sg71
g5460
sg64
(lp5467
g57
(g58
g59
NtRp5468
(dp5469
g62
(dp5470
g70
I2
ssg71
g5464
sg64
(lp5471
g57
(g66
g59
NtRp5472
(dp5473
g62
(dp5474
g70
I1
ssg71
Nsg64
(lp5475
g57
(g73
g59
NtRp5476
(dp5477
g62
(dp5478
sg71
g5472
sg64
(lp5479
g57
(g78
g59
NtRp5480
(dp5481
g62
(dp5482
sg71
g5476
sg64
(lp5483
g57
(g58
g59
NtRp5484
(dp5485
g62
(dp5486
g70
I1
ssg71
g5480
sg64
(lp5487
g4989
(S's\t\x00\x00\x00Community'
tRp5488
asbasbasbag57
(g73
g59
NtRp5489
(dp5490
g62
(dp5491
sg71
g5472
sg64
(lp5492
g57
(g78
g59
NtRp5493
(dp5494
g62
(dp5495
sg71
g5489
sg64
(lp5496
g57
(g58
g59
NtRp5497
(dp5498
g62
(dp5499
g70
I1
ssg71
g5493
sg64
(lp5500
I00
asbasbasbag57
(g73
g59
NtRp5501
(dp5502
g62
(dp5503
sg71
g5472
sg64
(lp5504
g57
(g78
g59
NtRp5505
(dp5506
g62
(dp5507
sg71
g5501
sg64
(lp5508
g57
(g58
g59
NtRp5509
(dp5510
g62
(dp5511
g70
I1
ssg71
g5505
sg64
(lp5512
Nasbasbasbag57
(g73
g59
NtRp5513
(dp5514
g62
(dp5515
sg71
g5472
sg64
(lp5516
g57
(g78
g59
NtRp5517
(dp5518
g62
(dp5519
sg71
g5513
sg64
(lp5520
g57
(g58
g59
NtRp5521
(dp5522
g62
(dp5523
g70
I1
ssg71
g5517
sg64
(lp5524
(lp5525
(g4989
(S's\x06\x00\x00\x00Groups'
tRp5526
I00
S'http://www.web2py.com/examples/default/usergroups'
p5527
tp5528
a(g4989
(S's\x07\x00\x00\x00Twitter'
tRp5529
I00
S'http://twitter.com/web2py'
p5530
tp5531
a(g4989
(S's\t\x00\x00\x00Live Chat'
tRp5532
I00
S'http://webchat.freenode.net/?channels=web2py'
p5533
tp5534
aasbasbasbasbasbasbasbag57
(g73
g59
NtRp5535
(dp5536
g62
(dp5537
sg71
g5102
sg64
(lp5538
g57
(g78
g59
NtRp5539
(dp5540
g62
(dp5541
sg71
g5535
sg64
(lp5542
g57
(g58
g59
NtRp5543
(dp5544
g62
(dp5545
g70
I2
ssg71
g5539
sg64
(lp5546
g57
(g66
g59
NtRp5547
(dp5548
g62
(dp5549
g70
I1
ssg71
Nsg64
(lp5550
g57
(g73
g59
NtRp5551
(dp5552
g62
(dp5553
sg71
g5547
sg64
(lp5554
g57
(g78
g59
NtRp5555
(dp5556
g62
(dp5557
sg71
g5551
sg64
(lp5558
g57
(g58
g59
NtRp5559
(dp5560
g62
(dp5561
g70
I1
ssg71
g5555
sg64
(lp5562
g4989
(S's\x07\x00\x00\x00Plugins'
tRp5563
asbasbasbag57
(g73
g59
NtRp5564
(dp5565
g62
(dp5566
sg71
g5547
sg64
(lp5567
g57
(g78
g59
NtRp5568
(dp5569
g62
(dp5570
sg71
g5564
sg64
(lp5571
g57
(g58
g59
NtRp5572
(dp5573
g62
(dp5574
g70
I1
ssg71
g5568
sg64
(lp5575
I00
asbasbasbag57
(g73
g59
NtRp5576
(dp5577
g62
(dp5578
sg71
g5547
sg64
(lp5579
g57
(g78
g59
NtRp5580
(dp5581
g62
(dp5582
sg71
g5576
sg64
(lp5583
g57
(g58
g59
NtRp5584
(dp5585
g62
(dp5586
g70
I1
ssg71
g5580
sg64
(lp5587
Nasbasbasbag57
(g73
g59
NtRp5588
(dp5589
g62
(dp5590
sg71
g5547
sg64
(lp5591
g57
(g78
g59
NtRp5592
(dp5593
g62
(dp5594
sg71
g5588
sg64
(lp5595
g57
(g58
g59
NtRp5596
(dp5597
g62
(dp5598
g70
I1
ssg71
g5592
sg64
(lp5599
(lp5600
(S'plugin_wiki'
p5601
I00
S'http://web2py.com/examples/default/download'
p5602
tp5603
a(g4989
(S's\r\x00\x00\x00Other Plugins'
tRp5604
I00
g5334
tp5605
a(g4989
(S's\x0e\x00\x00\x00Layout Plugins'
tRp5606
I00
g5337
tp5607
aasbasbasbasbasbasbasbasbasbasbasbasbasbasbasbasbasbasbasbag57
(g73
g59
NtRp5608
(dp5609
g62
(dp5610
sg71
g4455
sg64
(lp5611
g57
(g78
g59
NtRp5612
(dp5613
g62
(dp5614
g82
g83
ssg71
g5608
sg64
(lp5615
S'meta'
p5616
asbag57
(g78
g59
NtRp5617
(dp5618
g62
(dp5619
g89
g90
ssg71
g5608
sg64
(lp5620
S':'
asbag57
(g78
g59
NtRp5621
(dp5622
g62
(dp5623
sg71
g5608
sg64
(lp5624
g57
(g58
g59
NtRp5625
(dp5626
g62
(dp5627
g70
I5
ssg71
g5621
sg64
(lp5628
g57
(g66
g59
NtRp5629
(dp5630
g62
(dp5631
g70
I4
ssg71
Nsg64
(lp5632
g57
(g73
g59
NtRp5633
(dp5634
g62
(dp5635
sg71
g5629
sg64
(lp5636
g57
(g78
g59
NtRp5637
(dp5638
g62
(dp5639
g82
g83
ssg71
g5633
sg64
(lp5640
S'author'
p5641
asbag57
(g78
g59
NtRp5642
(dp5643
g62
(dp5644
g89
g90
ssg71
g5633
sg64
(lp5645
S':'
asbag57
(g78
g59
NtRp5646
(dp5647
g62
(dp5648
sg71
g5633
sg64
(lp5649
g57
(g58
g59
NtRp5650
(dp5651
g62
(dp5652
g70
I4
ssg71
g5646
sg64
(lp5653
S'Your Name <you@example.com>'
p5654
asbasbasbag57
(g73
g59
NtRp5655
(dp5656
g62
(dp5657
sg71
g5629
sg64
(lp5658
g57
(g78
g59
NtRp5659
(dp5660
g62
(dp5661
g82
g83
ssg71
g5655
sg64
(lp5662
S'description'
p5663
asbag57
(g78
g59
NtRp5664
(dp5665
g62
(dp5666
g89
g90
ssg71
g5655
sg64
(lp5667
S':'
asbag57
(g78
g59
NtRp5668
(dp5669
g62
(dp5670
sg71
g5655
sg64
(lp5671
g57
(g58
g59
NtRp5672
(dp5673
g62
(dp5674
g70
I4
ssg71
g5668
sg64
(lp5675
S'a cool new app'
p5676
asbasbasbag57
(g73
g59
NtRp5677
(dp5678
g62
(dp5679
sg71
g5629
sg64
(lp5680
g57
(g78
g59
NtRp5681
(dp5682
g62
(dp5683
g82
g83
ssg71
g5677
sg64
(lp5684
S'generator'
p5685
asbag57
(g78
g59
NtRp5686
(dp5687
g62
(dp5688
g89
g90
ssg71
g5677
sg64
(lp5689
S':'
asbag57
(g78
g59
NtRp5690
(dp5691
g62
(dp5692
sg71
g5677
sg64
(lp5693
g57
(g58
g59
NtRp5694
(dp5695
g62
(dp5696
g70
I4
ssg71
g5690
sg64
(lp5697
S'Web2py Web Framework'
p5698
asbasbasbag57
(g73
g59
NtRp5699
(dp5700
g62
(dp5701
sg71
g5629
sg64
(lp5702
g57
(g78
g59
NtRp5703
(dp5704
g62
(dp5705
g82
g83
ssg71
g5699
sg64
(lp5706
S'keywords'
p5707
asbag57
(g78
g59
NtRp5708
(dp5709
g62
(dp5710
g89
g90
ssg71
g5699
sg64
(lp5711
S':'
asbag57
(g78
g59
NtRp5712
(dp5713
g62
(dp5714
sg71
g5699
sg64
(lp5715
g57
(g58
g59
NtRp5716
(dp5717
g62
(dp5718
g70
I4
ssg71
g5712
sg64
(lp5719
S'web2py, python, framework'
p5720
asbasbasbasbasbasbasbag57
(g73
g59
NtRp5721
(dp5722
g62
(dp5723
sg71
g4455
sg64
(lp5724
g57
(g78
g59
NtRp5725
(dp5726
g62
(dp5727
g82
g83
ssg71
g5721
sg64
(lp5728
S'models_to_run'
p5729
asbag57
(g78
g59
NtRp5730
(dp5731
g62
(dp5732
g89
g90
ssg71
g5721
sg64
(lp5733
S':'
asbag57
(g78
g59
NtRp5734
(dp5735
g62
(dp5736
sg71
g5721
sg64
(lp5737
g57
(g58
g59
NtRp5738
(dp5739
g62
(dp5740
g70
I5
ssg71
g5734
sg64
(lp5741
g57
(g66
g59
NtRp5742
(dp5743
g62
(dp5744
g70
I4
ssg71
Nsg64
(lp5745
g57
(g73
g59
NtRp5746
(dp5747
g62
(dp5748
sg71
g5742
sg64
(lp5749
g57
(g78
g59
NtRp5750
(dp5751
g62
(dp5752
sg71
g5746
sg64
(lp5753
g57
(g58
g59
NtRp5754
(dp5755
g62
(dp5756
g70
I4
ssg71
g5750
sg64
(lp5757
S'^\\w+\\.py$'
p5758
asbasbasbag57
(g73
g59
NtRp5759
(dp5760
g62
(dp5761
sg71
g5742
sg64
(lp5762
g57
(g78
g59
NtRp5763
(dp5764
g62
(dp5765
sg71
g5759
sg64
(lp5766
g57
(g58
g59
NtRp5767
(dp5768
g62
(dp5769
g70
I4
ssg71
g5763
sg64
(lp5770
S'^default/\\w+\\.py$'
p5771
asbasbasbag57
(g73
g59
NtRp5772
(dp5773
g62
(dp5774
sg71
g5742
sg64
(lp5775
g57
(g78
g59
NtRp5776
(dp5777
g62
(dp5778
sg71
g5772
sg64
(lp5779
g57
(g58
g59
NtRp5780
(dp5781
g62
(dp5782
g70
I4
ssg71
g5776
sg64
(lp5783
S'^default/edit_status/\\w+\\.py$'
p5784
asbasbasbasbasbasbasbag57
(g73
g59
NtRp5785
(dp5786
g62
(dp5787
sg71
g4455
sg64
(lp5788
g57
(g78
g59
NtRp5789
(dp5790
g62
(dp5791
g82
g83
ssg71
g5785
sg64
(lp5792
S'postprocessing'
p5793
asbag57
(g78
g59
NtRp5794
(dp5795
g62
(dp5796
g89
g90
ssg71
g5785
sg64
(lp5797
S':'
asbag57
(g78
g59
NtRp5798
(dp5799
g62
(dp5800
sg71
g5785
sg64
(lp5801
g57
(g58
g59
NtRp5802
(dp5803
g62
(dp5804
g70
I5
ssg71
g5798
sg64
(lp5805
g57
(g66
g59
NtRp5806
(dp5807
g62
(dp5808
g70
I4
ssg71
Nsg64
(lp5809
sbasbasbasbag57
(g73
g59
NtRp5810
(dp5811
g62
(dp5812
sg71
g4455
sg64
(lp5813
g57
(g78
g59
NtRp5814
(dp5815
g62
(dp5816
g82
g83
ssg71
g5810
sg64
(lp5817
S'session_cookie_expires'
p5818
asbag57
(g78
g59
NtRp5819
(dp5820
g62
(dp5821
g89
g90
ssg71
g5810
sg64
(lp5822
S':'
asbag57
(g78
g59
NtRp5823
(dp5824
g62
(dp5825
sg71
g5810
sg64
(lp5826
g57
(g58
g59
NtRp5827
(dp5828
g62
(dp5829
g70
I5
ssg71
g5823
sg64
(lp5830
S'None'
p5831
asbasbasbag57
(g73
g59
NtRp5832
(dp5833
g62
(dp5834
sg71
g4455
sg64
(lp5835
g57
(g78
g59
NtRp5836
(dp5837
g62
(dp5838
g82
g83
ssg71
g5832
sg64
(lp5839
S'session_data_name'
p5840
asbag57
(g78
g59
NtRp5841
(dp5842
g62
(dp5843
g89
g90
ssg71
g5832
sg64
(lp5844
S':'
asbag57
(g78
g59
NtRp5845
(dp5846
g62
(dp5847
sg71
g5832
sg64
(lp5848
g57
(g58
g59
NtRp5849
(dp5850
g62
(dp5851
g70
I5
ssg71
g5845
sg64
(lp5852
S'session_data_garbage_truck'
p5853
asbasbasbag57
(g73
g59
NtRp5854
(dp5855
g62
(dp5856
sg71
g4455
sg64
(lp5857
g57
(g78
g59
NtRp5858
(dp5859
g62
(dp5860
g82
g83
ssg71
g5854
sg64
(lp5861
S'session_file'
p5862
asbag57
(g78
g59
NtRp5863
(dp5864
g62
(dp5865
g89
g90
ssg71
g5854
sg64
(lp5866
S':'
asbag57
(g78
g59
NtRp5867
(dp5868
g62
(dp5869
sg71
g5854
sg64
(lp5870
g57
(g58
g59
NtRp5871
(dp5872
g62
(dp5873
g70
I5
ssg71
g5867
sg64
(lp5874
S"<open file '/home/darshan/web2py/applications/Garbage_Truck/sessions/127.0.0.1-eb5e8630-3789-44cf-90c0-4c0a37fc535a', mode 'rb+' at 0x7f9289bda9c0>"
p5875
asbasbasbag57
(g73
g59
NtRp5876
(dp5877
g62
(dp5878
sg71
g4455
sg64
(lp5879
g57
(g78
g59
NtRp5880
(dp5881
g62
(dp5882
g82
g83
ssg71
g5876
sg64
(lp5883
S'session_filename'
p5884
asbag57
(g78
g59
NtRp5885
(dp5886
g62
(dp5887
g89
g90
ssg71
g5876
sg64
(lp5888
S':'
asbag57
(g78
g59
NtRp5889
(dp5890
g62
(dp5891
sg71
g5876
sg64
(lp5892
g57
(g58
g59
NtRp5893
(dp5894
g62
(dp5895
g70
I5
ssg71
g5889
sg64
(lp5896
S'/home/darshan/web2py/applications/Garbage_Truck/sessions/127.0.0.1-eb5e8630-3789-44cf-90c0-4c0a37fc535a'
p5897
asbasbasbag57
(g73
g59
NtRp5898
(dp5899
g62
(dp5900
sg71
g4455
sg64
(lp5901
g57
(g78
g59
NtRp5902
(dp5903
g62
(dp5904
g82
g83
ssg71
g5898
sg64
(lp5905
S'session_id'
p5906
asbag57
(g78
g59
NtRp5907
(dp5908
g62
(dp5909
g89
g90
ssg71
g5898
sg64
(lp5910
S':'
asbag57
(g78
g59
NtRp5911
(dp5912
g62
(dp5913
sg71
g5898
sg64
(lp5914
g57
(g58
g59
NtRp5915
(dp5916
g62
(dp5917
g70
I5
ssg71
g5911
sg64
(lp5918
g673
asbasbasbag57
(g73
g59
NtRp5919
(dp5920
g62
(dp5921
sg71
g4455
sg64
(lp5922
g57
(g78
g59
NtRp5923
(dp5924
g62
(dp5925
g82
g83
ssg71
g5919
sg64
(lp5926
S'session_id_name'
p5927
asbag57
(g78
g59
NtRp5928
(dp5929
g62
(dp5930
g89
g90
ssg71
g5919
sg64
(lp5931
S':'
asbag57
(g78
g59
NtRp5932
(dp5933
g62
(dp5934
sg71
g5919
sg64
(lp5935
g57
(g58
g59
NtRp5936
(dp5937
g62
(dp5938
g70
I5
ssg71
g5932
sg64
(lp5939
g4512
asbasbasbag57
(g73
g59
NtRp5940
(dp5941
g62
(dp5942
sg71
g4455
sg64
(lp5943
g57
(g78
g59
NtRp5944
(dp5945
g62
(dp5946
g82
g83
ssg71
g5940
sg64
(lp5947
S'session_locked'
p5948
asbag57
(g78
g59
NtRp5949
(dp5950
g62
(dp5951
g89
g90
ssg71
g5940
sg64
(lp5952
S':'
asbag57
(g78
g59
NtRp5953
(dp5954
g62
(dp5955
sg71
g5940
sg64
(lp5956
g57
(g58
g59
NtRp5957
(dp5958
g62
(dp5959
g70
I5
ssg71
g5953
sg64
(lp5960
g2382
asbasbasbag57
(g73
g59
NtRp5961
(dp5962
g62
(dp5963
sg71
g4455
sg64
(lp5964
g57
(g78
g59
NtRp5965
(dp5966
g62
(dp5967
g82
g83
ssg71
g5961
sg64
(lp5968
S'session_new'
p5969
asbag57
(g78
g59
NtRp5970
(dp5971
g62
(dp5972
g89
g90
ssg71
g5961
sg64
(lp5973
S':'
asbag57
(g78
g59
NtRp5974
(dp5975
g62
(dp5976
sg71
g5961
sg64
(lp5977
g57
(g58
g59
NtRp5978
(dp5979
g62
(dp5980
g70
I5
ssg71
g5974
sg64
(lp5981
g100
asbasbasbag57
(g73
g59
NtRp5982
(dp5983
g62
(dp5984
sg71
g4455
sg64
(lp5985
g57
(g78
g59
NtRp5986
(dp5987
g62
(dp5988
g82
g83
ssg71
g5982
sg64
(lp5989
S'session_storage_type'
p5990
asbag57
(g78
g59
NtRp5991
(dp5992
g62
(dp5993
g89
g90
ssg71
g5982
sg64
(lp5994
S':'
asbag57
(g78
g59
NtRp5995
(dp5996
g62
(dp5997
sg71
g5982
sg64
(lp5998
g57
(g58
g59
NtRp5999
(dp6000
g62
(dp6001
g70
I5
ssg71
g5995
sg64
(lp6002
g3855
asbasbasbag57
(g73
g59
NtRp6003
(dp6004
g62
(dp6005
sg71
g4455
sg64
(lp6006
g57
(g78
g59
NtRp6007
(dp6008
g62
(dp6009
g82
g83
ssg71
g6003
sg64
(lp6010
S'status'
p6011
asbag57
(g78
g59
NtRp6012
(dp6013
g62
(dp6014
g89
g90
ssg71
g6003
sg64
(lp6015
S':'
asbag57
(g78
g59
NtRp6016
(dp6017
g62
(dp6018
sg71
g6003
sg64
(lp6019
g57
(g58
g59
NtRp6020
(dp6021
g62
(dp6022
g70
I5
ssg71
g6016
sg64
(lp6023
S'200'
p6024
asbasbasbag57
(g73
g59
NtRp6025
(dp6026
g62
(dp6027
sg71
g4455
sg64
(lp6028
g57
(g78
g59
NtRp6029
(dp6030
g62
(dp6031
g82
g83
ssg71
g6025
sg64
(lp6032
S'subtitle'
p6033
asbag57
(g78
g59
NtRp6034
(dp6035
g62
(dp6036
g89
g90
ssg71
g6025
sg64
(lp6037
S':'
asbag57
(g78
g59
NtRp6038
(dp6039
g62
(dp6040
sg71
g6025
sg64
(lp6041
g57
(g58
g59
NtRp6042
(dp6043
g62
(dp6044
g70
I5
ssg71
g6038
sg64
(lp6045
g4989
(S's\r\x00\x00\x00customize me!'
tRp6046
asbasbasbag57
(g73
g59
NtRp6047
(dp6048
g62
(dp6049
sg71
g4455
sg64
(lp6050
g57
(g78
g59
NtRp6051
(dp6052
g62
(dp6053
g82
g83
ssg71
g6047
sg64
(lp6054
S'title'
p6055
asbag57
(g78
g59
NtRp6056
(dp6057
g62
(dp6058
g89
g90
ssg71
g6047
sg64
(lp6059
S':'
asbag57
(g78
g59
NtRp6060
(dp6061
g62
(dp6062
sg71
g6047
sg64
(lp6063
g57
(g58
g59
NtRp6064
(dp6065
g62
(dp6066
g70
I5
ssg71
g6060
sg64
(lp6067
S'Garbage Truck'
p6068
asbasbasbag57
(g73
g59
NtRp6069
(dp6070
g62
(dp6071
sg71
g4455
sg64
(lp6072
g57
(g78
g59
NtRp6073
(dp6074
g62
(dp6075
g82
g83
ssg71
g6069
sg64
(lp6076
S'view'
p6077
asbag57
(g78
g59
NtRp6078
(dp6079
g62
(dp6080
g89
g90
ssg71
g6069
sg64
(lp6081
S':'
asbag57
(g78
g59
NtRp6082
(dp6083
g62
(dp6084
sg71
g6069
sg64
(lp6085
g57
(g58
g59
NtRp6086
(dp6087
g62
(dp6088
g70
I5
ssg71
g6082
sg64
(lp6089
S'default/edit_status.html'
p6090
asbasbasbasbasbsS'locals'
p6091
(dp6092
g189
S"'1'"
p6093
sS'd'
S"{'Completed': 5, 'Observed': 2, 'Processing': 4, 'Received': 1, 'Verified': 3}"
p6094
sS'l'
S"['a']"
p6095
sssS'traceback'
p6096
S'Traceback (most recent call last):\n  File "/home/darshan/web2py/gluon/restricted.py", line 212, in restricted\n    exec ccode in environment\n  File "/home/darshan/web2py/applications/Garbage_Truck/controllers/default.py", line 214, in <module>\n  File "/home/darshan/web2py/gluon/globals.py", line 193, in <lambda>\n    self._caller = lambda f: f()\n  File "/home/darshan/web2py/gluon/tools.py", line 2929, in f\n    return action(*a, **b)\n  File "/home/darshan/web2py/gluon/tools.py", line 2929, in f\n    return action(*a, **b)\n  File "/home/darshan/web2py/applications/Garbage_Truck/controllers/default.py", line 118, in edit_status\n    INPUT(_name=\'status\',requires=IS_IN_SET(a)),\nNameError: global name \'a\' is not defined\n'
p6097
s.