(dp1
S'output'
p2
S"<type 'exceptions.SyntaxError'> EOL while scanning string literal (request_reservior_view.html, line 59)"
p3
sS'layer'
p4
S'/home/darshan/web2py/applications/Garbage_Truck/views/default/request_reservior_view.html'
p5
sS'code'
p6
S'response.write(\'<!DOCTYPE html PUBLIC "-//W3C//DTD XHTML 1.0 Strict//EN" "http://www.w3.org/TR/xhtml1/DTD/xhtml1-strict.dtd">\\n<!--\\n\\nDesign by Free CSS Templates\\nhttp://www.freecsstemplates.org\\nReleased for free under a Creative Commons Attribution 2.5 License\\n\\nTitle      : Interlude\\nVersion    : 1.0\\nReleased   : 20080903\\nDescription: A multi-column, fixed-width design for 800x600 resolutions.\\n\\n-->\\n<html xmlns="http://www.w3.org/1999/xhtml">\\n <head>\\n  <title>\\n   \', escape=False)\nresponse.write(response.title or request.application)\nresponse.write(\'\\n  </title>\\n  \', escape=False)\nresponse.files.append(URL(request.application,\'static\',\'plugin_layouts/layouts/Interlude/default.css\'))\nresponse.write(\'\\n  \', escape=False)\nresponse.files.append(URL(\'static\',\'plugin_layouts/superfish.js\'))\nresponse.write(\'\\n  \', escape=False)\nresponse.write(\'<script type="text/javascript"><!--\\n    // These variables are used by the web2py_ajax_init function in web2py_ajax.js (which is loaded below).\\n    var w2p_ajax_confirm_message = "\', escape=False)\nresponse.write(T(\'Are you sure you want to delete this object?\'))\nresponse.write(\'";\\n    var w2p_ajax_date_format = "\', escape=False)\nresponse.write(T(\'%Y-%m-%d\'))\nresponse.write(\'";\\n    var w2p_ajax_datetime_format = "\', escape=False)\nresponse.write(T(\'%Y-%m-%d %H:%M:%S\'))\nresponse.write(\'";\\n    //--></script>\\n\', escape=False)\nresponse.files.insert(0,URL(\'static\',\'js/jquery.js\'))\nresponse.files.insert(1,URL(\'static\',\'css/calendar.css\'))\nresponse.files.insert(2,URL(\'static\',\'js/calendar.js\'))\nresponse.files.insert(3,URL(\'static\',\'js/web2py.js\'))\nresponse.include_meta()\nresponse.include_files()\nresponse.write(\'\\n\', escape=False)\nresponse.write(\'\\n  <style>\\nul.web2py-menu-vertical { width: 150px; position: relative; top:1em; left:1em;  z-index:30; border:0; margin:0; padding: 0; list-style: none; text-decoration: none;}\\nul.web2py-menu-vertical li { margin:0; padding:0; border:0; width: 150px; background: black; text-align:left;}\\nul.web2py-menu-vertical li a { margin:0; padding: 1px 3px 1px 3px; border:0; width: 144px; color: white; font-size:12px;}\\ndiv.flash { position: fixed; float: right; padding: 10px; top: 10px; right: 30px; opacity: 0.75; margin: 10px 10px 10px 10px; text-align: center; clear: both; color: #fff; font-size: 11pt; text-align: center; vertical-align: middle; cursor: pointer; background: black; border: 2px solid #fff; -moz-border-radius: 5px; -webkit-border-radius: 5px; z-index: 2; }\\ndiv.error { background-color: red; color: white; padding: 3px; }\\n.auth_navbar { text-align:right; z-index:20; position: absolute; top: 2px; right:30px; border:0; padding:0 }\\n  </style>\\n </head>\\n <body>\\n  <!-- start header -->\\n  \', escape=False)\ntry:\n    response.write(auth.navbar(action=URL(\'default\',\'user\')))\nexcept:pass\nresponse.write(\'\\n\\n  <!-- start header -->\\n  <div id="header">\\n   <div id="logo">\\n    <h1>\\n     \', escape=False)\nresponse.write(response.title or request.application)\nresponse.write(\'\\n    </h1>\\n    <p>\\n     <a href="http://www.freecsstemplates.org/">\\n      Design by Free CSS Templates\\n     </a>\\n    </p>\\n   </div>\\n   <div id="menu">\\n    \', escape=False)\nresponse.write(MENU(response.menu,_class=\'web2py-menu\'))\nresponse.write(\'\\n    <script>\\n      jQuery(document).ready(function(){jQuery(\\\'ul.web2py-menu\\\').superfish({delay:400});});\\n    </script>\\n   </div>\\n  </div>\\n  <hr />\\n  <!-- end header -->\\n  <!-- start page -->\\n  <div id="wrapper">\\n   <div id="page">\\n    <!-- start content -->\\n    <div id="content">\\n     <div class="flash">\', escape=False)\nresponse.write(response.flash or \'\')\nresponse.write(\'</div>\\n     \', escape=False)\nresponse.write(\'\\n\', escape=False)\nfor i in d:\n    response.write(\'\\n\', escape=False)\n    s=d[i]\n    response.write(\'\\n<h2>\', escape=False)\n    response.write(i)\n    response.write(\'</h2>\\n\', escape=False)\n    for j in s:\n        response.write(\'\\n\', escape=False)\n        nam=j.auth_user.first_name+\' \'+j.auth_user.last_name\n        response.write(\'<br>\\nRequest By :\', escape=False)\n        response.write(nam)\n        response.write(\'<br>\\nComments : \', escape=False)\n        response.write(j.request_collection.comment1)\n        response.write(\'<br>\\nLocation : \', escape=False)\n        response.write(j.request_collection.location1)\n        response.write(\'<br>\\n\', escape=False)\n        stat = j.request_collection.status\n        if stat==\'1\':\n            disp=\'Received\'\n        elif stat==\'2\':\n            disp=\'Observed\'\n        elif stat==\'3\':\n            disp=\'Verified\'\n        elif stat==\'4\':\n            disp=\'Processing\'\n        elif stat==\'2:\n            disp=\'Completed\'\n            pass\n        response.write(\'\\nStatus : \', escape=False)\n        response.write(disp)\n        response.write(\' &nbsp;&nbsp;\\n<a href="\', escape=False)\n        response.write(URL(\'edit_status\',args=[i.request_collection.id]))\n        response.write(\'">Edit</a>\\n<br><br><br>\\n\', escape=False)\n        pass\n    response.write(\'\\n<br><br><br><br><br><br>\\n\', escape=False)\n    pass\nresponse.write(\'\\n\', escape=False)\nresponse.write(\'\\n    </div>\\n    <!-- end content -->\\n    <!-- start sidebar -->\\n    <div id="sidebar">\\n     <ul>\\n      <li id="categories">\\n       <h2>\\n        Categories\\n       </h2>\\n       <ul>\\n        <li>\\n         <a href="#">\\n          Lorem Ipsum\\n         </a>\\n         (1)\\n        </li>\\n        <li>\\n         <a href="#">\\n          Uncategorized\\n         </a>\\n         (4)\\n        </li>\\n        <li>\\n         <a href="#">\\n          Nulla luctus eleifend\\n         </a>\\n         (1)\\n        </li>\\n        <li>\\n         <a href="#">\\n          Pellentesque tempus\\n         </a>\\n         (4)\\n        </li>\\n        <li>\\n         <a href="#">\\n          Donec dictum metus\\n         </a>\\n         (1)\\n        </li>\\n        <li>\\n         <a href="#">\\n          Etiam posuere augue\\n         </a>\\n         (4)\\n        </li>\\n       </ul>\\n      </li>\\n      <li id="calendar">\\n       <h2>\\n        Calendar\\n       </h2>\\n       <div id="calendar_wrap">\\n        <table id="wp-calendar" summary="Calendar">\\n         <caption>\\n          September 2008\\n         </caption>\\n         <thead>\\n          <tr>\\n           <th abbr="Monday" scope="col" title="Monday">\\n            M\\n           </th>\\n           <th abbr="Tuesday" scope="col" title="Tuesday">\\n            T\\n           </th>\\n           <th abbr="Wednesday" scope="col" title="Wednesday">\\n            W\\n           </th>\\n           <th abbr="Thursday" scope="col" title="Thursday">\\n            T\\n           </th>\\n           <th abbr="Friday" scope="col" title="Friday">\\n            F\\n           </th>\\n           <th abbr="Saturday" scope="col" title="Saturday">\\n            S\\n           </th>\\n           <th abbr="Sunday" scope="col" title="Sunday">\\n            S\\n           </th>\\n          </tr>\\n         </thead>\\n         <tfoot>\\n          <tr>\\n           <td abbr="July" colspan="3" id="prev">\\n            <a href="#">\\n             &laquo; Jul\\n            </a>\\n           </td>\\n           <td class="pad">\\n            &nbsp;\\n           </td>\\n           <td abbr="September" colspan="3" id="next" class="pad">\\n            <a href="#">\\n             Sep &raquo;\\n            </a>\\n           </td>\\n          </tr>\\n         </tfoot>\\n         <tbody>\\n          <tr>\\n           <td colspan="2" class="pad">\\n            &nbsp;\\n           </td>\\n           <td>\\n            1\\n           </td>\\n           <td>\\n            2\\n           </td>\\n           <td>\\n            3\\n           </td>\\n           <td>\\n            4\\n           </td>\\n           <td>\\n            5\\n           </td>\\n          </tr>\\n          <tr>\\n           <td>\\n            6\\n           </td>\\n           <td>\\n            7\\n           </td>\\n           <td>\\n            8\\n           </td>\\n           <td>\\n            9\\n           </td>\\n           <td>\\n            10\\n           </td>\\n           <td>\\n            11\\n           </td>\\n           <td>\\n            12\\n           </td>\\n          </tr>\\n          <tr>\\n           <td>\\n            13\\n           </td>\\n           <td>\\n            14\\n           </td>\\n           <td>\\n            15\\n           </td>\\n           <td>\\n            16\\n           </td>\\n           <td>\\n            17\\n           </td>\\n           <td>\\n            18\\n           </td>\\n           <td>\\n            19\\n           </td>\\n          </tr>\\n          <tr>\\n           <td>\\n            20\\n           </td>\\n           <td id="today">\\n            21\\n           </td>\\n           <td>\\n            22\\n           </td>\\n           <td>\\n            23\\n           </td>\\n           <td>\\n            24\\n           </td>\\n           <td>\\n            25\\n           </td>\\n           <td>\\n            26\\n           </td>\\n          </tr>\\n          <tr>\\n           <td>\\n            27\\n           </td>\\n           <td>\\n            28\\n           </td>\\n           <td>\\n            29\\n           </td>\\n           <td>\\n            30\\n           </td>\\n           <td>\\n            31\\n           </td>\\n           <td class="pad" colspan="2">\\n            &nbsp;\\n           </td>\\n          </tr>\\n         </tbody>\\n        </table>\\n       </div>\\n      </li>\\n      <li>\\n       <h2>\\n        Lorem Ipsum Dolor\\n       </h2>\\n       <ul>\\n        <li>\\n         <a href="#">\\n          Nulla luctus eleifend purus\\n         </a>\\n        </li>\\n        <li>\\n         <a href="#">\\n          Praesent scelerisque scelerisque erat\\n         </a>\\n        </li>\\n        <li>\\n         <a href="#">\\n          Ut nonummy rutrum sem\\n         </a>\\n        </li>\\n        <li>\\n         <a href="#">\\n          Pellentesque tempus quam quis nulla\\n         </a>\\n        </li>\\n        <li>\\n         <a href="#">\\n          Fusce ultrices fringilla metus\\n         </a>\\n        </li>\\n        <li>\\n         <a href="#">\\n          Praesent mattis condimentum nisl\\n         </a>\\n        </li>\\n       </ul>\\n      </li>\\n     </ul>\\n    </div>\\n    <!-- end sidebar -->\\n    <br style="clear: both;" />\\n   </div>\\n  </div>\\n  <!-- end page -->\\n  <!-- start footer -->\\n  <div id="wrapper2">\\n   <div id="footer">\\n    <ul>\\n     <li class="first">\\n      <h2>\\n       Mauris vulputate dolor\\n      </h2>\\n      <ul>\\n       <li>\\n        <a href="#">\\n         Nulla luctus eleifend purus\\n        </a>\\n       </li>\\n       <li>\\n        <a href="#">\\n         Praesent scelerisque scelerisque erat\\n        </a>\\n       </li>\\n       <li>\\n        <a href="#">\\n         Ut nonummy rutrum sem\\n        </a>\\n       </li>\\n       <li>\\n        <a href="#">\\n         Pellentesque tempus quam quis nulla\\n        </a>\\n       </li>\\n       <li>\\n        <a href="#">\\n         Fusce ultrices fringilla metus\\n        </a>\\n       </li>\\n       <li>\\n        <a href="#">\\n         Praesent mattis condimentum nisl\\n        </a>\\n       </li>\\n      </ul>\\n     </li>\\n     <li>\\n      <h2>\\n       Praesent scelerisque sceler\\n      </h2>\\n      <ul>\\n       <li>\\n        <a href="#">\\n         Nulla luctus eleifend purus\\n        </a>\\n       </li>\\n       <li>\\n        <a href="#">\\n         Praesent scelerisque scelerisque erat\\n        </a>\\n       </li>\\n       <li>\\n        <a href="#">\\n         Ut nonummy rutrum sem\\n        </a>\\n       </li>\\n       <li>\\n        <a href="#">\\n         Pellentesque tempus quam quis nulla\\n        </a>\\n       </li>\\n       <li>\\n        <a href="#">\\n         Fusce ultrices fringilla metus\\n        </a>\\n       </li>\\n       <li>\\n        <a href="#">\\n         Praesent mattis condimentum nisl\\n        </a>\\n       </li>\\n      </ul>\\n     </li>\\n     <li>\\n      <h2>\\n       Fusce ultrices fringilla\\n      </h2>\\n      <ul>\\n       <li>\\n        <a href="#">\\n         Nulla luctus eleifend purus\\n        </a>\\n       </li>\\n       <li>\\n        <a href="#">\\n         Praesent scelerisque scelerisque erat\\n        </a>\\n       </li>\\n       <li>\\n        <a href="#">\\n         Ut nonummy rutrum sem\\n        </a>\\n       </li>\\n       <li>\\n        <a href="#">\\n         Pellentesque tempus quam quis nulla\\n        </a>\\n       </li>\\n       <li>\\n        <a href="#">\\n         Fusce ultrices fringilla metus\\n        </a>\\n       </li>\\n       <li>\\n        <a href="#">\\n         Praesent mattis condimentum nisl\\n        </a>\\n       </li>\\n      </ul>\\n     </li>\\n    </ul>\\n   </div>\\n   <p id="legal">\\n    &copy;2007 Interlude. All Rights Reserved.\\n\\t\\t&nbsp;&nbsp;&bull;&nbsp;&nbsp;\\n\\t\\tDesign by\\n    <a href="http://www.freecsstemplates.org/">\\n     Free CSS Templates\\n    </a>\\n    &nbsp;&nbsp;&bull;&nbsp;&nbsp;\\n\\t\\tIcons by\\n    <a href="http://famfamfam.com/">\\n     FAMFAMFAM\\n    </a>\\n    .\\n    <a href="http://validator.w3.org/check/referer" class="xhtml" title="This page validates as XHTML">\\n     Valid\\n     <abbr title="eXtensible HyperText Markup Language">\\n      XHTML\\n     </abbr>\\n    </a>\\n    &nbsp;&nbsp;&bull;&nbsp;&nbsp;\\n    <a href="http://jigsaw.w3.org/css-validator/check/referer" class="css" title="This page validates as CSS">\\n     Valid\\n     <abbr title="Cascading Style Sheets">\\n      CSS\\n     </abbr>\\n    </a>\\n   </p>\\n  </div>\\n  <!-- end footer -->\\n </body>\\n</html>\\n\', escape=False)'
p7
sS'snapshot'
p8
(dp9
S'exception'
p10
(dp11
S'__getslice__'
p12
S"<method-wrapper '__getslice__' of exceptions.SyntaxError object>"
p13
sS'text'
p14
S'"        elif stat==\'2:\\n"'
p15
sS'__str__'
p16
S"<method-wrapper '__str__' of exceptions.SyntaxError object>"
p17
sS'__reduce__'
p18
S'<built-in method __reduce__ of exceptions.SyntaxError object>'
p19
sS'__dict__'
p20
S'{}'
p21
sS'__sizeof__'
p22
S'<built-in method __sizeof__ of exceptions.SyntaxError object>'
p23
sS'__init__'
p24
S"<method-wrapper '__init__' of exceptions.SyntaxError object>"
p25
sS'__setattr__'
p26
S"<method-wrapper '__setattr__' of exceptions.SyntaxError object>"
p27
sS'__reduce_ex__'
p28
S'<built-in method __reduce_ex__ of exceptions.SyntaxError object>'
p29
sS'__new__'
p30
S'<built-in method __new__ of type object>'
p31
sS'__format__'
p32
S'<built-in method __format__ of exceptions.SyntaxError object>'
p33
sS'__class__'
p34
S"<type 'exceptions.SyntaxError'>"
p35
sS'filename'
p36
S"'/home/darshan/web2py/applications/Garbage_Truck/views/default/request_reservior_view.html'"
p37
sS'lineno'
p38
S'59'
p39
sS'msg'
p40
S"'EOL while scanning string literal'"
p41
sS'__doc__'
p42
S"'Invalid syntax.'"
p43
sS'__getitem__'
p44
S"<method-wrapper '__getitem__' of exceptions.SyntaxError object>"
p45
sS'__setstate__'
p46
S'<built-in method __setstate__ of exceptions.SyntaxError object>'
p47
sS'__getattribute__'
p48
S"<method-wrapper '__getattribute__' of exceptions.SyntaxError object>"
p49
sS'print_file_and_line'
p50
S'None'
p51
sS'args'
p52
S'(\'EOL while scanning string literal\', (\'/home/darshan/web2py/applications/Garbage_Truck/views/default/request_reservior_view.html\', 59, 22, "        elif stat==\'2:\\n"))'
p53
sS'__subclasshook__'
p54
S'<built-in method __subclasshook__ of type object>'
p55
sS'offset'
p56
S'22'
p57
sS'__unicode__'
p58
S'<built-in method __unicode__ of exceptions.SyntaxError object>'
p59
sS'__delattr__'
p60
S"<method-wrapper '__delattr__' of exceptions.SyntaxError object>"
p61
sS'__repr__'
p62
S"<method-wrapper '__repr__' of exceptions.SyntaxError object>"
p63
sS'__hash__'
p64
S"<method-wrapper '__hash__' of exceptions.SyntaxError object>"
p65
ssS'evalue'
p66
S'EOL while scanning string literal (request_reservior_view.html, line 59)'
p67
sS'request'
p68
ccopy_reg
_reconstructor
p69
(cgluon.html
BEAUTIFY
p70
c__builtin__
object
p71
NtRp72
(dp73
S'attributes'
p74
(dp75
sS'components'
p76
(lp77
g69
(cgluon.html
TABLE
p78
g71
NtRp79
(dp80
g74
(dp81
S'level'
p82
I5
ssS'parent'
p83
Nsg76
(lp84
g69
(cgluon.html
TR
p85
g71
NtRp86
(dp87
g74
(dp88
sg83
g79
sg76
(lp89
g69
(cgluon.html
TD
p90
g71
NtRp91
(dp92
g74
(dp93
S'_style'
p94
S'font-weight:bold;vertical-align:top'
p95
ssg83
g86
sg76
(lp96
S'ajax'
p97
asbag69
(g90
g71
NtRp98
(dp99
g74
(dp100
S'_valign'
p101
S'top'
p102
ssg83
g86
sg76
(lp103
S':'
asbag69
(g90
g71
NtRp104
(dp105
g74
(dp106
sg83
g86
sg76
(lp107
g69
(g70
g71
NtRp108
(dp109
g74
(dp110
g82
I5
ssg83
g104
sg76
(lp111
S'False'
p112
asbasbasbag69
(g85
g71
NtRp113
(dp114
g74
(dp115
sg83
g79
sg76
(lp116
g69
(g90
g71
NtRp117
(dp118
g74
(dp119
g94
g95
ssg83
g113
sg76
(lp120
S'application'
p121
asbag69
(g90
g71
NtRp122
(dp123
g74
(dp124
g101
g102
ssg83
g113
sg76
(lp125
S':'
asbag69
(g90
g71
NtRp126
(dp127
g74
(dp128
sg83
g113
sg76
(lp129
g69
(g70
g71
NtRp130
(dp131
g74
(dp132
g82
I5
ssg83
g126
sg76
(lp133
S'Garbage_Truck'
p134
asbasbasbag69
(g85
g71
NtRp135
(dp136
g74
(dp137
sg83
g79
sg76
(lp138
g69
(g90
g71
NtRp139
(dp140
g74
(dp141
g94
g95
ssg83
g135
sg76
(lp142
g52
asbag69
(g90
g71
NtRp143
(dp144
g74
(dp145
g101
g102
ssg83
g135
sg76
(lp146
S':'
asbag69
(g90
g71
NtRp147
(dp148
g74
(dp149
sg83
g135
sg76
(lp150
g69
(g70
g71
NtRp151
(dp152
g74
(dp153
g82
I5
ssg83
g147
sg76
(lp154
g69
(g78
g71
NtRp155
(dp156
g74
(dp157
g82
I4
ssg83
Nsg76
(lp158
sbasbasbasbag69
(g85
g71
NtRp159
(dp160
g74
(dp161
sg83
g79
sg76
(lp162
g69
(g90
g71
NtRp163
(dp164
g74
(dp165
g94
g95
ssg83
g159
sg76
(lp166
S'body'
p167
asbag69
(g90
g71
NtRp168
(dp169
g74
(dp170
g101
g102
ssg83
g159
sg76
(lp171
S':'
asbag69
(g90
g71
NtRp172
(dp173
g74
(dp174
sg83
g159
sg76
(lp175
g69
(g70
g71
NtRp176
(dp177
g74
(dp178
g82
I5
ssg83
g172
sg76
(lp179
S'<cStringIO.StringO object at 0x7f928970ea78>'
p180
asbasbasbag69
(g85
g71
NtRp181
(dp182
g74
(dp183
sg83
g79
sg76
(lp184
g69
(g90
g71
NtRp185
(dp186
g74
(dp187
g94
g95
ssg83
g181
sg76
(lp188
S'cid'
p189
asbag69
(g90
g71
NtRp190
(dp191
g74
(dp192
g101
g102
ssg83
g181
sg76
(lp193
S':'
asbag69
(g90
g71
NtRp194
(dp195
g74
(dp196
sg83
g181
sg76
(lp197
g69
(g70
g71
NtRp198
(dp199
g74
(dp200
g82
I5
ssg83
g194
sg76
(lp201
S'None'
p202
asbasbasbag69
(g85
g71
NtRp203
(dp204
g74
(dp205
sg83
g79
sg76
(lp206
g69
(g90
g71
NtRp207
(dp208
g74
(dp209
g94
g95
ssg83
g203
sg76
(lp210
S'client'
p211
asbag69
(g90
g71
NtRp212
(dp213
g74
(dp214
g101
g102
ssg83
g203
sg76
(lp215
S':'
asbag69
(g90
g71
NtRp216
(dp217
g74
(dp218
sg83
g203
sg76
(lp219
g69
(g70
g71
NtRp220
(dp221
g74
(dp222
g82
I5
ssg83
g216
sg76
(lp223
S'127.0.0.1'
p224
asbasbasbag69
(g85
g71
NtRp225
(dp226
g74
(dp227
sg83
g79
sg76
(lp228
g69
(g90
g71
NtRp229
(dp230
g74
(dp231
g94
g95
ssg83
g225
sg76
(lp232
S'controller'
p233
asbag69
(g90
g71
NtRp234
(dp235
g74
(dp236
g101
g102
ssg83
g225
sg76
(lp237
S':'
asbag69
(g90
g71
NtRp238
(dp239
g74
(dp240
sg83
g225
sg76
(lp241
g69
(g70
g71
NtRp242
(dp243
g74
(dp244
g82
I5
ssg83
g238
sg76
(lp245
S'default'
p246
asbasbasbag69
(g85
g71
NtRp247
(dp248
g74
(dp249
sg83
g79
sg76
(lp250
g69
(g90
g71
NtRp251
(dp252
g74
(dp253
g94
g95
ssg83
g247
sg76
(lp254
S'cookies'
p255
asbag69
(g90
g71
NtRp256
(dp257
g74
(dp258
g101
g102
ssg83
g247
sg76
(lp259
S':'
asbag69
(g90
g71
NtRp260
(dp261
g74
(dp262
sg83
g247
sg76
(lp263
g69
(g70
g71
NtRp264
(dp265
g74
(dp266
g82
I5
ssg83
g260
sg76
(lp267
g69
(g78
g71
NtRp268
(dp269
g74
(dp270
g82
I4
ssg83
Nsg76
(lp271
g69
(g85
g71
NtRp272
(dp273
g74
(dp274
sg83
g268
sg76
(lp275
g69
(g90
g71
NtRp276
(dp277
g74
(dp278
g94
g95
ssg83
g272
sg76
(lp279
S'csrftoken'
p280
asbag69
(g90
g71
NtRp281
(dp282
g74
(dp283
g101
g102
ssg83
g272
sg76
(lp284
S':'
asbag69
(g90
g71
NtRp285
(dp286
g74
(dp287
sg83
g272
sg76
(lp288
g69
(g70
g71
NtRp289
(dp290
g74
(dp291
g82
I4
ssg83
g285
sg76
(lp292
S'a9lCt5w7Q4OG437IZNwjtNB3YEdWYXWm'
p293
ag69
(g78
g71
NtRp294
(dp295
g74
(dp296
g82
I3
ssg83
Nsg76
(lp297
g69
(g85
g71
NtRp298
(dp299
g74
(dp300
sg83
g294
sg76
(lp301
g69
(g90
g71
NtRp302
(dp303
g74
(dp304
g94
g95
ssg83
g298
sg76
(lp305
S'comment'
p306
asbag69
(g90
g71
NtRp307
(dp308
g74
(dp309
g101
g102
ssg83
g298
sg76
(lp310
S':'
asbag69
(g90
g71
NtRp311
(dp312
g74
(dp313
sg83
g298
sg76
(lp314
g69
(g70
g71
NtRp315
(dp316
g74
(dp317
g82
I3
ssg83
g311
sg76
(lp318
S''
asbasbasbag69
(g85
g71
NtRp319
(dp320
g74
(dp321
sg83
g294
sg76
(lp322
g69
(g90
g71
NtRp323
(dp324
g74
(dp325
g94
g95
ssg83
g319
sg76
(lp326
S'domain'
p327
asbag69
(g90
g71
NtRp328
(dp329
g74
(dp330
g101
g102
ssg83
g319
sg76
(lp331
S':'
asbag69
(g90
g71
NtRp332
(dp333
g74
(dp334
sg83
g319
sg76
(lp335
g69
(g70
g71
NtRp336
(dp337
g74
(dp338
g82
I3
ssg83
g332
sg76
(lp339
S''
asbasbasbag69
(g85
g71
NtRp340
(dp341
g74
(dp342
sg83
g294
sg76
(lp343
g69
(g90
g71
NtRp344
(dp345
g74
(dp346
g94
g95
ssg83
g340
sg76
(lp347
S'expires'
p348
asbag69
(g90
g71
NtRp349
(dp350
g74
(dp351
g101
g102
ssg83
g340
sg76
(lp352
S':'
asbag69
(g90
g71
NtRp353
(dp354
g74
(dp355
sg83
g340
sg76
(lp356
g69
(g70
g71
NtRp357
(dp358
g74
(dp359
g82
I3
ssg83
g353
sg76
(lp360
S''
asbasbasbag69
(g85
g71
NtRp361
(dp362
g74
(dp363
sg83
g294
sg76
(lp364
g69
(g90
g71
NtRp365
(dp366
g74
(dp367
g94
g95
ssg83
g361
sg76
(lp368
S'httponly'
p369
asbag69
(g90
g71
NtRp370
(dp371
g74
(dp372
g101
g102
ssg83
g361
sg76
(lp373
S':'
asbag69
(g90
g71
NtRp374
(dp375
g74
(dp376
sg83
g361
sg76
(lp377
g69
(g70
g71
NtRp378
(dp379
g74
(dp380
g82
I3
ssg83
g374
sg76
(lp381
S''
asbasbasbag69
(g85
g71
NtRp382
(dp383
g74
(dp384
sg83
g294
sg76
(lp385
g69
(g90
g71
NtRp386
(dp387
g74
(dp388
g94
g95
ssg83
g382
sg76
(lp389
S'max-age'
p390
asbag69
(g90
g71
NtRp391
(dp392
g74
(dp393
g101
g102
ssg83
g382
sg76
(lp394
S':'
asbag69
(g90
g71
NtRp395
(dp396
g74
(dp397
sg83
g382
sg76
(lp398
g69
(g70
g71
NtRp399
(dp400
g74
(dp401
g82
I3
ssg83
g395
sg76
(lp402
S''
asbasbasbag69
(g85
g71
NtRp403
(dp404
g74
(dp405
sg83
g294
sg76
(lp406
g69
(g90
g71
NtRp407
(dp408
g74
(dp409
g94
g95
ssg83
g403
sg76
(lp410
S'path'
p411
asbag69
(g90
g71
NtRp412
(dp413
g74
(dp414
g101
g102
ssg83
g403
sg76
(lp415
S':'
asbag69
(g90
g71
NtRp416
(dp417
g74
(dp418
sg83
g403
sg76
(lp419
g69
(g70
g71
NtRp420
(dp421
g74
(dp422
g82
I3
ssg83
g416
sg76
(lp423
S''
asbasbasbag69
(g85
g71
NtRp424
(dp425
g74
(dp426
sg83
g294
sg76
(lp427
g69
(g90
g71
NtRp428
(dp429
g74
(dp430
g94
g95
ssg83
g424
sg76
(lp431
S'secure'
p432
asbag69
(g90
g71
NtRp433
(dp434
g74
(dp435
g101
g102
ssg83
g424
sg76
(lp436
S':'
asbag69
(g90
g71
NtRp437
(dp438
g74
(dp439
sg83
g424
sg76
(lp440
g69
(g70
g71
NtRp441
(dp442
g74
(dp443
g82
I3
ssg83
g437
sg76
(lp444
S''
asbasbasbag69
(g85
g71
NtRp445
(dp446
g74
(dp447
sg83
g294
sg76
(lp448
g69
(g90
g71
NtRp449
(dp450
g74
(dp451
g94
g95
ssg83
g445
sg76
(lp452
S'version'
p453
asbag69
(g90
g71
NtRp454
(dp455
g74
(dp456
g101
g102
ssg83
g445
sg76
(lp457
S':'
asbag69
(g90
g71
NtRp458
(dp459
g74
(dp460
sg83
g445
sg76
(lp461
g69
(g70
g71
NtRp462
(dp463
g74
(dp464
g82
I3
ssg83
g458
sg76
(lp465
S''
asbasbasbasbasbasbasbag69
(g85
g71
NtRp466
(dp467
g74
(dp468
sg83
g268
sg76
(lp469
g69
(g90
g71
NtRp470
(dp471
g74
(dp472
g94
g95
ssg83
g466
sg76
(lp473
S'session_id_admin'
p474
asbag69
(g90
g71
NtRp475
(dp476
g74
(dp477
g101
g102
ssg83
g466
sg76
(lp478
S':'
asbag69
(g90
g71
NtRp479
(dp480
g74
(dp481
sg83
g466
sg76
(lp482
g69
(g70
g71
NtRp483
(dp484
g74
(dp485
g82
I4
ssg83
g479
sg76
(lp486
S'127.0.0.1-e6c203e9-d008-4610-8523-5a0e93da9abb'
p487
ag69
(g78
g71
NtRp488
(dp489
g74
(dp490
g82
I3
ssg83
Nsg76
(lp491
g69
(g85
g71
NtRp492
(dp493
g74
(dp494
sg83
g488
sg76
(lp495
g69
(g90
g71
NtRp496
(dp497
g74
(dp498
g94
g95
ssg83
g492
sg76
(lp499
g306
asbag69
(g90
g71
NtRp500
(dp501
g74
(dp502
g101
g102
ssg83
g492
sg76
(lp503
S':'
asbag69
(g90
g71
NtRp504
(dp505
g74
(dp506
sg83
g492
sg76
(lp507
g69
(g70
g71
NtRp508
(dp509
g74
(dp510
g82
I3
ssg83
g504
sg76
(lp511
S''
asbasbasbag69
(g85
g71
NtRp512
(dp513
g74
(dp514
sg83
g488
sg76
(lp515
g69
(g90
g71
NtRp516
(dp517
g74
(dp518
g94
g95
ssg83
g512
sg76
(lp519
g327
asbag69
(g90
g71
NtRp520
(dp521
g74
(dp522
g101
g102
ssg83
g512
sg76
(lp523
S':'
asbag69
(g90
g71
NtRp524
(dp525
g74
(dp526
sg83
g512
sg76
(lp527
g69
(g70
g71
NtRp528
(dp529
g74
(dp530
g82
I3
ssg83
g524
sg76
(lp531
S''
asbasbasbag69
(g85
g71
NtRp532
(dp533
g74
(dp534
sg83
g488
sg76
(lp535
g69
(g90
g71
NtRp536
(dp537
g74
(dp538
g94
g95
ssg83
g532
sg76
(lp539
g348
asbag69
(g90
g71
NtRp540
(dp541
g74
(dp542
g101
g102
ssg83
g532
sg76
(lp543
S':'
asbag69
(g90
g71
NtRp544
(dp545
g74
(dp546
sg83
g532
sg76
(lp547
g69
(g70
g71
NtRp548
(dp549
g74
(dp550
g82
I3
ssg83
g544
sg76
(lp551
S''
asbasbasbag69
(g85
g71
NtRp552
(dp553
g74
(dp554
sg83
g488
sg76
(lp555
g69
(g90
g71
NtRp556
(dp557
g74
(dp558
g94
g95
ssg83
g552
sg76
(lp559
g369
asbag69
(g90
g71
NtRp560
(dp561
g74
(dp562
g101
g102
ssg83
g552
sg76
(lp563
S':'
asbag69
(g90
g71
NtRp564
(dp565
g74
(dp566
sg83
g552
sg76
(lp567
g69
(g70
g71
NtRp568
(dp569
g74
(dp570
g82
I3
ssg83
g564
sg76
(lp571
S''
asbasbasbag69
(g85
g71
NtRp572
(dp573
g74
(dp574
sg83
g488
sg76
(lp575
g69
(g90
g71
NtRp576
(dp577
g74
(dp578
g94
g95
ssg83
g572
sg76
(lp579
g390
asbag69
(g90
g71
NtRp580
(dp581
g74
(dp582
g101
g102
ssg83
g572
sg76
(lp583
S':'
asbag69
(g90
g71
NtRp584
(dp585
g74
(dp586
sg83
g572
sg76
(lp587
g69
(g70
g71
NtRp588
(dp589
g74
(dp590
g82
I3
ssg83
g584
sg76
(lp591
S''
asbasbasbag69
(g85
g71
NtRp592
(dp593
g74
(dp594
sg83
g488
sg76
(lp595
g69
(g90
g71
NtRp596
(dp597
g74
(dp598
g94
g95
ssg83
g592
sg76
(lp599
g411
asbag69
(g90
g71
NtRp600
(dp601
g74
(dp602
g101
g102
ssg83
g592
sg76
(lp603
S':'
asbag69
(g90
g71
NtRp604
(dp605
g74
(dp606
sg83
g592
sg76
(lp607
g69
(g70
g71
NtRp608
(dp609
g74
(dp610
g82
I3
ssg83
g604
sg76
(lp611
S''
asbasbasbag69
(g85
g71
NtRp612
(dp613
g74
(dp614
sg83
g488
sg76
(lp615
g69
(g90
g71
NtRp616
(dp617
g74
(dp618
g94
g95
ssg83
g612
sg76
(lp619
g432
asbag69
(g90
g71
NtRp620
(dp621
g74
(dp622
g101
g102
ssg83
g612
sg76
(lp623
S':'
asbag69
(g90
g71
NtRp624
(dp625
g74
(dp626
sg83
g612
sg76
(lp627
g69
(g70
g71
NtRp628
(dp629
g74
(dp630
g82
I3
ssg83
g624
sg76
(lp631
S''
asbasbasbag69
(g85
g71
NtRp632
(dp633
g74
(dp634
sg83
g488
sg76
(lp635
g69
(g90
g71
NtRp636
(dp637
g74
(dp638
g94
g95
ssg83
g632
sg76
(lp639
g453
asbag69
(g90
g71
NtRp640
(dp641
g74
(dp642
g101
g102
ssg83
g632
sg76
(lp643
S':'
asbag69
(g90
g71
NtRp644
(dp645
g74
(dp646
sg83
g632
sg76
(lp647
g69
(g70
g71
NtRp648
(dp649
g74
(dp650
g82
I3
ssg83
g644
sg76
(lp651
S''
asbasbasbasbasbasbasbag69
(g85
g71
NtRp652
(dp653
g74
(dp654
sg83
g268
sg76
(lp655
g69
(g90
g71
NtRp656
(dp657
g74
(dp658
g94
g95
ssg83
g652
sg76
(lp659
S'session_id_garbage_truck'
p660
asbag69
(g90
g71
NtRp661
(dp662
g74
(dp663
g101
g102
ssg83
g652
sg76
(lp664
S':'
asbag69
(g90
g71
NtRp665
(dp666
g74
(dp667
sg83
g652
sg76
(lp668
g69
(g70
g71
NtRp669
(dp670
g74
(dp671
g82
I4
ssg83
g665
sg76
(lp672
S'127.0.0.1-eb5e8630-3789-44cf-90c0-4c0a37fc535a'
p673
ag69
(g78
g71
NtRp674
(dp675
g74
(dp676
g82
I3
ssg83
Nsg76
(lp677
g69
(g85
g71
NtRp678
(dp679
g74
(dp680
sg83
g674
sg76
(lp681
g69
(g90
g71
NtRp682
(dp683
g74
(dp684
g94
g95
ssg83
g678
sg76
(lp685
g306
asbag69
(g90
g71
NtRp686
(dp687
g74
(dp688
g101
g102
ssg83
g678
sg76
(lp689
S':'
asbag69
(g90
g71
NtRp690
(dp691
g74
(dp692
sg83
g678
sg76
(lp693
g69
(g70
g71
NtRp694
(dp695
g74
(dp696
g82
I3
ssg83
g690
sg76
(lp697
S''
asbasbasbag69
(g85
g71
NtRp698
(dp699
g74
(dp700
sg83
g674
sg76
(lp701
g69
(g90
g71
NtRp702
(dp703
g74
(dp704
g94
g95
ssg83
g698
sg76
(lp705
g327
asbag69
(g90
g71
NtRp706
(dp707
g74
(dp708
g101
g102
ssg83
g698
sg76
(lp709
S':'
asbag69
(g90
g71
NtRp710
(dp711
g74
(dp712
sg83
g698
sg76
(lp713
g69
(g70
g71
NtRp714
(dp715
g74
(dp716
g82
I3
ssg83
g710
sg76
(lp717
S''
asbasbasbag69
(g85
g71
NtRp718
(dp719
g74
(dp720
sg83
g674
sg76
(lp721
g69
(g90
g71
NtRp722
(dp723
g74
(dp724
g94
g95
ssg83
g718
sg76
(lp725
g348
asbag69
(g90
g71
NtRp726
(dp727
g74
(dp728
g101
g102
ssg83
g718
sg76
(lp729
S':'
asbag69
(g90
g71
NtRp730
(dp731
g74
(dp732
sg83
g718
sg76
(lp733
g69
(g70
g71
NtRp734
(dp735
g74
(dp736
g82
I3
ssg83
g730
sg76
(lp737
S''
asbasbasbag69
(g85
g71
NtRp738
(dp739
g74
(dp740
sg83
g674
sg76
(lp741
g69
(g90
g71
NtRp742
(dp743
g74
(dp744
g94
g95
ssg83
g738
sg76
(lp745
g369
asbag69
(g90
g71
NtRp746
(dp747
g74
(dp748
g101
g102
ssg83
g738
sg76
(lp749
S':'
asbag69
(g90
g71
NtRp750
(dp751
g74
(dp752
sg83
g738
sg76
(lp753
g69
(g70
g71
NtRp754
(dp755
g74
(dp756
g82
I3
ssg83
g750
sg76
(lp757
S''
asbasbasbag69
(g85
g71
NtRp758
(dp759
g74
(dp760
sg83
g674
sg76
(lp761
g69
(g90
g71
NtRp762
(dp763
g74
(dp764
g94
g95
ssg83
g758
sg76
(lp765
g390
asbag69
(g90
g71
NtRp766
(dp767
g74
(dp768
g101
g102
ssg83
g758
sg76
(lp769
S':'
asbag69
(g90
g71
NtRp770
(dp771
g74
(dp772
sg83
g758
sg76
(lp773
g69
(g70
g71
NtRp774
(dp775
g74
(dp776
g82
I3
ssg83
g770
sg76
(lp777
S''
asbasbasbag69
(g85
g71
NtRp778
(dp779
g74
(dp780
sg83
g674
sg76
(lp781
g69
(g90
g71
NtRp782
(dp783
g74
(dp784
g94
g95
ssg83
g778
sg76
(lp785
g411
asbag69
(g90
g71
NtRp786
(dp787
g74
(dp788
g101
g102
ssg83
g778
sg76
(lp789
S':'
asbag69
(g90
g71
NtRp790
(dp791
g74
(dp792
sg83
g778
sg76
(lp793
g69
(g70
g71
NtRp794
(dp795
g74
(dp796
g82
I3
ssg83
g790
sg76
(lp797
S''
asbasbasbag69
(g85
g71
NtRp798
(dp799
g74
(dp800
sg83
g674
sg76
(lp801
g69
(g90
g71
NtRp802
(dp803
g74
(dp804
g94
g95
ssg83
g798
sg76
(lp805
g432
asbag69
(g90
g71
NtRp806
(dp807
g74
(dp808
g101
g102
ssg83
g798
sg76
(lp809
S':'
asbag69
(g90
g71
NtRp810
(dp811
g74
(dp812
sg83
g798
sg76
(lp813
g69
(g70
g71
NtRp814
(dp815
g74
(dp816
g82
I3
ssg83
g810
sg76
(lp817
S''
asbasbasbag69
(g85
g71
NtRp818
(dp819
g74
(dp820
sg83
g674
sg76
(lp821
g69
(g90
g71
NtRp822
(dp823
g74
(dp824
g94
g95
ssg83
g818
sg76
(lp825
g453
asbag69
(g90
g71
NtRp826
(dp827
g74
(dp828
g101
g102
ssg83
g818
sg76
(lp829
S':'
asbag69
(g90
g71
NtRp830
(dp831
g74
(dp832
sg83
g818
sg76
(lp833
g69
(g70
g71
NtRp834
(dp835
g74
(dp836
g82
I3
ssg83
g830
sg76
(lp837
S''
asbasbasbasbasbasbasbag69
(g85
g71
NtRp838
(dp839
g74
(dp840
sg83
g268
sg76
(lp841
g69
(g90
g71
NtRp842
(dp843
g74
(dp844
g94
g95
ssg83
g838
sg76
(lp845
S'session_id_isas'
p846
asbag69
(g90
g71
NtRp847
(dp848
g74
(dp849
g101
g102
ssg83
g838
sg76
(lp850
S':'
asbag69
(g90
g71
NtRp851
(dp852
g74
(dp853
sg83
g838
sg76
(lp854
g69
(g70
g71
NtRp855
(dp856
g74
(dp857
g82
I4
ssg83
g851
sg76
(lp858
S'127.0.0.1-46261fb6-868f-4eb5-ae61-7251ec9ac039'
p859
ag69
(g78
g71
NtRp860
(dp861
g74
(dp862
g82
I3
ssg83
Nsg76
(lp863
g69
(g85
g71
NtRp864
(dp865
g74
(dp866
sg83
g860
sg76
(lp867
g69
(g90
g71
NtRp868
(dp869
g74
(dp870
g94
g95
ssg83
g864
sg76
(lp871
g306
asbag69
(g90
g71
NtRp872
(dp873
g74
(dp874
g101
g102
ssg83
g864
sg76
(lp875
S':'
asbag69
(g90
g71
NtRp876
(dp877
g74
(dp878
sg83
g864
sg76
(lp879
g69
(g70
g71
NtRp880
(dp881
g74
(dp882
g82
I3
ssg83
g876
sg76
(lp883
S''
asbasbasbag69
(g85
g71
NtRp884
(dp885
g74
(dp886
sg83
g860
sg76
(lp887
g69
(g90
g71
NtRp888
(dp889
g74
(dp890
g94
g95
ssg83
g884
sg76
(lp891
g327
asbag69
(g90
g71
NtRp892
(dp893
g74
(dp894
g101
g102
ssg83
g884
sg76
(lp895
S':'
asbag69
(g90
g71
NtRp896
(dp897
g74
(dp898
sg83
g884
sg76
(lp899
g69
(g70
g71
NtRp900
(dp901
g74
(dp902
g82
I3
ssg83
g896
sg76
(lp903
S''
asbasbasbag69
(g85
g71
NtRp904
(dp905
g74
(dp906
sg83
g860
sg76
(lp907
g69
(g90
g71
NtRp908
(dp909
g74
(dp910
g94
g95
ssg83
g904
sg76
(lp911
g348
asbag69
(g90
g71
NtRp912
(dp913
g74
(dp914
g101
g102
ssg83
g904
sg76
(lp915
S':'
asbag69
(g90
g71
NtRp916
(dp917
g74
(dp918
sg83
g904
sg76
(lp919
g69
(g70
g71
NtRp920
(dp921
g74
(dp922
g82
I3
ssg83
g916
sg76
(lp923
S''
asbasbasbag69
(g85
g71
NtRp924
(dp925
g74
(dp926
sg83
g860
sg76
(lp927
g69
(g90
g71
NtRp928
(dp929
g74
(dp930
g94
g95
ssg83
g924
sg76
(lp931
g369
asbag69
(g90
g71
NtRp932
(dp933
g74
(dp934
g101
g102
ssg83
g924
sg76
(lp935
S':'
asbag69
(g90
g71
NtRp936
(dp937
g74
(dp938
sg83
g924
sg76
(lp939
g69
(g70
g71
NtRp940
(dp941
g74
(dp942
g82
I3
ssg83
g936
sg76
(lp943
S''
asbasbasbag69
(g85
g71
NtRp944
(dp945
g74
(dp946
sg83
g860
sg76
(lp947
g69
(g90
g71
NtRp948
(dp949
g74
(dp950
g94
g95
ssg83
g944
sg76
(lp951
g390
asbag69
(g90
g71
NtRp952
(dp953
g74
(dp954
g101
g102
ssg83
g944
sg76
(lp955
S':'
asbag69
(g90
g71
NtRp956
(dp957
g74
(dp958
sg83
g944
sg76
(lp959
g69
(g70
g71
NtRp960
(dp961
g74
(dp962
g82
I3
ssg83
g956
sg76
(lp963
S''
asbasbasbag69
(g85
g71
NtRp964
(dp965
g74
(dp966
sg83
g860
sg76
(lp967
g69
(g90
g71
NtRp968
(dp969
g74
(dp970
g94
g95
ssg83
g964
sg76
(lp971
g411
asbag69
(g90
g71
NtRp972
(dp973
g74
(dp974
g101
g102
ssg83
g964
sg76
(lp975
S':'
asbag69
(g90
g71
NtRp976
(dp977
g74
(dp978
sg83
g964
sg76
(lp979
g69
(g70
g71
NtRp980
(dp981
g74
(dp982
g82
I3
ssg83
g976
sg76
(lp983
S''
asbasbasbag69
(g85
g71
NtRp984
(dp985
g74
(dp986
sg83
g860
sg76
(lp987
g69
(g90
g71
NtRp988
(dp989
g74
(dp990
g94
g95
ssg83
g984
sg76
(lp991
g432
asbag69
(g90
g71
NtRp992
(dp993
g74
(dp994
g101
g102
ssg83
g984
sg76
(lp995
S':'
asbag69
(g90
g71
NtRp996
(dp997
g74
(dp998
sg83
g984
sg76
(lp999
g69
(g70
g71
NtRp1000
(dp1001
g74
(dp1002
g82
I3
ssg83
g996
sg76
(lp1003
S''
asbasbasbag69
(g85
g71
NtRp1004
(dp1005
g74
(dp1006
sg83
g860
sg76
(lp1007
g69
(g90
g71
NtRp1008
(dp1009
g74
(dp1010
g94
g95
ssg83
g1004
sg76
(lp1011
g453
asbag69
(g90
g71
NtRp1012
(dp1013
g74
(dp1014
g101
g102
ssg83
g1004
sg76
(lp1015
S':'
asbag69
(g90
g71
NtRp1016
(dp1017
g74
(dp1018
sg83
g1004
sg76
(lp1019
g69
(g70
g71
NtRp1020
(dp1021
g74
(dp1022
g82
I3
ssg83
g1016
sg76
(lp1023
S''
asbasbasbasbasbasbasbag69
(g85
g71
NtRp1024
(dp1025
g74
(dp1026
sg83
g268
sg76
(lp1027
g69
(g90
g71
NtRp1028
(dp1029
g74
(dp1030
g94
g95
ssg83
g1024
sg76
(lp1031
S'session_id_readit'
p1032
asbag69
(g90
g71
NtRp1033
(dp1034
g74
(dp1035
g101
g102
ssg83
g1024
sg76
(lp1036
S':'
asbag69
(g90
g71
NtRp1037
(dp1038
g74
(dp1039
sg83
g1024
sg76
(lp1040
g69
(g70
g71
NtRp1041
(dp1042
g74
(dp1043
g82
I4
ssg83
g1037
sg76
(lp1044
S'127.0.0.1-e391c20a-8d22-4e6d-a1c8-f85c00f99b3d'
p1045
ag69
(g78
g71
NtRp1046
(dp1047
g74
(dp1048
g82
I3
ssg83
Nsg76
(lp1049
g69
(g85
g71
NtRp1050
(dp1051
g74
(dp1052
sg83
g1046
sg76
(lp1053
g69
(g90
g71
NtRp1054
(dp1055
g74
(dp1056
g94
g95
ssg83
g1050
sg76
(lp1057
g306
asbag69
(g90
g71
NtRp1058
(dp1059
g74
(dp1060
g101
g102
ssg83
g1050
sg76
(lp1061
S':'
asbag69
(g90
g71
NtRp1062
(dp1063
g74
(dp1064
sg83
g1050
sg76
(lp1065
g69
(g70
g71
NtRp1066
(dp1067
g74
(dp1068
g82
I3
ssg83
g1062
sg76
(lp1069
S''
asbasbasbag69
(g85
g71
NtRp1070
(dp1071
g74
(dp1072
sg83
g1046
sg76
(lp1073
g69
(g90
g71
NtRp1074
(dp1075
g74
(dp1076
g94
g95
ssg83
g1070
sg76
(lp1077
g327
asbag69
(g90
g71
NtRp1078
(dp1079
g74
(dp1080
g101
g102
ssg83
g1070
sg76
(lp1081
S':'
asbag69
(g90
g71
NtRp1082
(dp1083
g74
(dp1084
sg83
g1070
sg76
(lp1085
g69
(g70
g71
NtRp1086
(dp1087
g74
(dp1088
g82
I3
ssg83
g1082
sg76
(lp1089
S''
asbasbasbag69
(g85
g71
NtRp1090
(dp1091
g74
(dp1092
sg83
g1046
sg76
(lp1093
g69
(g90
g71
NtRp1094
(dp1095
g74
(dp1096
g94
g95
ssg83
g1090
sg76
(lp1097
g348
asbag69
(g90
g71
NtRp1098
(dp1099
g74
(dp1100
g101
g102
ssg83
g1090
sg76
(lp1101
S':'
asbag69
(g90
g71
NtRp1102
(dp1103
g74
(dp1104
sg83
g1090
sg76
(lp1105
g69
(g70
g71
NtRp1106
(dp1107
g74
(dp1108
g82
I3
ssg83
g1102
sg76
(lp1109
S''
asbasbasbag69
(g85
g71
NtRp1110
(dp1111
g74
(dp1112
sg83
g1046
sg76
(lp1113
g69
(g90
g71
NtRp1114
(dp1115
g74
(dp1116
g94
g95
ssg83
g1110
sg76
(lp1117
g369
asbag69
(g90
g71
NtRp1118
(dp1119
g74
(dp1120
g101
g102
ssg83
g1110
sg76
(lp1121
S':'
asbag69
(g90
g71
NtRp1122
(dp1123
g74
(dp1124
sg83
g1110
sg76
(lp1125
g69
(g70
g71
NtRp1126
(dp1127
g74
(dp1128
g82
I3
ssg83
g1122
sg76
(lp1129
S''
asbasbasbag69
(g85
g71
NtRp1130
(dp1131
g74
(dp1132
sg83
g1046
sg76
(lp1133
g69
(g90
g71
NtRp1134
(dp1135
g74
(dp1136
g94
g95
ssg83
g1130
sg76
(lp1137
g390
asbag69
(g90
g71
NtRp1138
(dp1139
g74
(dp1140
g101
g102
ssg83
g1130
sg76
(lp1141
S':'
asbag69
(g90
g71
NtRp1142
(dp1143
g74
(dp1144
sg83
g1130
sg76
(lp1145
g69
(g70
g71
NtRp1146
(dp1147
g74
(dp1148
g82
I3
ssg83
g1142
sg76
(lp1149
S''
asbasbasbag69
(g85
g71
NtRp1150
(dp1151
g74
(dp1152
sg83
g1046
sg76
(lp1153
g69
(g90
g71
NtRp1154
(dp1155
g74
(dp1156
g94
g95
ssg83
g1150
sg76
(lp1157
g411
asbag69
(g90
g71
NtRp1158
(dp1159
g74
(dp1160
g101
g102
ssg83
g1150
sg76
(lp1161
S':'
asbag69
(g90
g71
NtRp1162
(dp1163
g74
(dp1164
sg83
g1150
sg76
(lp1165
g69
(g70
g71
NtRp1166
(dp1167
g74
(dp1168
g82
I3
ssg83
g1162
sg76
(lp1169
S''
asbasbasbag69
(g85
g71
NtRp1170
(dp1171
g74
(dp1172
sg83
g1046
sg76
(lp1173
g69
(g90
g71
NtRp1174
(dp1175
g74
(dp1176
g94
g95
ssg83
g1170
sg76
(lp1177
g432
asbag69
(g90
g71
NtRp1178
(dp1179
g74
(dp1180
g101
g102
ssg83
g1170
sg76
(lp1181
S':'
asbag69
(g90
g71
NtRp1182
(dp1183
g74
(dp1184
sg83
g1170
sg76
(lp1185
g69
(g70
g71
NtRp1186
(dp1187
g74
(dp1188
g82
I3
ssg83
g1182
sg76
(lp1189
S''
asbasbasbag69
(g85
g71
NtRp1190
(dp1191
g74
(dp1192
sg83
g1046
sg76
(lp1193
g69
(g90
g71
NtRp1194
(dp1195
g74
(dp1196
g94
g95
ssg83
g1190
sg76
(lp1197
g453
asbag69
(g90
g71
NtRp1198
(dp1199
g74
(dp1200
g101
g102
ssg83
g1190
sg76
(lp1201
S':'
asbag69
(g90
g71
NtRp1202
(dp1203
g74
(dp1204
sg83
g1190
sg76
(lp1205
g69
(g70
g71
NtRp1206
(dp1207
g74
(dp1208
g82
I3
ssg83
g1202
sg76
(lp1209
S''
asbasbasbasbasbasbasbag69
(g85
g71
NtRp1210
(dp1211
g74
(dp1212
sg83
g268
sg76
(lp1213
g69
(g90
g71
NtRp1214
(dp1215
g74
(dp1216
g94
g95
ssg83
g1210
sg76
(lp1217
S'session_id_welcome'
p1218
asbag69
(g90
g71
NtRp1219
(dp1220
g74
(dp1221
g101
g102
ssg83
g1210
sg76
(lp1222
S':'
asbag69
(g90
g71
NtRp1223
(dp1224
g74
(dp1225
sg83
g1210
sg76
(lp1226
g69
(g70
g71
NtRp1227
(dp1228
g74
(dp1229
g82
I4
ssg83
g1223
sg76
(lp1230
S'127.0.0.1-2837c0cc-fb0c-4598-b75f-5727d328e2ad'
p1231
ag69
(g78
g71
NtRp1232
(dp1233
g74
(dp1234
g82
I3
ssg83
Nsg76
(lp1235
g69
(g85
g71
NtRp1236
(dp1237
g74
(dp1238
sg83
g1232
sg76
(lp1239
g69
(g90
g71
NtRp1240
(dp1241
g74
(dp1242
g94
g95
ssg83
g1236
sg76
(lp1243
g306
asbag69
(g90
g71
NtRp1244
(dp1245
g74
(dp1246
g101
g102
ssg83
g1236
sg76
(lp1247
S':'
asbag69
(g90
g71
NtRp1248
(dp1249
g74
(dp1250
sg83
g1236
sg76
(lp1251
g69
(g70
g71
NtRp1252
(dp1253
g74
(dp1254
g82
I3
ssg83
g1248
sg76
(lp1255
S''
asbasbasbag69
(g85
g71
NtRp1256
(dp1257
g74
(dp1258
sg83
g1232
sg76
(lp1259
g69
(g90
g71
NtRp1260
(dp1261
g74
(dp1262
g94
g95
ssg83
g1256
sg76
(lp1263
g327
asbag69
(g90
g71
NtRp1264
(dp1265
g74
(dp1266
g101
g102
ssg83
g1256
sg76
(lp1267
S':'
asbag69
(g90
g71
NtRp1268
(dp1269
g74
(dp1270
sg83
g1256
sg76
(lp1271
g69
(g70
g71
NtRp1272
(dp1273
g74
(dp1274
g82
I3
ssg83
g1268
sg76
(lp1275
S''
asbasbasbag69
(g85
g71
NtRp1276
(dp1277
g74
(dp1278
sg83
g1232
sg76
(lp1279
g69
(g90
g71
NtRp1280
(dp1281
g74
(dp1282
g94
g95
ssg83
g1276
sg76
(lp1283
g348
asbag69
(g90
g71
NtRp1284
(dp1285
g74
(dp1286
g101
g102
ssg83
g1276
sg76
(lp1287
S':'
asbag69
(g90
g71
NtRp1288
(dp1289
g74
(dp1290
sg83
g1276
sg76
(lp1291
g69
(g70
g71
NtRp1292
(dp1293
g74
(dp1294
g82
I3
ssg83
g1288
sg76
(lp1295
S''
asbasbasbag69
(g85
g71
NtRp1296
(dp1297
g74
(dp1298
sg83
g1232
sg76
(lp1299
g69
(g90
g71
NtRp1300
(dp1301
g74
(dp1302
g94
g95
ssg83
g1296
sg76
(lp1303
g369
asbag69
(g90
g71
NtRp1304
(dp1305
g74
(dp1306
g101
g102
ssg83
g1296
sg76
(lp1307
S':'
asbag69
(g90
g71
NtRp1308
(dp1309
g74
(dp1310
sg83
g1296
sg76
(lp1311
g69
(g70
g71
NtRp1312
(dp1313
g74
(dp1314
g82
I3
ssg83
g1308
sg76
(lp1315
S''
asbasbasbag69
(g85
g71
NtRp1316
(dp1317
g74
(dp1318
sg83
g1232
sg76
(lp1319
g69
(g90
g71
NtRp1320
(dp1321
g74
(dp1322
g94
g95
ssg83
g1316
sg76
(lp1323
g390
asbag69
(g90
g71
NtRp1324
(dp1325
g74
(dp1326
g101
g102
ssg83
g1316
sg76
(lp1327
S':'
asbag69
(g90
g71
NtRp1328
(dp1329
g74
(dp1330
sg83
g1316
sg76
(lp1331
g69
(g70
g71
NtRp1332
(dp1333
g74
(dp1334
g82
I3
ssg83
g1328
sg76
(lp1335
S''
asbasbasbag69
(g85
g71
NtRp1336
(dp1337
g74
(dp1338
sg83
g1232
sg76
(lp1339
g69
(g90
g71
NtRp1340
(dp1341
g74
(dp1342
g94
g95
ssg83
g1336
sg76
(lp1343
g411
asbag69
(g90
g71
NtRp1344
(dp1345
g74
(dp1346
g101
g102
ssg83
g1336
sg76
(lp1347
S':'
asbag69
(g90
g71
NtRp1348
(dp1349
g74
(dp1350
sg83
g1336
sg76
(lp1351
g69
(g70
g71
NtRp1352
(dp1353
g74
(dp1354
g82
I3
ssg83
g1348
sg76
(lp1355
S''
asbasbasbag69
(g85
g71
NtRp1356
(dp1357
g74
(dp1358
sg83
g1232
sg76
(lp1359
g69
(g90
g71
NtRp1360
(dp1361
g74
(dp1362
g94
g95
ssg83
g1356
sg76
(lp1363
g432
asbag69
(g90
g71
NtRp1364
(dp1365
g74
(dp1366
g101
g102
ssg83
g1356
sg76
(lp1367
S':'
asbag69
(g90
g71
NtRp1368
(dp1369
g74
(dp1370
sg83
g1356
sg76
(lp1371
g69
(g70
g71
NtRp1372
(dp1373
g74
(dp1374
g82
I3
ssg83
g1368
sg76
(lp1375
S''
asbasbasbag69
(g85
g71
NtRp1376
(dp1377
g74
(dp1378
sg83
g1232
sg76
(lp1379
g69
(g90
g71
NtRp1380
(dp1381
g74
(dp1382
g94
g95
ssg83
g1376
sg76
(lp1383
g453
asbag69
(g90
g71
NtRp1384
(dp1385
g74
(dp1386
g101
g102
ssg83
g1376
sg76
(lp1387
S':'
asbag69
(g90
g71
NtRp1388
(dp1389
g74
(dp1390
sg83
g1376
sg76
(lp1391
g69
(g70
g71
NtRp1392
(dp1393
g74
(dp1394
g82
I3
ssg83
g1388
sg76
(lp1395
S''
asbasbasbasbasbasbasbasbasbasbasbag69
(g85
g71
NtRp1396
(dp1397
g74
(dp1398
sg83
g79
sg76
(lp1399
g69
(g90
g71
NtRp1400
(dp1401
g74
(dp1402
g94
g95
ssg83
g1396
sg76
(lp1403
S'env'
p1404
asbag69
(g90
g71
NtRp1405
(dp1406
g74
(dp1407
g101
g102
ssg83
g1396
sg76
(lp1408
S':'
asbag69
(g90
g71
NtRp1409
(dp1410
g74
(dp1411
sg83
g1396
sg76
(lp1412
g69
(g70
g71
NtRp1413
(dp1414
g74
(dp1415
g82
I5
ssg83
g1409
sg76
(lp1416
g69
(g78
g71
NtRp1417
(dp1418
g74
(dp1419
g82
I4
ssg83
Nsg76
(lp1420
g69
(g85
g71
NtRp1421
(dp1422
g74
(dp1423
sg83
g1417
sg76
(lp1424
g69
(g90
g71
NtRp1425
(dp1426
g74
(dp1427
g94
g95
ssg83
g1421
sg76
(lp1428
S'app_folders'
p1429
asbag69
(g90
g71
NtRp1430
(dp1431
g74
(dp1432
g101
g102
ssg83
g1421
sg76
(lp1433
S':'
asbag69
(g90
g71
NtRp1434
(dp1435
g74
(dp1436
sg83
g1421
sg76
(lp1437
g69
(g70
g71
NtRp1438
(dp1439
g74
(dp1440
g82
I4
ssg83
g1434
sg76
(lp1441
S"set(['/home/darshan/web2py/applications/Isas/', '/home/darshan/web2py/applications/examples/', '/home/darshan/web2py/applications/readit/', '/home/darshan/web2py/applications/admin/', '/home/darshan/web2py/applications/Garbage_Truck/', '/home/darshan/web2py/applications/welcome/', '/home/darshan/web2py/applications/isas/'])"
p1442
asbasbasbag69
(g85
g71
NtRp1443
(dp1444
g74
(dp1445
sg83
g1417
sg76
(lp1446
g69
(g90
g71
NtRp1447
(dp1448
g74
(dp1449
g94
g95
ssg83
g1443
sg76
(lp1450
S'applications_parent'
p1451
asbag69
(g90
g71
NtRp1452
(dp1453
g74
(dp1454
g101
g102
ssg83
g1443
sg76
(lp1455
S':'
asbag69
(g90
g71
NtRp1456
(dp1457
g74
(dp1458
sg83
g1443
sg76
(lp1459
g69
(g70
g71
NtRp1460
(dp1461
g74
(dp1462
g82
I4
ssg83
g1456
sg76
(lp1463
S'/home/darshan/web2py'
p1464
asbasbasbag69
(g85
g71
NtRp1465
(dp1466
g74
(dp1467
sg83
g1417
sg76
(lp1468
g69
(g90
g71
NtRp1469
(dp1470
g74
(dp1471
g94
g95
ssg83
g1465
sg76
(lp1472
S'cmd_args'
p1473
asbag69
(g90
g71
NtRp1474
(dp1475
g74
(dp1476
g101
g102
ssg83
g1465
sg76
(lp1477
S':'
asbag69
(g90
g71
NtRp1478
(dp1479
g74
(dp1480
sg83
g1465
sg76
(lp1481
g69
(g70
g71
NtRp1482
(dp1483
g74
(dp1484
g82
I4
ssg83
g1478
sg76
(lp1485
g69
(g78
g71
NtRp1486
(dp1487
g74
(dp1488
g82
I3
ssg83
Nsg76
(lp1489
sbasbasbasbag69
(g85
g71
NtRp1490
(dp1491
g74
(dp1492
sg83
g1417
sg76
(lp1493
g69
(g90
g71
NtRp1494
(dp1495
g74
(dp1496
g94
g95
ssg83
g1490
sg76
(lp1497
S'cmd_options'
p1498
asbag69
(g90
g71
NtRp1499
(dp1500
g74
(dp1501
g101
g102
ssg83
g1490
sg76
(lp1502
S':'
asbag69
(g90
g71
NtRp1503
(dp1504
g74
(dp1505
sg83
g1490
sg76
(lp1506
g69
(g70
g71
NtRp1507
(dp1508
g74
(dp1509
g82
I4
ssg83
g1503
sg76
(lp1510
S"<Values at 0x7f92baaf7f80: {'verbose': False, 'ip': '127.0.0.1', 'with_scheduler': False, 'ips': [], 'shutdown_timeout': 5, 'taskbar': False, 'port': 8000, 'maxthreads': None, 'softcron': False, 'server_name': 'darshan-Inspiron-5520', 'bpython': False, 'nogui': False, 'pid_filename': 'httpserver.pid', 'extcron': False, 'runcron': False, 'run_system_tests': False, 'test': None, 'folder': '/home/darshan/web2py', 'config': '', 'minthreads': None, 'winservice': '', 'shell': None, 'run': '', 'log_filename': 'httpserver.log', 'debuglevel': 30, 'args': [''], 'socket_timeout': 5, 'ssl_ca_certificate': None, 'scheduler': None, 'profiler_filename': None, 'ssl_private_key': '', 'scheduler_groups': None, 'password': '<ask>', 'request_queue_size': 5, 'ssl_certificate': '', 'cronjob': False, 'numthreads': None, 'quiet': False, 'interfaces': None, 'import_models': False, 'timeout': 10, 'plain': False, 'nobanner': False}>"
p1511
asbasbasbag69
(g85
g71
NtRp1512
(dp1513
g74
(dp1514
sg83
g1417
sg76
(lp1515
g69
(g90
g71
NtRp1516
(dp1517
g74
(dp1518
g94
g95
ssg83
g1512
sg76
(lp1519
S'db_sessions'
p1520
asbag69
(g90
g71
NtRp1521
(dp1522
g74
(dp1523
g101
g102
ssg83
g1512
sg76
(lp1524
S':'
asbag69
(g90
g71
NtRp1525
(dp1526
g74
(dp1527
sg83
g1512
sg76
(lp1528
g69
(g70
g71
NtRp1529
(dp1530
g74
(dp1531
g82
I4
ssg83
g1525
sg76
(lp1532
S'set([])'
p1533
asbasbasbag69
(g85
g71
NtRp1534
(dp1535
g74
(dp1536
sg83
g1417
sg76
(lp1537
g69
(g90
g71
NtRp1538
(dp1539
g74
(dp1540
g94
g95
ssg83
g1534
sg76
(lp1541
S'debugging'
p1542
asbag69
(g90
g71
NtRp1543
(dp1544
g74
(dp1545
g101
g102
ssg83
g1534
sg76
(lp1546
S':'
asbag69
(g90
g71
NtRp1547
(dp1548
g74
(dp1549
sg83
g1534
sg76
(lp1550
g69
(g70
g71
NtRp1551
(dp1552
g74
(dp1553
g82
I4
ssg83
g1547
sg76
(lp1554
g112
asbasbasbag69
(g85
g71
NtRp1555
(dp1556
g74
(dp1557
sg83
g1417
sg76
(lp1558
g69
(g90
g71
NtRp1559
(dp1560
g74
(dp1561
g94
g95
ssg83
g1555
sg76
(lp1562
S'gluon_parent'
p1563
asbag69
(g90
g71
NtRp1564
(dp1565
g74
(dp1566
g101
g102
ssg83
g1555
sg76
(lp1567
S':'
asbag69
(g90
g71
NtRp1568
(dp1569
g74
(dp1570
sg83
g1555
sg76
(lp1571
g69
(g70
g71
NtRp1572
(dp1573
g74
(dp1574
g82
I4
ssg83
g1568
sg76
(lp1575
S'/home/darshan/web2py'
p1576
asbasbasbag69
(g85
g71
NtRp1577
(dp1578
g74
(dp1579
sg83
g1417
sg76
(lp1580
g69
(g90
g71
NtRp1581
(dp1582
g74
(dp1583
g94
g95
ssg83
g1577
sg76
(lp1584
S'http_accept'
p1585
asbag69
(g90
g71
NtRp1586
(dp1587
g74
(dp1588
g101
g102
ssg83
g1577
sg76
(lp1589
S':'
asbag69
(g90
g71
NtRp1590
(dp1591
g74
(dp1592
sg83
g1577
sg76
(lp1593
g69
(g70
g71
NtRp1594
(dp1595
g74
(dp1596
g82
I4
ssg83
g1590
sg76
(lp1597
S'text/html,application/xhtml+xml,application/xml;q=0.9,*/*;q=0.8'
p1598
asbasbasbag69
(g85
g71
NtRp1599
(dp1600
g74
(dp1601
sg83
g1417
sg76
(lp1602
g69
(g90
g71
NtRp1603
(dp1604
g74
(dp1605
g94
g95
ssg83
g1599
sg76
(lp1606
S'http_accept_encoding'
p1607
asbag69
(g90
g71
NtRp1608
(dp1609
g74
(dp1610
g101
g102
ssg83
g1599
sg76
(lp1611
S':'
asbag69
(g90
g71
NtRp1612
(dp1613
g74
(dp1614
sg83
g1599
sg76
(lp1615
g69
(g70
g71
NtRp1616
(dp1617
g74
(dp1618
g82
I4
ssg83
g1612
sg76
(lp1619
S'gzip, deflate'
p1620
asbasbasbag69
(g85
g71
NtRp1621
(dp1622
g74
(dp1623
sg83
g1417
sg76
(lp1624
g69
(g90
g71
NtRp1625
(dp1626
g74
(dp1627
g94
g95
ssg83
g1621
sg76
(lp1628
S'http_accept_language'
p1629
asbag69
(g90
g71
NtRp1630
(dp1631
g74
(dp1632
g101
g102
ssg83
g1621
sg76
(lp1633
S':'
asbag69
(g90
g71
NtRp1634
(dp1635
g74
(dp1636
sg83
g1621
sg76
(lp1637
g69
(g70
g71
NtRp1638
(dp1639
g74
(dp1640
g82
I4
ssg83
g1634
sg76
(lp1641
S'en-US,en;q=0.5'
p1642
asbasbasbag69
(g85
g71
NtRp1643
(dp1644
g74
(dp1645
sg83
g1417
sg76
(lp1646
g69
(g90
g71
NtRp1647
(dp1648
g74
(dp1649
g94
g95
ssg83
g1643
sg76
(lp1650
S'http_cache_control'
p1651
asbag69
(g90
g71
NtRp1652
(dp1653
g74
(dp1654
g101
g102
ssg83
g1643
sg76
(lp1655
S':'
asbag69
(g90
g71
NtRp1656
(dp1657
g74
(dp1658
sg83
g1643
sg76
(lp1659
g69
(g70
g71
NtRp1660
(dp1661
g74
(dp1662
g82
I4
ssg83
g1656
sg76
(lp1663
S'max-age=0'
p1664
asbasbasbag69
(g85
g71
NtRp1665
(dp1666
g74
(dp1667
sg83
g1417
sg76
(lp1668
g69
(g90
g71
NtRp1669
(dp1670
g74
(dp1671
g94
g95
ssg83
g1665
sg76
(lp1672
S'http_connection'
p1673
asbag69
(g90
g71
NtRp1674
(dp1675
g74
(dp1676
g101
g102
ssg83
g1665
sg76
(lp1677
S':'
asbag69
(g90
g71
NtRp1678
(dp1679
g74
(dp1680
sg83
g1665
sg76
(lp1681
g69
(g70
g71
NtRp1682
(dp1683
g74
(dp1684
g82
I4
ssg83
g1678
sg76
(lp1685
S'keep-alive'
p1686
asbasbasbag69
(g85
g71
NtRp1687
(dp1688
g74
(dp1689
sg83
g1417
sg76
(lp1690
g69
(g90
g71
NtRp1691
(dp1692
g74
(dp1693
g94
g95
ssg83
g1687
sg76
(lp1694
S'http_cookie'
p1695
asbag69
(g90
g71
NtRp1696
(dp1697
g74
(dp1698
g101
g102
ssg83
g1687
sg76
(lp1699
S':'
asbag69
(g90
g71
NtRp1700
(dp1701
g74
(dp1702
sg83
g1687
sg76
(lp1703
g69
(g70
g71
NtRp1704
(dp1705
g74
(dp1706
g82
I4
ssg83
g1700
sg76
(lp1707
S'csrftoken=a9lCt5w7Q4OG437IZNwjtNB3YEdWYXWm; session_id_admin=127.0.0.1-e6c203e9-d008-4610-8523-5a0e93da9abb; session_id_welcome=127.0.0.1-2837c0cc-fb0c-4598-b75f-5727d328e2ad; session_id_readit=127.0.0.1-e391c20a-8d22-4e6d-a1c8-f85c00f99b3d; session_id_isas=127.0.0.1-46261fb6-868f-4eb5-ae61-7251ec9ac039; session_id_garbage_truck=127.0.0.1-eb5e8630-3789-44cf-90c0-4c0a37fc535a'
p1708
asbasbasbag69
(g85
g71
NtRp1709
(dp1710
g74
(dp1711
sg83
g1417
sg76
(lp1712
g69
(g90
g71
NtRp1713
(dp1714
g74
(dp1715
g94
g95
ssg83
g1709
sg76
(lp1716
S'http_dnt'
p1717
asbag69
(g90
g71
NtRp1718
(dp1719
g74
(dp1720
g101
g102
ssg83
g1709
sg76
(lp1721
S':'
asbag69
(g90
g71
NtRp1722
(dp1723
g74
(dp1724
sg83
g1709
sg76
(lp1725
g69
(g70
g71
NtRp1726
(dp1727
g74
(dp1728
g82
I4
ssg83
g1722
sg76
(lp1729
S'1'
asbasbasbag69
(g85
g71
NtRp1730
(dp1731
g74
(dp1732
sg83
g1417
sg76
(lp1733
g69
(g90
g71
NtRp1734
(dp1735
g74
(dp1736
g94
g95
ssg83
g1730
sg76
(lp1737
S'http_host'
p1738
asbag69
(g90
g71
NtRp1739
(dp1740
g74
(dp1741
g101
g102
ssg83
g1730
sg76
(lp1742
S':'
asbag69
(g90
g71
NtRp1743
(dp1744
g74
(dp1745
sg83
g1730
sg76
(lp1746
g69
(g70
g71
NtRp1747
(dp1748
g74
(dp1749
g82
I4
ssg83
g1743
sg76
(lp1750
S'127.0.0.1:8000'
p1751
asbasbasbag69
(g85
g71
NtRp1752
(dp1753
g74
(dp1754
sg83
g1417
sg76
(lp1755
g69
(g90
g71
NtRp1756
(dp1757
g74
(dp1758
g94
g95
ssg83
g1752
sg76
(lp1759
S'http_referer'
p1760
asbag69
(g90
g71
NtRp1761
(dp1762
g74
(dp1763
g101
g102
ssg83
g1752
sg76
(lp1764
S':'
asbag69
(g90
g71
NtRp1765
(dp1766
g74
(dp1767
sg83
g1752
sg76
(lp1768
g69
(g70
g71
NtRp1769
(dp1770
g74
(dp1771
g82
I4
ssg83
g1765
sg76
(lp1772
S'http://127.0.0.1:8000/Garbage_Truck/default/ghmc_official'
p1773
asbasbasbag69
(g85
g71
NtRp1774
(dp1775
g74
(dp1776
sg83
g1417
sg76
(lp1777
g69
(g90
g71
NtRp1778
(dp1779
g74
(dp1780
g94
g95
ssg83
g1774
sg76
(lp1781
S'http_user_agent'
p1782
asbag69
(g90
g71
NtRp1783
(dp1784
g74
(dp1785
g101
g102
ssg83
g1774
sg76
(lp1786
S':'
asbag69
(g90
g71
NtRp1787
(dp1788
g74
(dp1789
sg83
g1774
sg76
(lp1790
g69
(g70
g71
NtRp1791
(dp1792
g74
(dp1793
g82
I4
ssg83
g1787
sg76
(lp1794
S'Mozilla/5.0 (X11; Ubuntu; Linux x86_64; rv:32.0) Gecko/20100101 Firefox/32.0'
p1795
asbasbasbag69
(g85
g71
NtRp1796
(dp1797
g74
(dp1798
sg83
g1417
sg76
(lp1799
g69
(g90
g71
NtRp1800
(dp1801
g74
(dp1802
g94
g95
ssg83
g1796
sg76
(lp1803
S'is_jython'
p1804
asbag69
(g90
g71
NtRp1805
(dp1806
g74
(dp1807
g101
g102
ssg83
g1796
sg76
(lp1808
S':'
asbag69
(g90
g71
NtRp1809
(dp1810
g74
(dp1811
sg83
g1796
sg76
(lp1812
g69
(g70
g71
NtRp1813
(dp1814
g74
(dp1815
g82
I4
ssg83
g1809
sg76
(lp1816
g112
asbasbasbag69
(g85
g71
NtRp1817
(dp1818
g74
(dp1819
sg83
g1417
sg76
(lp1820
g69
(g90
g71
NtRp1821
(dp1822
g74
(dp1823
g94
g95
ssg83
g1817
sg76
(lp1824
S'is_pypy'
p1825
asbag69
(g90
g71
NtRp1826
(dp1827
g74
(dp1828
g101
g102
ssg83
g1817
sg76
(lp1829
S':'
asbag69
(g90
g71
NtRp1830
(dp1831
g74
(dp1832
sg83
g1817
sg76
(lp1833
g69
(g70
g71
NtRp1834
(dp1835
g74
(dp1836
g82
I4
ssg83
g1830
sg76
(lp1837
g112
asbasbasbag69
(g85
g71
NtRp1838
(dp1839
g74
(dp1840
sg83
g1417
sg76
(lp1841
g69
(g90
g71
NtRp1842
(dp1843
g74
(dp1844
g94
g95
ssg83
g1838
sg76
(lp1845
S'local_hosts'
p1846
asbag69
(g90
g71
NtRp1847
(dp1848
g74
(dp1849
g101
g102
ssg83
g1838
sg76
(lp1850
S':'
asbag69
(g90
g71
NtRp1851
(dp1852
g74
(dp1853
sg83
g1838
sg76
(lp1854
g69
(g70
g71
NtRp1855
(dp1856
g74
(dp1857
g82
I4
ssg83
g1851
sg76
(lp1858
g69
(g78
g71
NtRp1859
(dp1860
g74
(dp1861
g82
I3
ssg83
Nsg76
(lp1862
g69
(g85
g71
NtRp1863
(dp1864
g74
(dp1865
sg83
g1859
sg76
(lp1866
g69
(g90
g71
NtRp1867
(dp1868
g74
(dp1869
sg83
g1863
sg76
(lp1870
g69
(g70
g71
NtRp1871
(dp1872
g74
(dp1873
g82
I3
ssg83
g1867
sg76
(lp1874
S'::1'
p1875
asbasbasbag69
(g85
g71
NtRp1876
(dp1877
g74
(dp1878
sg83
g1859
sg76
(lp1879
g69
(g90
g71
NtRp1880
(dp1881
g74
(dp1882
sg83
g1876
sg76
(lp1883
g69
(g70
g71
NtRp1884
(dp1885
g74
(dp1886
g82
I3
ssg83
g1880
sg76
(lp1887
S'127.0.1.1'
p1888
asbasbasbag69
(g85
g71
NtRp1889
(dp1890
g74
(dp1891
sg83
g1859
sg76
(lp1892
g69
(g90
g71
NtRp1893
(dp1894
g74
(dp1895
sg83
g1889
sg76
(lp1896
g69
(g70
g71
NtRp1897
(dp1898
g74
(dp1899
g82
I3
ssg83
g1893
sg76
(lp1900
S'darshan-Inspiron-5520'
p1901
asbasbasbag69
(g85
g71
NtRp1902
(dp1903
g74
(dp1904
sg83
g1859
sg76
(lp1905
g69
(g90
g71
NtRp1906
(dp1907
g74
(dp1908
sg83
g1902
sg76
(lp1909
g69
(g70
g71
NtRp1910
(dp1911
g74
(dp1912
g82
I3
ssg83
g1906
sg76
(lp1913
S'::ffff:127.0.0.1'
p1914
asbasbasbag69
(g85
g71
NtRp1915
(dp1916
g74
(dp1917
sg83
g1859
sg76
(lp1918
g69
(g90
g71
NtRp1919
(dp1920
g74
(dp1921
sg83
g1915
sg76
(lp1922
g69
(g70
g71
NtRp1923
(dp1924
g74
(dp1925
g82
I3
ssg83
g1919
sg76
(lp1926
S'127.0.0.1'
p1927
asbasbasbasbasbasbasbag69
(g85
g71
NtRp1928
(dp1929
g74
(dp1930
sg83
g1417
sg76
(lp1931
g69
(g90
g71
NtRp1932
(dp1933
g74
(dp1934
g94
g95
ssg83
g1928
sg76
(lp1935
S'path_info'
p1936
asbag69
(g90
g71
NtRp1937
(dp1938
g74
(dp1939
g101
g102
ssg83
g1928
sg76
(lp1940
S':'
asbag69
(g90
g71
NtRp1941
(dp1942
g74
(dp1943
sg83
g1928
sg76
(lp1944
g69
(g70
g71
NtRp1945
(dp1946
g74
(dp1947
g82
I4
ssg83
g1941
sg76
(lp1948
S'/Garbage_Truck/default/request_reservior_view'
p1949
asbasbasbag69
(g85
g71
NtRp1950
(dp1951
g74
(dp1952
sg83
g1417
sg76
(lp1953
g69
(g90
g71
NtRp1954
(dp1955
g74
(dp1956
g94
g95
ssg83
g1950
sg76
(lp1957
S'query_string'
p1958
asbag69
(g90
g71
NtRp1959
(dp1960
g74
(dp1961
g101
g102
ssg83
g1950
sg76
(lp1962
S':'
asbag69
(g90
g71
NtRp1963
(dp1964
g74
(dp1965
sg83
g1950
sg76
(lp1966
g69
(g70
g71
NtRp1967
(dp1968
g74
(dp1969
g82
I4
ssg83
g1963
sg76
(lp1970
S''
asbasbasbag69
(g85
g71
NtRp1971
(dp1972
g74
(dp1973
sg83
g1417
sg76
(lp1974
g69
(g90
g71
NtRp1975
(dp1976
g74
(dp1977
g94
g95
ssg83
g1971
sg76
(lp1978
S'remote_addr'
p1979
asbag69
(g90
g71
NtRp1980
(dp1981
g74
(dp1982
g101
g102
ssg83
g1971
sg76
(lp1983
S':'
asbag69
(g90
g71
NtRp1984
(dp1985
g74
(dp1986
sg83
g1971
sg76
(lp1987
g69
(g70
g71
NtRp1988
(dp1989
g74
(dp1990
g82
I4
ssg83
g1984
sg76
(lp1991
g224
asbasbasbag69
(g85
g71
NtRp1992
(dp1993
g74
(dp1994
sg83
g1417
sg76
(lp1995
g69
(g90
g71
NtRp1996
(dp1997
g74
(dp1998
g94
g95
ssg83
g1992
sg76
(lp1999
S'remote_port'
p2000
asbag69
(g90
g71
NtRp2001
(dp2002
g74
(dp2003
g101
g102
ssg83
g1992
sg76
(lp2004
S':'
asbag69
(g90
g71
NtRp2005
(dp2006
g74
(dp2007
sg83
g1992
sg76
(lp2008
g69
(g70
g71
NtRp2009
(dp2010
g74
(dp2011
g82
I4
ssg83
g2005
sg76
(lp2012
S'34382'
p2013
asbasbasbag69
(g85
g71
NtRp2014
(dp2015
g74
(dp2016
sg83
g1417
sg76
(lp2017
g69
(g90
g71
NtRp2018
(dp2019
g74
(dp2020
g94
g95
ssg83
g2014
sg76
(lp2021
S'request_method'
p2022
asbag69
(g90
g71
NtRp2023
(dp2024
g74
(dp2025
g101
g102
ssg83
g2014
sg76
(lp2026
S':'
asbag69
(g90
g71
NtRp2027
(dp2028
g74
(dp2029
sg83
g2014
sg76
(lp2030
g69
(g70
g71
NtRp2031
(dp2032
g74
(dp2033
g82
I4
ssg83
g2027
sg76
(lp2034
S'GET'
p2035
asbasbasbag69
(g85
g71
NtRp2036
(dp2037
g74
(dp2038
sg83
g1417
sg76
(lp2039
g69
(g90
g71
NtRp2040
(dp2041
g74
(dp2042
g94
g95
ssg83
g2036
sg76
(lp2043
S'request_uri'
p2044
asbag69
(g90
g71
NtRp2045
(dp2046
g74
(dp2047
g101
g102
ssg83
g2036
sg76
(lp2048
S':'
asbag69
(g90
g71
NtRp2049
(dp2050
g74
(dp2051
sg83
g2036
sg76
(lp2052
g69
(g70
g71
NtRp2053
(dp2054
g74
(dp2055
g82
I4
ssg83
g2049
sg76
(lp2056
g1949
asbasbasbag69
(g85
g71
NtRp2057
(dp2058
g74
(dp2059
sg83
g1417
sg76
(lp2060
g69
(g90
g71
NtRp2061
(dp2062
g74
(dp2063
g94
g95
ssg83
g2057
sg76
(lp2064
S'script_name'
p2065
asbag69
(g90
g71
NtRp2066
(dp2067
g74
(dp2068
g101
g102
ssg83
g2057
sg76
(lp2069
S':'
asbag69
(g90
g71
NtRp2070
(dp2071
g74
(dp2072
sg83
g2057
sg76
(lp2073
g69
(g70
g71
NtRp2074
(dp2075
g74
(dp2076
g82
I4
ssg83
g2070
sg76
(lp2077
S''
asbasbasbag69
(g85
g71
NtRp2078
(dp2079
g74
(dp2080
sg83
g1417
sg76
(lp2081
g69
(g90
g71
NtRp2082
(dp2083
g74
(dp2084
g94
g95
ssg83
g2078
sg76
(lp2085
S'server_name'
p2086
asbag69
(g90
g71
NtRp2087
(dp2088
g74
(dp2089
g101
g102
ssg83
g2078
sg76
(lp2090
S':'
asbag69
(g90
g71
NtRp2091
(dp2092
g74
(dp2093
sg83
g2078
sg76
(lp2094
g69
(g70
g71
NtRp2095
(dp2096
g74
(dp2097
g82
I4
ssg83
g2091
sg76
(lp2098
S'darshan-Inspiron-5520'
p2099
asbasbasbag69
(g85
g71
NtRp2100
(dp2101
g74
(dp2102
sg83
g1417
sg76
(lp2103
g69
(g90
g71
NtRp2104
(dp2105
g74
(dp2106
g94
g95
ssg83
g2100
sg76
(lp2107
S'server_port'
p2108
asbag69
(g90
g71
NtRp2109
(dp2110
g74
(dp2111
g101
g102
ssg83
g2100
sg76
(lp2112
S':'
asbag69
(g90
g71
NtRp2113
(dp2114
g74
(dp2115
sg83
g2100
sg76
(lp2116
g69
(g70
g71
NtRp2117
(dp2118
g74
(dp2119
g82
I4
ssg83
g2113
sg76
(lp2120
S'8000'
p2121
asbasbasbag69
(g85
g71
NtRp2122
(dp2123
g74
(dp2124
sg83
g1417
sg76
(lp2125
g69
(g90
g71
NtRp2126
(dp2127
g74
(dp2128
g94
g95
ssg83
g2122
sg76
(lp2129
S'server_protocol'
p2130
asbag69
(g90
g71
NtRp2131
(dp2132
g74
(dp2133
g101
g102
ssg83
g2122
sg76
(lp2134
S':'
asbag69
(g90
g71
NtRp2135
(dp2136
g74
(dp2137
sg83
g2122
sg76
(lp2138
g69
(g70
g71
NtRp2139
(dp2140
g74
(dp2141
g82
I4
ssg83
g2135
sg76
(lp2142
S'HTTP/1.1'
p2143
asbasbasbag69
(g85
g71
NtRp2144
(dp2145
g74
(dp2146
sg83
g1417
sg76
(lp2147
g69
(g90
g71
NtRp2148
(dp2149
g74
(dp2150
g94
g95
ssg83
g2144
sg76
(lp2151
S'server_software'
p2152
asbag69
(g90
g71
NtRp2153
(dp2154
g74
(dp2155
g101
g102
ssg83
g2144
sg76
(lp2156
S':'
asbag69
(g90
g71
NtRp2157
(dp2158
g74
(dp2159
sg83
g2144
sg76
(lp2160
g69
(g70
g71
NtRp2161
(dp2162
g74
(dp2163
g82
I4
ssg83
g2157
sg76
(lp2164
S'Rocket 1.2.6'
p2165
asbasbasbag69
(g85
g71
NtRp2166
(dp2167
g74
(dp2168
sg83
g1417
sg76
(lp2169
g69
(g90
g71
NtRp2170
(dp2171
g74
(dp2172
g94
g95
ssg83
g2166
sg76
(lp2173
S'web2py_path'
p2174
asbag69
(g90
g71
NtRp2175
(dp2176
g74
(dp2177
g101
g102
ssg83
g2166
sg76
(lp2178
S':'
asbag69
(g90
g71
NtRp2179
(dp2180
g74
(dp2181
sg83
g2166
sg76
(lp2182
g69
(g70
g71
NtRp2183
(dp2184
g74
(dp2185
g82
I4
ssg83
g2179
sg76
(lp2186
g1464
asbasbasbag69
(g85
g71
NtRp2187
(dp2188
g74
(dp2189
sg83
g1417
sg76
(lp2190
g69
(g90
g71
NtRp2191
(dp2192
g74
(dp2193
g94
g95
ssg83
g2187
sg76
(lp2194
S'web2py_version'
p2195
asbag69
(g90
g71
NtRp2196
(dp2197
g74
(dp2198
g101
g102
ssg83
g2187
sg76
(lp2199
S':'
asbag69
(g90
g71
NtRp2200
(dp2201
g74
(dp2202
sg83
g2187
sg76
(lp2203
g69
(g70
g71
NtRp2204
(dp2205
g74
(dp2206
g82
I4
ssg83
g2200
sg76
(lp2207
g69
(g78
g71
NtRp2208
(dp2209
g74
(dp2210
g82
I3
ssg83
Nsg76
(lp2211
g69
(g85
g71
NtRp2212
(dp2213
g74
(dp2214
sg83
g2208
sg76
(lp2215
g69
(g90
g71
NtRp2216
(dp2217
g74
(dp2218
sg83
g2212
sg76
(lp2219
g69
(g70
g71
NtRp2220
(dp2221
g74
(dp2222
g82
I3
ssg83
g2216
sg76
(lp2223
S'2'
asbasbasbag69
(g85
g71
NtRp2224
(dp2225
g74
(dp2226
sg83
g2208
sg76
(lp2227
g69
(g90
g71
NtRp2228
(dp2229
g74
(dp2230
sg83
g2224
sg76
(lp2231
g69
(g70
g71
NtRp2232
(dp2233
g74
(dp2234
g82
I3
ssg83
g2228
sg76
(lp2235
S'3'
asbasbasbag69
(g85
g71
NtRp2236
(dp2237
g74
(dp2238
sg83
g2208
sg76
(lp2239
g69
(g90
g71
NtRp2240
(dp2241
g74
(dp2242
sg83
g2236
sg76
(lp2243
g69
(g70
g71
NtRp2244
(dp2245
g74
(dp2246
g82
I3
ssg83
g2240
sg76
(lp2247
S'2'
asbasbasbag69
(g85
g71
NtRp2248
(dp2249
g74
(dp2250
sg83
g2208
sg76
(lp2251
g69
(g90
g71
NtRp2252
(dp2253
g74
(dp2254
sg83
g2248
sg76
(lp2255
g69
(g70
g71
NtRp2256
(dp2257
g74
(dp2258
g82
I3
ssg83
g2252
sg76
(lp2259
S'datetime.datetime(2012, 12, 17, 15, 3, 30)'
p2260
asbasbasbag69
(g85
g71
NtRp2261
(dp2262
g74
(dp2263
sg83
g2208
sg76
(lp2264
g69
(g90
g71
NtRp2265
(dp2266
g74
(dp2267
sg83
g2261
sg76
(lp2268
g69
(g70
g71
NtRp2269
(dp2270
g74
(dp2271
g82
I3
ssg83
g2265
sg76
(lp2272
S'stable'
p2273
asbasbasbasbasbasbasbag69
(g85
g71
NtRp2274
(dp2275
g74
(dp2276
sg83
g1417
sg76
(lp2277
g69
(g90
g71
NtRp2278
(dp2279
g74
(dp2280
g94
g95
ssg83
g2274
sg76
(lp2281
S'wsgi_errors'
p2282
asbag69
(g90
g71
NtRp2283
(dp2284
g74
(dp2285
g101
g102
ssg83
g2274
sg76
(lp2286
S':'
asbag69
(g90
g71
NtRp2287
(dp2288
g74
(dp2289
sg83
g2274
sg76
(lp2290
g69
(g70
g71
NtRp2291
(dp2292
g74
(dp2293
g82
I4
ssg83
g2287
sg76
(lp2294
S"<open file '<stderr>', mode 'w' at 0x7f92c1bb41e0>"
p2295
asbasbasbag69
(g85
g71
NtRp2296
(dp2297
g74
(dp2298
sg83
g1417
sg76
(lp2299
g69
(g90
g71
NtRp2300
(dp2301
g74
(dp2302
g94
g95
ssg83
g2296
sg76
(lp2303
S'wsgi_file_wrapper'
p2304
asbag69
(g90
g71
NtRp2305
(dp2306
g74
(dp2307
g101
g102
ssg83
g2296
sg76
(lp2308
S':'
asbag69
(g90
g71
NtRp2309
(dp2310
g74
(dp2311
sg83
g2296
sg76
(lp2312
g69
(g70
g71
NtRp2313
(dp2314
g74
(dp2315
g82
I4
ssg83
g2309
sg76
(lp2316
S'<class wsgiref.util.FileWrapper at 0x7f92bab98808>'
p2317
asbasbasbag69
(g85
g71
NtRp2318
(dp2319
g74
(dp2320
sg83
g1417
sg76
(lp2321
g69
(g90
g71
NtRp2322
(dp2323
g74
(dp2324
g94
g95
ssg83
g2318
sg76
(lp2325
S'wsgi_input'
p2326
asbag69
(g90
g71
NtRp2327
(dp2328
g74
(dp2329
g101
g102
ssg83
g2318
sg76
(lp2330
S':'
asbag69
(g90
g71
NtRp2331
(dp2332
g74
(dp2333
sg83
g2318
sg76
(lp2334
g69
(g70
g71
NtRp2335
(dp2336
g74
(dp2337
g82
I4
ssg83
g2331
sg76
(lp2338
S'<socket._fileobject object at 0x7f92a842aa50>'
p2339
asbasbasbag69
(g85
g71
NtRp2340
(dp2341
g74
(dp2342
sg83
g1417
sg76
(lp2343
g69
(g90
g71
NtRp2344
(dp2345
g74
(dp2346
g94
g95
ssg83
g2340
sg76
(lp2347
S'wsgi_multiprocess'
p2348
asbag69
(g90
g71
NtRp2349
(dp2350
g74
(dp2351
g101
g102
ssg83
g2340
sg76
(lp2352
S':'
asbag69
(g90
g71
NtRp2353
(dp2354
g74
(dp2355
sg83
g2340
sg76
(lp2356
g69
(g70
g71
NtRp2357
(dp2358
g74
(dp2359
g82
I4
ssg83
g2353
sg76
(lp2360
g112
asbasbasbag69
(g85
g71
NtRp2361
(dp2362
g74
(dp2363
sg83
g1417
sg76
(lp2364
g69
(g90
g71
NtRp2365
(dp2366
g74
(dp2367
g94
g95
ssg83
g2361
sg76
(lp2368
S'wsgi_multithread'
p2369
asbag69
(g90
g71
NtRp2370
(dp2371
g74
(dp2372
g101
g102
ssg83
g2361
sg76
(lp2373
S':'
asbag69
(g90
g71
NtRp2374
(dp2375
g74
(dp2376
sg83
g2361
sg76
(lp2377
g69
(g70
g71
NtRp2378
(dp2379
g74
(dp2380
g82
I4
ssg83
g2374
sg76
(lp2381
S'True'
p2382
asbasbasbag69
(g85
g71
NtRp2383
(dp2384
g74
(dp2385
sg83
g1417
sg76
(lp2386
g69
(g90
g71
NtRp2387
(dp2388
g74
(dp2389
g94
g95
ssg83
g2383
sg76
(lp2390
S'wsgi_run_once'
p2391
asbag69
(g90
g71
NtRp2392
(dp2393
g74
(dp2394
g101
g102
ssg83
g2383
sg76
(lp2395
S':'
asbag69
(g90
g71
NtRp2396
(dp2397
g74
(dp2398
sg83
g2383
sg76
(lp2399
g69
(g70
g71
NtRp2400
(dp2401
g74
(dp2402
g82
I4
ssg83
g2396
sg76
(lp2403
g112
asbasbasbag69
(g85
g71
NtRp2404
(dp2405
g74
(dp2406
sg83
g1417
sg76
(lp2407
g69
(g90
g71
NtRp2408
(dp2409
g74
(dp2410
g94
g95
ssg83
g2404
sg76
(lp2411
S'wsgi_url_scheme'
p2412
asbag69
(g90
g71
NtRp2413
(dp2414
g74
(dp2415
g101
g102
ssg83
g2404
sg76
(lp2416
S':'
asbag69
(g90
g71
NtRp2417
(dp2418
g74
(dp2419
sg83
g2404
sg76
(lp2420
g69
(g70
g71
NtRp2421
(dp2422
g74
(dp2423
g82
I4
ssg83
g2417
sg76
(lp2424
S'http'
p2425
asbasbasbag69
(g85
g71
NtRp2426
(dp2427
g74
(dp2428
sg83
g1417
sg76
(lp2429
g69
(g90
g71
NtRp2430
(dp2431
g74
(dp2432
g94
g95
ssg83
g2426
sg76
(lp2433
S'wsgi_version'
p2434
asbag69
(g90
g71
NtRp2435
(dp2436
g74
(dp2437
g101
g102
ssg83
g2426
sg76
(lp2438
S':'
asbag69
(g90
g71
NtRp2439
(dp2440
g74
(dp2441
sg83
g2426
sg76
(lp2442
g69
(g70
g71
NtRp2443
(dp2444
g74
(dp2445
g82
I4
ssg83
g2439
sg76
(lp2446
g69
(g78
g71
NtRp2447
(dp2448
g74
(dp2449
g82
I3
ssg83
Nsg76
(lp2450
g69
(g85
g71
NtRp2451
(dp2452
g74
(dp2453
sg83
g2447
sg76
(lp2454
g69
(g90
g71
NtRp2455
(dp2456
g74
(dp2457
sg83
g2451
sg76
(lp2458
g69
(g70
g71
NtRp2459
(dp2460
g74
(dp2461
g82
I3
ssg83
g2455
sg76
(lp2462
S'1'
asbasbasbag69
(g85
g71
NtRp2463
(dp2464
g74
(dp2465
sg83
g2447
sg76
(lp2466
g69
(g90
g71
NtRp2467
(dp2468
g74
(dp2469
sg83
g2463
sg76
(lp2470
g69
(g70
g71
NtRp2471
(dp2472
g74
(dp2473
g82
I3
ssg83
g2467
sg76
(lp2474
S'0'
asbasbasbasbasbasbasbasbasbasbasbag69
(g85
g71
NtRp2475
(dp2476
g74
(dp2477
sg83
g79
sg76
(lp2478
g69
(g90
g71
NtRp2479
(dp2480
g74
(dp2481
g94
g95
ssg83
g2475
sg76
(lp2482
S'extension'
p2483
asbag69
(g90
g71
NtRp2484
(dp2485
g74
(dp2486
g101
g102
ssg83
g2475
sg76
(lp2487
S':'
asbag69
(g90
g71
NtRp2488
(dp2489
g74
(dp2490
sg83
g2475
sg76
(lp2491
g69
(g70
g71
NtRp2492
(dp2493
g74
(dp2494
g82
I5
ssg83
g2488
sg76
(lp2495
S'html'
p2496
asbasbasbag69
(g85
g71
NtRp2497
(dp2498
g74
(dp2499
sg83
g79
sg76
(lp2500
g69
(g90
g71
NtRp2501
(dp2502
g74
(dp2503
g94
g95
ssg83
g2497
sg76
(lp2504
S'folder'
p2505
asbag69
(g90
g71
NtRp2506
(dp2507
g74
(dp2508
g101
g102
ssg83
g2497
sg76
(lp2509
S':'
asbag69
(g90
g71
NtRp2510
(dp2511
g74
(dp2512
sg83
g2497
sg76
(lp2513
g69
(g70
g71
NtRp2514
(dp2515
g74
(dp2516
g82
I5
ssg83
g2510
sg76
(lp2517
S'/home/darshan/web2py/applications/Garbage_Truck/'
p2518
asbasbasbag69
(g85
g71
NtRp2519
(dp2520
g74
(dp2521
sg83
g79
sg76
(lp2522
g69
(g90
g71
NtRp2523
(dp2524
g74
(dp2525
g94
g95
ssg83
g2519
sg76
(lp2526
S'function'
p2527
asbag69
(g90
g71
NtRp2528
(dp2529
g74
(dp2530
g101
g102
ssg83
g2519
sg76
(lp2531
S':'
asbag69
(g90
g71
NtRp2532
(dp2533
g74
(dp2534
sg83
g2519
sg76
(lp2535
g69
(g70
g71
NtRp2536
(dp2537
g74
(dp2538
g82
I5
ssg83
g2532
sg76
(lp2539
S'request_reservior_view'
p2540
asbasbasbag69
(g85
g71
NtRp2541
(dp2542
g74
(dp2543
sg83
g79
sg76
(lp2544
g69
(g90
g71
NtRp2545
(dp2546
g74
(dp2547
g94
g95
ssg83
g2541
sg76
(lp2548
S'get_vars'
p2549
asbag69
(g90
g71
NtRp2550
(dp2551
g74
(dp2552
g101
g102
ssg83
g2541
sg76
(lp2553
S':'
asbag69
(g90
g71
NtRp2554
(dp2555
g74
(dp2556
sg83
g2541
sg76
(lp2557
g69
(g70
g71
NtRp2558
(dp2559
g74
(dp2560
g82
I5
ssg83
g2554
sg76
(lp2561
g69
(g78
g71
NtRp2562
(dp2563
g74
(dp2564
g82
I4
ssg83
Nsg76
(lp2565
sbasbasbasbag69
(g85
g71
NtRp2566
(dp2567
g74
(dp2568
sg83
g79
sg76
(lp2569
g69
(g90
g71
NtRp2570
(dp2571
g74
(dp2572
g94
g95
ssg83
g2566
sg76
(lp2573
S'global_settings'
p2574
asbag69
(g90
g71
NtRp2575
(dp2576
g74
(dp2577
g101
g102
ssg83
g2566
sg76
(lp2578
S':'
asbag69
(g90
g71
NtRp2579
(dp2580
g74
(dp2581
sg83
g2566
sg76
(lp2582
g69
(g70
g71
NtRp2583
(dp2584
g74
(dp2585
g82
I5
ssg83
g2579
sg76
(lp2586
g69
(g78
g71
NtRp2587
(dp2588
g74
(dp2589
g82
I4
ssg83
Nsg76
(lp2590
g69
(g85
g71
NtRp2591
(dp2592
g74
(dp2593
sg83
g2587
sg76
(lp2594
g69
(g90
g71
NtRp2595
(dp2596
g74
(dp2597
g94
g95
ssg83
g2591
sg76
(lp2598
g1429
asbag69
(g90
g71
NtRp2599
(dp2600
g74
(dp2601
g101
g102
ssg83
g2591
sg76
(lp2602
S':'
asbag69
(g90
g71
NtRp2603
(dp2604
g74
(dp2605
sg83
g2591
sg76
(lp2606
g69
(g70
g71
NtRp2607
(dp2608
g74
(dp2609
g82
I4
ssg83
g2603
sg76
(lp2610
S"set(['/home/darshan/web2py/applications/Isas/', '/home/darshan/web2py/applications/examples/', '/home/darshan/web2py/applications/readit/', '/home/darshan/web2py/applications/admin/', '/home/darshan/web2py/applications/Garbage_Truck/', '/home/darshan/web2py/applications/welcome/', '/home/darshan/web2py/applications/isas/'])"
p2611
asbasbasbag69
(g85
g71
NtRp2612
(dp2613
g74
(dp2614
sg83
g2587
sg76
(lp2615
g69
(g90
g71
NtRp2616
(dp2617
g74
(dp2618
g94
g95
ssg83
g2612
sg76
(lp2619
g1451
asbag69
(g90
g71
NtRp2620
(dp2621
g74
(dp2622
g101
g102
ssg83
g2612
sg76
(lp2623
S':'
asbag69
(g90
g71
NtRp2624
(dp2625
g74
(dp2626
sg83
g2612
sg76
(lp2627
g69
(g70
g71
NtRp2628
(dp2629
g74
(dp2630
g82
I4
ssg83
g2624
sg76
(lp2631
g1464
asbasbasbag69
(g85
g71
NtRp2632
(dp2633
g74
(dp2634
sg83
g2587
sg76
(lp2635
g69
(g90
g71
NtRp2636
(dp2637
g74
(dp2638
g94
g95
ssg83
g2632
sg76
(lp2639
g1473
asbag69
(g90
g71
NtRp2640
(dp2641
g74
(dp2642
g101
g102
ssg83
g2632
sg76
(lp2643
S':'
asbag69
(g90
g71
NtRp2644
(dp2645
g74
(dp2646
sg83
g2632
sg76
(lp2647
g69
(g70
g71
NtRp2648
(dp2649
g74
(dp2650
g82
I4
ssg83
g2644
sg76
(lp2651
g69
(g78
g71
NtRp2652
(dp2653
g74
(dp2654
g82
I3
ssg83
Nsg76
(lp2655
sbasbasbasbag69
(g85
g71
NtRp2656
(dp2657
g74
(dp2658
sg83
g2587
sg76
(lp2659
g69
(g90
g71
NtRp2660
(dp2661
g74
(dp2662
g94
g95
ssg83
g2656
sg76
(lp2663
g1498
asbag69
(g90
g71
NtRp2664
(dp2665
g74
(dp2666
g101
g102
ssg83
g2656
sg76
(lp2667
S':'
asbag69
(g90
g71
NtRp2668
(dp2669
g74
(dp2670
sg83
g2656
sg76
(lp2671
g69
(g70
g71
NtRp2672
(dp2673
g74
(dp2674
g82
I4
ssg83
g2668
sg76
(lp2675
S"<Values at 0x7f92baaf7f80: {'verbose': False, 'ip': '127.0.0.1', 'with_scheduler': False, 'ips': [], 'shutdown_timeout': 5, 'taskbar': False, 'port': 8000, 'maxthreads': None, 'softcron': False, 'server_name': 'darshan-Inspiron-5520', 'bpython': False, 'nogui': False, 'pid_filename': 'httpserver.pid', 'extcron': False, 'runcron': False, 'run_system_tests': False, 'test': None, 'folder': '/home/darshan/web2py', 'config': '', 'minthreads': None, 'winservice': '', 'shell': None, 'run': '', 'log_filename': 'httpserver.log', 'debuglevel': 30, 'args': [''], 'socket_timeout': 5, 'ssl_ca_certificate': None, 'scheduler': None, 'profiler_filename': None, 'ssl_private_key': '', 'scheduler_groups': None, 'password': '<ask>', 'request_queue_size': 5, 'ssl_certificate': '', 'cronjob': False, 'numthreads': None, 'quiet': False, 'interfaces': None, 'import_models': False, 'timeout': 10, 'plain': False, 'nobanner': False}>"
p2676
asbasbasbag69
(g85
g71
NtRp2677
(dp2678
g74
(dp2679
sg83
g2587
sg76
(lp2680
g69
(g90
g71
NtRp2681
(dp2682
g74
(dp2683
g94
g95
ssg83
g2677
sg76
(lp2684
g1520
asbag69
(g90
g71
NtRp2685
(dp2686
g74
(dp2687
g101
g102
ssg83
g2677
sg76
(lp2688
S':'
asbag69
(g90
g71
NtRp2689
(dp2690
g74
(dp2691
sg83
g2677
sg76
(lp2692
g69
(g70
g71
NtRp2693
(dp2694
g74
(dp2695
g82
I4
ssg83
g2689
sg76
(lp2696
S'set([])'
p2697
asbasbasbag69
(g85
g71
NtRp2698
(dp2699
g74
(dp2700
sg83
g2587
sg76
(lp2701
g69
(g90
g71
NtRp2702
(dp2703
g74
(dp2704
g94
g95
ssg83
g2698
sg76
(lp2705
g1542
asbag69
(g90
g71
NtRp2706
(dp2707
g74
(dp2708
g101
g102
ssg83
g2698
sg76
(lp2709
S':'
asbag69
(g90
g71
NtRp2710
(dp2711
g74
(dp2712
sg83
g2698
sg76
(lp2713
g69
(g70
g71
NtRp2714
(dp2715
g74
(dp2716
g82
I4
ssg83
g2710
sg76
(lp2717
g112
asbasbasbag69
(g85
g71
NtRp2718
(dp2719
g74
(dp2720
sg83
g2587
sg76
(lp2721
g69
(g90
g71
NtRp2722
(dp2723
g74
(dp2724
g94
g95
ssg83
g2718
sg76
(lp2725
g1563
asbag69
(g90
g71
NtRp2726
(dp2727
g74
(dp2728
g101
g102
ssg83
g2718
sg76
(lp2729
S':'
asbag69
(g90
g71
NtRp2730
(dp2731
g74
(dp2732
sg83
g2718
sg76
(lp2733
g69
(g70
g71
NtRp2734
(dp2735
g74
(dp2736
g82
I4
ssg83
g2730
sg76
(lp2737
g1576
asbasbasbag69
(g85
g71
NtRp2738
(dp2739
g74
(dp2740
sg83
g2587
sg76
(lp2741
g69
(g90
g71
NtRp2742
(dp2743
g74
(dp2744
g94
g95
ssg83
g2738
sg76
(lp2745
g1804
asbag69
(g90
g71
NtRp2746
(dp2747
g74
(dp2748
g101
g102
ssg83
g2738
sg76
(lp2749
S':'
asbag69
(g90
g71
NtRp2750
(dp2751
g74
(dp2752
sg83
g2738
sg76
(lp2753
g69
(g70
g71
NtRp2754
(dp2755
g74
(dp2756
g82
I4
ssg83
g2750
sg76
(lp2757
g112
asbasbasbag69
(g85
g71
NtRp2758
(dp2759
g74
(dp2760
sg83
g2587
sg76
(lp2761
g69
(g90
g71
NtRp2762
(dp2763
g74
(dp2764
g94
g95
ssg83
g2758
sg76
(lp2765
g1825
asbag69
(g90
g71
NtRp2766
(dp2767
g74
(dp2768
g101
g102
ssg83
g2758
sg76
(lp2769
S':'
asbag69
(g90
g71
NtRp2770
(dp2771
g74
(dp2772
sg83
g2758
sg76
(lp2773
g69
(g70
g71
NtRp2774
(dp2775
g74
(dp2776
g82
I4
ssg83
g2770
sg76
(lp2777
g112
asbasbasbag69
(g85
g71
NtRp2778
(dp2779
g74
(dp2780
sg83
g2587
sg76
(lp2781
g69
(g90
g71
NtRp2782
(dp2783
g74
(dp2784
g94
g95
ssg83
g2778
sg76
(lp2785
g1846
asbag69
(g90
g71
NtRp2786
(dp2787
g74
(dp2788
g101
g102
ssg83
g2778
sg76
(lp2789
S':'
asbag69
(g90
g71
NtRp2790
(dp2791
g74
(dp2792
sg83
g2778
sg76
(lp2793
g69
(g70
g71
NtRp2794
(dp2795
g74
(dp2796
g82
I4
ssg83
g2790
sg76
(lp2797
g69
(g78
g71
NtRp2798
(dp2799
g74
(dp2800
g82
I3
ssg83
Nsg76
(lp2801
g69
(g85
g71
NtRp2802
(dp2803
g74
(dp2804
sg83
g2798
sg76
(lp2805
g69
(g90
g71
NtRp2806
(dp2807
g74
(dp2808
sg83
g2802
sg76
(lp2809
g69
(g70
g71
NtRp2810
(dp2811
g74
(dp2812
g82
I3
ssg83
g2806
sg76
(lp2813
g1875
asbasbasbag69
(g85
g71
NtRp2814
(dp2815
g74
(dp2816
sg83
g2798
sg76
(lp2817
g69
(g90
g71
NtRp2818
(dp2819
g74
(dp2820
sg83
g2814
sg76
(lp2821
g69
(g70
g71
NtRp2822
(dp2823
g74
(dp2824
g82
I3
ssg83
g2818
sg76
(lp2825
g1888
asbasbasbag69
(g85
g71
NtRp2826
(dp2827
g74
(dp2828
sg83
g2798
sg76
(lp2829
g69
(g90
g71
NtRp2830
(dp2831
g74
(dp2832
sg83
g2826
sg76
(lp2833
g69
(g70
g71
NtRp2834
(dp2835
g74
(dp2836
g82
I3
ssg83
g2830
sg76
(lp2837
g1901
asbasbasbag69
(g85
g71
NtRp2838
(dp2839
g74
(dp2840
sg83
g2798
sg76
(lp2841
g69
(g90
g71
NtRp2842
(dp2843
g74
(dp2844
sg83
g2838
sg76
(lp2845
g69
(g70
g71
NtRp2846
(dp2847
g74
(dp2848
g82
I3
ssg83
g2842
sg76
(lp2849
g1914
asbasbasbag69
(g85
g71
NtRp2850
(dp2851
g74
(dp2852
sg83
g2798
sg76
(lp2853
g69
(g90
g71
NtRp2854
(dp2855
g74
(dp2856
sg83
g2850
sg76
(lp2857
g69
(g70
g71
NtRp2858
(dp2859
g74
(dp2860
g82
I3
ssg83
g2854
sg76
(lp2861
g1927
asbasbasbasbasbasbasbag69
(g85
g71
NtRp2862
(dp2863
g74
(dp2864
sg83
g2587
sg76
(lp2865
g69
(g90
g71
NtRp2866
(dp2867
g74
(dp2868
g94
g95
ssg83
g2862
sg76
(lp2869
g2195
asbag69
(g90
g71
NtRp2870
(dp2871
g74
(dp2872
g101
g102
ssg83
g2862
sg76
(lp2873
S':'
asbag69
(g90
g71
NtRp2874
(dp2875
g74
(dp2876
sg83
g2862
sg76
(lp2877
g69
(g70
g71
NtRp2878
(dp2879
g74
(dp2880
g82
I4
ssg83
g2874
sg76
(lp2881
g69
(g78
g71
NtRp2882
(dp2883
g74
(dp2884
g82
I3
ssg83
Nsg76
(lp2885
g69
(g85
g71
NtRp2886
(dp2887
g74
(dp2888
sg83
g2882
sg76
(lp2889
g69
(g90
g71
NtRp2890
(dp2891
g74
(dp2892
sg83
g2886
sg76
(lp2893
g69
(g70
g71
NtRp2894
(dp2895
g74
(dp2896
g82
I3
ssg83
g2890
sg76
(lp2897
S'2'
asbasbasbag69
(g85
g71
NtRp2898
(dp2899
g74
(dp2900
sg83
g2882
sg76
(lp2901
g69
(g90
g71
NtRp2902
(dp2903
g74
(dp2904
sg83
g2898
sg76
(lp2905
g69
(g70
g71
NtRp2906
(dp2907
g74
(dp2908
g82
I3
ssg83
g2902
sg76
(lp2909
S'3'
asbasbasbag69
(g85
g71
NtRp2910
(dp2911
g74
(dp2912
sg83
g2882
sg76
(lp2913
g69
(g90
g71
NtRp2914
(dp2915
g74
(dp2916
sg83
g2910
sg76
(lp2917
g69
(g70
g71
NtRp2918
(dp2919
g74
(dp2920
g82
I3
ssg83
g2914
sg76
(lp2921
S'2'
asbasbasbag69
(g85
g71
NtRp2922
(dp2923
g74
(dp2924
sg83
g2882
sg76
(lp2925
g69
(g90
g71
NtRp2926
(dp2927
g74
(dp2928
sg83
g2922
sg76
(lp2929
g69
(g70
g71
NtRp2930
(dp2931
g74
(dp2932
g82
I3
ssg83
g2926
sg76
(lp2933
S'datetime.datetime(2012, 12, 17, 15, 3, 30)'
p2934
asbasbasbag69
(g85
g71
NtRp2935
(dp2936
g74
(dp2937
sg83
g2882
sg76
(lp2938
g69
(g90
g71
NtRp2939
(dp2940
g74
(dp2941
sg83
g2935
sg76
(lp2942
g69
(g70
g71
NtRp2943
(dp2944
g74
(dp2945
g82
I3
ssg83
g2939
sg76
(lp2946
g2273
asbasbasbasbasbasbasbasbasbasbasbag69
(g85
g71
NtRp2947
(dp2948
g74
(dp2949
sg83
g79
sg76
(lp2950
g69
(g90
g71
NtRp2951
(dp2952
g74
(dp2953
g94
g95
ssg83
g2947
sg76
(lp2954
S'is_https'
p2955
asbag69
(g90
g71
NtRp2956
(dp2957
g74
(dp2958
g101
g102
ssg83
g2947
sg76
(lp2959
S':'
asbag69
(g90
g71
NtRp2960
(dp2961
g74
(dp2962
sg83
g2947
sg76
(lp2963
g69
(g70
g71
NtRp2964
(dp2965
g74
(dp2966
g82
I5
ssg83
g2960
sg76
(lp2967
g112
asbasbasbag69
(g85
g71
NtRp2968
(dp2969
g74
(dp2970
sg83
g79
sg76
(lp2971
g69
(g90
g71
NtRp2972
(dp2973
g74
(dp2974
g94
g95
ssg83
g2968
sg76
(lp2975
S'is_local'
p2976
asbag69
(g90
g71
NtRp2977
(dp2978
g74
(dp2979
g101
g102
ssg83
g2968
sg76
(lp2980
S':'
asbag69
(g90
g71
NtRp2981
(dp2982
g74
(dp2983
sg83
g2968
sg76
(lp2984
g69
(g70
g71
NtRp2985
(dp2986
g74
(dp2987
g82
I5
ssg83
g2981
sg76
(lp2988
g2382
asbasbasbag69
(g85
g71
NtRp2989
(dp2990
g74
(dp2991
sg83
g79
sg76
(lp2992
g69
(g90
g71
NtRp2993
(dp2994
g74
(dp2995
g94
g95
ssg83
g2989
sg76
(lp2996
S'is_restful'
p2997
asbag69
(g90
g71
NtRp2998
(dp2999
g74
(dp3000
g101
g102
ssg83
g2989
sg76
(lp3001
S':'
asbag69
(g90
g71
NtRp3002
(dp3003
g74
(dp3004
sg83
g2989
sg76
(lp3005
g69
(g70
g71
NtRp3006
(dp3007
g74
(dp3008
g82
I5
ssg83
g3002
sg76
(lp3009
g112
asbasbasbag69
(g85
g71
NtRp3010
(dp3011
g74
(dp3012
sg83
g79
sg76
(lp3013
g69
(g90
g71
NtRp3014
(dp3015
g74
(dp3016
g94
g95
ssg83
g3010
sg76
(lp3017
S'now'
p3018
asbag69
(g90
g71
NtRp3019
(dp3020
g74
(dp3021
g101
g102
ssg83
g3010
sg76
(lp3022
S':'
asbag69
(g90
g71
NtRp3023
(dp3024
g74
(dp3025
sg83
g3010
sg76
(lp3026
g69
(g70
g71
NtRp3027
(dp3028
g74
(dp3029
g82
I5
ssg83
g3023
sg76
(lp3030
S'datetime.datetime(2014, 9, 28, 12, 17, 23, 570457)'
p3031
asbasbasbag69
(g85
g71
NtRp3032
(dp3033
g74
(dp3034
sg83
g79
sg76
(lp3035
g69
(g90
g71
NtRp3036
(dp3037
g74
(dp3038
g94
g95
ssg83
g3032
sg76
(lp3039
S'post_vars'
p3040
asbag69
(g90
g71
NtRp3041
(dp3042
g74
(dp3043
g101
g102
ssg83
g3032
sg76
(lp3044
S':'
asbag69
(g90
g71
NtRp3045
(dp3046
g74
(dp3047
sg83
g3032
sg76
(lp3048
g69
(g70
g71
NtRp3049
(dp3050
g74
(dp3051
g82
I5
ssg83
g3045
sg76
(lp3052
g69
(g78
g71
NtRp3053
(dp3054
g74
(dp3055
g82
I4
ssg83
Nsg76
(lp3056
sbasbasbasbag69
(g85
g71
NtRp3057
(dp3058
g74
(dp3059
sg83
g79
sg76
(lp3060
g69
(g90
g71
NtRp3061
(dp3062
g74
(dp3063
g94
g95
ssg83
g3057
sg76
(lp3064
S'raw_args'
p3065
asbag69
(g90
g71
NtRp3066
(dp3067
g74
(dp3068
g101
g102
ssg83
g3057
sg76
(lp3069
S':'
asbag69
(g90
g71
NtRp3070
(dp3071
g74
(dp3072
sg83
g3057
sg76
(lp3073
g69
(g70
g71
NtRp3074
(dp3075
g74
(dp3076
g82
I5
ssg83
g3070
sg76
(lp3077
S''
asbasbasbag69
(g85
g71
NtRp3078
(dp3079
g74
(dp3080
sg83
g79
sg76
(lp3081
g69
(g90
g71
NtRp3082
(dp3083
g74
(dp3084
g94
g95
ssg83
g3078
sg76
(lp3085
S'raw_extension'
p3086
asbag69
(g90
g71
NtRp3087
(dp3088
g74
(dp3089
g101
g102
ssg83
g3078
sg76
(lp3090
S':'
asbag69
(g90
g71
NtRp3091
(dp3092
g74
(dp3093
sg83
g3078
sg76
(lp3094
g69
(g70
g71
NtRp3095
(dp3096
g74
(dp3097
g82
I5
ssg83
g3091
sg76
(lp3098
S'None'
p3099
asbasbasbag69
(g85
g71
NtRp3100
(dp3101
g74
(dp3102
sg83
g79
sg76
(lp3103
g69
(g90
g71
NtRp3104
(dp3105
g74
(dp3106
g94
g95
ssg83
g3100
sg76
(lp3107
S'url'
p3108
asbag69
(g90
g71
NtRp3109
(dp3110
g74
(dp3111
g101
g102
ssg83
g3100
sg76
(lp3112
S':'
asbag69
(g90
g71
NtRp3113
(dp3114
g74
(dp3115
sg83
g3100
sg76
(lp3116
g69
(g70
g71
NtRp3117
(dp3118
g74
(dp3119
g82
I5
ssg83
g3113
sg76
(lp3120
g1949
asbasbasbag69
(g85
g71
NtRp3121
(dp3122
g74
(dp3123
sg83
g79
sg76
(lp3124
g69
(g90
g71
NtRp3125
(dp3126
g74
(dp3127
g94
g95
ssg83
g3121
sg76
(lp3128
S'utcnow'
p3129
asbag69
(g90
g71
NtRp3130
(dp3131
g74
(dp3132
g101
g102
ssg83
g3121
sg76
(lp3133
S':'
asbag69
(g90
g71
NtRp3134
(dp3135
g74
(dp3136
sg83
g3121
sg76
(lp3137
g69
(g70
g71
NtRp3138
(dp3139
g74
(dp3140
g82
I5
ssg83
g3134
sg76
(lp3141
S'datetime.datetime(2014, 9, 28, 6, 47, 23, 570492)'
p3142
asbasbasbag69
(g85
g71
NtRp3143
(dp3144
g74
(dp3145
sg83
g79
sg76
(lp3146
g69
(g90
g71
NtRp3147
(dp3148
g74
(dp3149
g94
g95
ssg83
g3143
sg76
(lp3150
S'uuid'
p3151
asbag69
(g90
g71
NtRp3152
(dp3153
g74
(dp3154
g101
g102
ssg83
g3143
sg76
(lp3155
S':'
asbag69
(g90
g71
NtRp3156
(dp3157
g74
(dp3158
sg83
g3143
sg76
(lp3159
g69
(g70
g71
NtRp3160
(dp3161
g74
(dp3162
g82
I5
ssg83
g3156
sg76
(lp3163
S'Garbage_Truck/127.0.0.1.2014-09-28.12-17-23.c9f4268a-d00b-4d2b-8536-51a5628e6df2'
p3164
asbasbasbag69
(g85
g71
NtRp3165
(dp3166
g74
(dp3167
sg83
g79
sg76
(lp3168
g69
(g90
g71
NtRp3169
(dp3170
g74
(dp3171
g94
g95
ssg83
g3165
sg76
(lp3172
S'vars'
p3173
asbag69
(g90
g71
NtRp3174
(dp3175
g74
(dp3176
g101
g102
ssg83
g3165
sg76
(lp3177
S':'
asbag69
(g90
g71
NtRp3178
(dp3179
g74
(dp3180
sg83
g3165
sg76
(lp3181
g69
(g70
g71
NtRp3182
(dp3183
g74
(dp3184
g82
I5
ssg83
g3178
sg76
(lp3185
g69
(g78
g71
NtRp3186
(dp3187
g74
(dp3188
g82
I4
ssg83
Nsg76
(lp3189
sbasbasbasbag69
(g85
g71
NtRp3190
(dp3191
g74
(dp3192
sg83
g79
sg76
(lp3193
g69
(g90
g71
NtRp3194
(dp3195
g74
(dp3196
g94
g95
ssg83
g3190
sg76
(lp3197
S'wsgi'
p3198
asbag69
(g90
g71
NtRp3199
(dp3200
g74
(dp3201
g101
g102
ssg83
g3190
sg76
(lp3202
S':'
asbag69
(g90
g71
NtRp3203
(dp3204
g74
(dp3205
sg83
g3190
sg76
(lp3206
g69
(g70
g71
NtRp3207
(dp3208
g74
(dp3209
g82
I5
ssg83
g3203
sg76
(lp3210
g69
(g78
g71
NtRp3211
(dp3212
g74
(dp3213
g82
I4
ssg83
Nsg76
(lp3214
g69
(g85
g71
NtRp3215
(dp3216
g74
(dp3217
sg83
g3211
sg76
(lp3218
g69
(g90
g71
NtRp3219
(dp3220
g74
(dp3221
g94
g95
ssg83
g3215
sg76
(lp3222
S'environ'
p3223
asbag69
(g90
g71
NtRp3224
(dp3225
g74
(dp3226
g101
g102
ssg83
g3215
sg76
(lp3227
S':'
asbag69
(g90
g71
NtRp3228
(dp3229
g74
(dp3230
sg83
g3215
sg76
(lp3231
g69
(g70
g71
NtRp3232
(dp3233
g74
(dp3234
g82
I4
ssg83
g3228
sg76
(lp3235
g69
(g78
g71
NtRp3236
(dp3237
g74
(dp3238
g82
I3
ssg83
Nsg76
(lp3239
g69
(g85
g71
NtRp3240
(dp3241
g74
(dp3242
sg83
g3236
sg76
(lp3243
g69
(g90
g71
NtRp3244
(dp3245
g74
(dp3246
g94
g95
ssg83
g3240
sg76
(lp3247
S'HTTP_ACCEPT'
p3248
asbag69
(g90
g71
NtRp3249
(dp3250
g74
(dp3251
g101
g102
ssg83
g3240
sg76
(lp3252
S':'
asbag69
(g90
g71
NtRp3253
(dp3254
g74
(dp3255
sg83
g3240
sg76
(lp3256
g69
(g70
g71
NtRp3257
(dp3258
g74
(dp3259
g82
I3
ssg83
g3253
sg76
(lp3260
g1598
asbasbasbag69
(g85
g71
NtRp3261
(dp3262
g74
(dp3263
sg83
g3236
sg76
(lp3264
g69
(g90
g71
NtRp3265
(dp3266
g74
(dp3267
g94
g95
ssg83
g3261
sg76
(lp3268
S'HTTP_ACCEPT_ENCODING'
p3269
asbag69
(g90
g71
NtRp3270
(dp3271
g74
(dp3272
g101
g102
ssg83
g3261
sg76
(lp3273
S':'
asbag69
(g90
g71
NtRp3274
(dp3275
g74
(dp3276
sg83
g3261
sg76
(lp3277
g69
(g70
g71
NtRp3278
(dp3279
g74
(dp3280
g82
I3
ssg83
g3274
sg76
(lp3281
g1620
asbasbasbag69
(g85
g71
NtRp3282
(dp3283
g74
(dp3284
sg83
g3236
sg76
(lp3285
g69
(g90
g71
NtRp3286
(dp3287
g74
(dp3288
g94
g95
ssg83
g3282
sg76
(lp3289
S'HTTP_ACCEPT_LANGUAGE'
p3290
asbag69
(g90
g71
NtRp3291
(dp3292
g74
(dp3293
g101
g102
ssg83
g3282
sg76
(lp3294
S':'
asbag69
(g90
g71
NtRp3295
(dp3296
g74
(dp3297
sg83
g3282
sg76
(lp3298
g69
(g70
g71
NtRp3299
(dp3300
g74
(dp3301
g82
I3
ssg83
g3295
sg76
(lp3302
g1642
asbasbasbag69
(g85
g71
NtRp3303
(dp3304
g74
(dp3305
sg83
g3236
sg76
(lp3306
g69
(g90
g71
NtRp3307
(dp3308
g74
(dp3309
g94
g95
ssg83
g3303
sg76
(lp3310
S'HTTP_CACHE_CONTROL'
p3311
asbag69
(g90
g71
NtRp3312
(dp3313
g74
(dp3314
g101
g102
ssg83
g3303
sg76
(lp3315
S':'
asbag69
(g90
g71
NtRp3316
(dp3317
g74
(dp3318
sg83
g3303
sg76
(lp3319
g69
(g70
g71
NtRp3320
(dp3321
g74
(dp3322
g82
I3
ssg83
g3316
sg76
(lp3323
g1664
asbasbasbag69
(g85
g71
NtRp3324
(dp3325
g74
(dp3326
sg83
g3236
sg76
(lp3327
g69
(g90
g71
NtRp3328
(dp3329
g74
(dp3330
g94
g95
ssg83
g3324
sg76
(lp3331
S'HTTP_CONNECTION'
p3332
asbag69
(g90
g71
NtRp3333
(dp3334
g74
(dp3335
g101
g102
ssg83
g3324
sg76
(lp3336
S':'
asbag69
(g90
g71
NtRp3337
(dp3338
g74
(dp3339
sg83
g3324
sg76
(lp3340
g69
(g70
g71
NtRp3341
(dp3342
g74
(dp3343
g82
I3
ssg83
g3337
sg76
(lp3344
g1686
asbasbasbag69
(g85
g71
NtRp3345
(dp3346
g74
(dp3347
sg83
g3236
sg76
(lp3348
g69
(g90
g71
NtRp3349
(dp3350
g74
(dp3351
g94
g95
ssg83
g3345
sg76
(lp3352
S'HTTP_COOKIE'
p3353
asbag69
(g90
g71
NtRp3354
(dp3355
g74
(dp3356
g101
g102
ssg83
g3345
sg76
(lp3357
S':'
asbag69
(g90
g71
NtRp3358
(dp3359
g74
(dp3360
sg83
g3345
sg76
(lp3361
g69
(g70
g71
NtRp3362
(dp3363
g74
(dp3364
g82
I3
ssg83
g3358
sg76
(lp3365
g1708
asbasbasbag69
(g85
g71
NtRp3366
(dp3367
g74
(dp3368
sg83
g3236
sg76
(lp3369
g69
(g90
g71
NtRp3370
(dp3371
g74
(dp3372
g94
g95
ssg83
g3366
sg76
(lp3373
S'HTTP_DNT'
p3374
asbag69
(g90
g71
NtRp3375
(dp3376
g74
(dp3377
g101
g102
ssg83
g3366
sg76
(lp3378
S':'
asbag69
(g90
g71
NtRp3379
(dp3380
g74
(dp3381
sg83
g3366
sg76
(lp3382
g69
(g70
g71
NtRp3383
(dp3384
g74
(dp3385
g82
I3
ssg83
g3379
sg76
(lp3386
S'1'
asbasbasbag69
(g85
g71
NtRp3387
(dp3388
g74
(dp3389
sg83
g3236
sg76
(lp3390
g69
(g90
g71
NtRp3391
(dp3392
g74
(dp3393
g94
g95
ssg83
g3387
sg76
(lp3394
S'HTTP_HOST'
p3395
asbag69
(g90
g71
NtRp3396
(dp3397
g74
(dp3398
g101
g102
ssg83
g3387
sg76
(lp3399
S':'
asbag69
(g90
g71
NtRp3400
(dp3401
g74
(dp3402
sg83
g3387
sg76
(lp3403
g69
(g70
g71
NtRp3404
(dp3405
g74
(dp3406
g82
I3
ssg83
g3400
sg76
(lp3407
g1751
asbasbasbag69
(g85
g71
NtRp3408
(dp3409
g74
(dp3410
sg83
g3236
sg76
(lp3411
g69
(g90
g71
NtRp3412
(dp3413
g74
(dp3414
g94
g95
ssg83
g3408
sg76
(lp3415
S'HTTP_REFERER'
p3416
asbag69
(g90
g71
NtRp3417
(dp3418
g74
(dp3419
g101
g102
ssg83
g3408
sg76
(lp3420
S':'
asbag69
(g90
g71
NtRp3421
(dp3422
g74
(dp3423
sg83
g3408
sg76
(lp3424
g69
(g70
g71
NtRp3425
(dp3426
g74
(dp3427
g82
I3
ssg83
g3421
sg76
(lp3428
g1773
asbasbasbag69
(g85
g71
NtRp3429
(dp3430
g74
(dp3431
sg83
g3236
sg76
(lp3432
g69
(g90
g71
NtRp3433
(dp3434
g74
(dp3435
g94
g95
ssg83
g3429
sg76
(lp3436
S'HTTP_USER_AGENT'
p3437
asbag69
(g90
g71
NtRp3438
(dp3439
g74
(dp3440
g101
g102
ssg83
g3429
sg76
(lp3441
S':'
asbag69
(g90
g71
NtRp3442
(dp3443
g74
(dp3444
sg83
g3429
sg76
(lp3445
g69
(g70
g71
NtRp3446
(dp3447
g74
(dp3448
g82
I3
ssg83
g3442
sg76
(lp3449
g1795
asbasbasbag69
(g85
g71
NtRp3450
(dp3451
g74
(dp3452
sg83
g3236
sg76
(lp3453
g69
(g90
g71
NtRp3454
(dp3455
g74
(dp3456
g94
g95
ssg83
g3450
sg76
(lp3457
S'PATH_INFO'
p3458
asbag69
(g90
g71
NtRp3459
(dp3460
g74
(dp3461
g101
g102
ssg83
g3450
sg76
(lp3462
S':'
asbag69
(g90
g71
NtRp3463
(dp3464
g74
(dp3465
sg83
g3450
sg76
(lp3466
g69
(g70
g71
NtRp3467
(dp3468
g74
(dp3469
g82
I3
ssg83
g3463
sg76
(lp3470
g1949
asbasbasbag69
(g85
g71
NtRp3471
(dp3472
g74
(dp3473
sg83
g3236
sg76
(lp3474
g69
(g90
g71
NtRp3475
(dp3476
g74
(dp3477
g94
g95
ssg83
g3471
sg76
(lp3478
S'QUERY_STRING'
p3479
asbag69
(g90
g71
NtRp3480
(dp3481
g74
(dp3482
g101
g102
ssg83
g3471
sg76
(lp3483
S':'
asbag69
(g90
g71
NtRp3484
(dp3485
g74
(dp3486
sg83
g3471
sg76
(lp3487
g69
(g70
g71
NtRp3488
(dp3489
g74
(dp3490
g82
I3
ssg83
g3484
sg76
(lp3491
S''
asbasbasbag69
(g85
g71
NtRp3492
(dp3493
g74
(dp3494
sg83
g3236
sg76
(lp3495
g69
(g90
g71
NtRp3496
(dp3497
g74
(dp3498
g94
g95
ssg83
g3492
sg76
(lp3499
S'REMOTE_ADDR'
p3500
asbag69
(g90
g71
NtRp3501
(dp3502
g74
(dp3503
g101
g102
ssg83
g3492
sg76
(lp3504
S':'
asbag69
(g90
g71
NtRp3505
(dp3506
g74
(dp3507
sg83
g3492
sg76
(lp3508
g69
(g70
g71
NtRp3509
(dp3510
g74
(dp3511
g82
I3
ssg83
g3505
sg76
(lp3512
g224
asbasbasbag69
(g85
g71
NtRp3513
(dp3514
g74
(dp3515
sg83
g3236
sg76
(lp3516
g69
(g90
g71
NtRp3517
(dp3518
g74
(dp3519
g94
g95
ssg83
g3513
sg76
(lp3520
S'REMOTE_PORT'
p3521
asbag69
(g90
g71
NtRp3522
(dp3523
g74
(dp3524
g101
g102
ssg83
g3513
sg76
(lp3525
S':'
asbag69
(g90
g71
NtRp3526
(dp3527
g74
(dp3528
sg83
g3513
sg76
(lp3529
g69
(g70
g71
NtRp3530
(dp3531
g74
(dp3532
g82
I3
ssg83
g3526
sg76
(lp3533
g2013
asbasbasbag69
(g85
g71
NtRp3534
(dp3535
g74
(dp3536
sg83
g3236
sg76
(lp3537
g69
(g90
g71
NtRp3538
(dp3539
g74
(dp3540
g94
g95
ssg83
g3534
sg76
(lp3541
S'REQUEST_METHOD'
p3542
asbag69
(g90
g71
NtRp3543
(dp3544
g74
(dp3545
g101
g102
ssg83
g3534
sg76
(lp3546
S':'
asbag69
(g90
g71
NtRp3547
(dp3548
g74
(dp3549
sg83
g3534
sg76
(lp3550
g69
(g70
g71
NtRp3551
(dp3552
g74
(dp3553
g82
I3
ssg83
g3547
sg76
(lp3554
g2035
asbasbasbag69
(g85
g71
NtRp3555
(dp3556
g74
(dp3557
sg83
g3236
sg76
(lp3558
g69
(g90
g71
NtRp3559
(dp3560
g74
(dp3561
g94
g95
ssg83
g3555
sg76
(lp3562
S'REQUEST_URI'
p3563
asbag69
(g90
g71
NtRp3564
(dp3565
g74
(dp3566
g101
g102
ssg83
g3555
sg76
(lp3567
S':'
asbag69
(g90
g71
NtRp3568
(dp3569
g74
(dp3570
sg83
g3555
sg76
(lp3571
g69
(g70
g71
NtRp3572
(dp3573
g74
(dp3574
g82
I3
ssg83
g3568
sg76
(lp3575
g1949
asbasbasbag69
(g85
g71
NtRp3576
(dp3577
g74
(dp3578
sg83
g3236
sg76
(lp3579
g69
(g90
g71
NtRp3580
(dp3581
g74
(dp3582
g94
g95
ssg83
g3576
sg76
(lp3583
S'SCRIPT_NAME'
p3584
asbag69
(g90
g71
NtRp3585
(dp3586
g74
(dp3587
g101
g102
ssg83
g3576
sg76
(lp3588
S':'
asbag69
(g90
g71
NtRp3589
(dp3590
g74
(dp3591
sg83
g3576
sg76
(lp3592
g69
(g70
g71
NtRp3593
(dp3594
g74
(dp3595
g82
I3
ssg83
g3589
sg76
(lp3596
S''
asbasbasbag69
(g85
g71
NtRp3597
(dp3598
g74
(dp3599
sg83
g3236
sg76
(lp3600
g69
(g90
g71
NtRp3601
(dp3602
g74
(dp3603
g94
g95
ssg83
g3597
sg76
(lp3604
S'SERVER_NAME'
p3605
asbag69
(g90
g71
NtRp3606
(dp3607
g74
(dp3608
g101
g102
ssg83
g3597
sg76
(lp3609
S':'
asbag69
(g90
g71
NtRp3610
(dp3611
g74
(dp3612
sg83
g3597
sg76
(lp3613
g69
(g70
g71
NtRp3614
(dp3615
g74
(dp3616
g82
I3
ssg83
g3610
sg76
(lp3617
g2099
asbasbasbag69
(g85
g71
NtRp3618
(dp3619
g74
(dp3620
sg83
g3236
sg76
(lp3621
g69
(g90
g71
NtRp3622
(dp3623
g74
(dp3624
g94
g95
ssg83
g3618
sg76
(lp3625
S'SERVER_PORT'
p3626
asbag69
(g90
g71
NtRp3627
(dp3628
g74
(dp3629
g101
g102
ssg83
g3618
sg76
(lp3630
S':'
asbag69
(g90
g71
NtRp3631
(dp3632
g74
(dp3633
sg83
g3618
sg76
(lp3634
g69
(g70
g71
NtRp3635
(dp3636
g74
(dp3637
g82
I3
ssg83
g3631
sg76
(lp3638
g2121
asbasbasbag69
(g85
g71
NtRp3639
(dp3640
g74
(dp3641
sg83
g3236
sg76
(lp3642
g69
(g90
g71
NtRp3643
(dp3644
g74
(dp3645
g94
g95
ssg83
g3639
sg76
(lp3646
S'SERVER_PROTOCOL'
p3647
asbag69
(g90
g71
NtRp3648
(dp3649
g74
(dp3650
g101
g102
ssg83
g3639
sg76
(lp3651
S':'
asbag69
(g90
g71
NtRp3652
(dp3653
g74
(dp3654
sg83
g3639
sg76
(lp3655
g69
(g70
g71
NtRp3656
(dp3657
g74
(dp3658
g82
I3
ssg83
g3652
sg76
(lp3659
g2143
asbasbasbag69
(g85
g71
NtRp3660
(dp3661
g74
(dp3662
sg83
g3236
sg76
(lp3663
g69
(g90
g71
NtRp3664
(dp3665
g74
(dp3666
g94
g95
ssg83
g3660
sg76
(lp3667
S'SERVER_SOFTWARE'
p3668
asbag69
(g90
g71
NtRp3669
(dp3670
g74
(dp3671
g101
g102
ssg83
g3660
sg76
(lp3672
S':'
asbag69
(g90
g71
NtRp3673
(dp3674
g74
(dp3675
sg83
g3660
sg76
(lp3676
g69
(g70
g71
NtRp3677
(dp3678
g74
(dp3679
g82
I3
ssg83
g3673
sg76
(lp3680
g2165
asbasbasbag69
(g85
g71
NtRp3681
(dp3682
g74
(dp3683
sg83
g3236
sg76
(lp3684
g69
(g90
g71
NtRp3685
(dp3686
g74
(dp3687
g94
g95
ssg83
g3681
sg76
(lp3688
S'wsgi.errors'
p3689
asbag69
(g90
g71
NtRp3690
(dp3691
g74
(dp3692
g101
g102
ssg83
g3681
sg76
(lp3693
S':'
asbag69
(g90
g71
NtRp3694
(dp3695
g74
(dp3696
sg83
g3681
sg76
(lp3697
g69
(g70
g71
NtRp3698
(dp3699
g74
(dp3700
g82
I3
ssg83
g3694
sg76
(lp3701
S"<open file '<stderr>', mode 'w' at 0x7f92c1bb41e0>"
p3702
asbasbasbag69
(g85
g71
NtRp3703
(dp3704
g74
(dp3705
sg83
g3236
sg76
(lp3706
g69
(g90
g71
NtRp3707
(dp3708
g74
(dp3709
g94
g95
ssg83
g3703
sg76
(lp3710
S'wsgi.file_wrapper'
p3711
asbag69
(g90
g71
NtRp3712
(dp3713
g74
(dp3714
g101
g102
ssg83
g3703
sg76
(lp3715
S':'
asbag69
(g90
g71
NtRp3716
(dp3717
g74
(dp3718
sg83
g3703
sg76
(lp3719
g69
(g70
g71
NtRp3720
(dp3721
g74
(dp3722
g82
I3
ssg83
g3716
sg76
(lp3723
S'<class wsgiref.util.FileWrapper at 0x7f92bab98808>'
p3724
asbasbasbag69
(g85
g71
NtRp3725
(dp3726
g74
(dp3727
sg83
g3236
sg76
(lp3728
g69
(g90
g71
NtRp3729
(dp3730
g74
(dp3731
g94
g95
ssg83
g3725
sg76
(lp3732
S'wsgi.input'
p3733
asbag69
(g90
g71
NtRp3734
(dp3735
g74
(dp3736
g101
g102
ssg83
g3725
sg76
(lp3737
S':'
asbag69
(g90
g71
NtRp3738
(dp3739
g74
(dp3740
sg83
g3725
sg76
(lp3741
g69
(g70
g71
NtRp3742
(dp3743
g74
(dp3744
g82
I3
ssg83
g3738
sg76
(lp3745
S'<cStringIO.StringO object at 0x7f928970ea78>'
p3746
asbasbasbag69
(g85
g71
NtRp3747
(dp3748
g74
(dp3749
sg83
g3236
sg76
(lp3750
g69
(g90
g71
NtRp3751
(dp3752
g74
(dp3753
g94
g95
ssg83
g3747
sg76
(lp3754
S'wsgi.multiprocess'
p3755
asbag69
(g90
g71
NtRp3756
(dp3757
g74
(dp3758
g101
g102
ssg83
g3747
sg76
(lp3759
S':'
asbag69
(g90
g71
NtRp3760
(dp3761
g74
(dp3762
sg83
g3747
sg76
(lp3763
g69
(g70
g71
NtRp3764
(dp3765
g74
(dp3766
g82
I3
ssg83
g3760
sg76
(lp3767
g112
asbasbasbag69
(g85
g71
NtRp3768
(dp3769
g74
(dp3770
sg83
g3236
sg76
(lp3771
g69
(g90
g71
NtRp3772
(dp3773
g74
(dp3774
g94
g95
ssg83
g3768
sg76
(lp3775
S'wsgi.multithread'
p3776
asbag69
(g90
g71
NtRp3777
(dp3778
g74
(dp3779
g101
g102
ssg83
g3768
sg76
(lp3780
S':'
asbag69
(g90
g71
NtRp3781
(dp3782
g74
(dp3783
sg83
g3768
sg76
(lp3784
g69
(g70
g71
NtRp3785
(dp3786
g74
(dp3787
g82
I3
ssg83
g3781
sg76
(lp3788
g2382
asbasbasbag69
(g85
g71
NtRp3789
(dp3790
g74
(dp3791
sg83
g3236
sg76
(lp3792
g69
(g90
g71
NtRp3793
(dp3794
g74
(dp3795
g94
g95
ssg83
g3789
sg76
(lp3796
S'wsgi.run_once'
p3797
asbag69
(g90
g71
NtRp3798
(dp3799
g74
(dp3800
g101
g102
ssg83
g3789
sg76
(lp3801
S':'
asbag69
(g90
g71
NtRp3802
(dp3803
g74
(dp3804
sg83
g3789
sg76
(lp3805
g69
(g70
g71
NtRp3806
(dp3807
g74
(dp3808
g82
I3
ssg83
g3802
sg76
(lp3809
g112
asbasbasbag69
(g85
g71
NtRp3810
(dp3811
g74
(dp3812
sg83
g3236
sg76
(lp3813
g69
(g90
g71
NtRp3814
(dp3815
g74
(dp3816
g94
g95
ssg83
g3810
sg76
(lp3817
S'wsgi.url_scheme'
p3818
asbag69
(g90
g71
NtRp3819
(dp3820
g74
(dp3821
g101
g102
ssg83
g3810
sg76
(lp3822
S':'
asbag69
(g90
g71
NtRp3823
(dp3824
g74
(dp3825
sg83
g3810
sg76
(lp3826
g69
(g70
g71
NtRp3827
(dp3828
g74
(dp3829
g82
I3
ssg83
g3823
sg76
(lp3830
g2425
asbasbasbag69
(g85
g71
NtRp3831
(dp3832
g74
(dp3833
sg83
g3236
sg76
(lp3834
g69
(g90
g71
NtRp3835
(dp3836
g74
(dp3837
g94
g95
ssg83
g3831
sg76
(lp3838
S'wsgi.version'
p3839
asbag69
(g90
g71
NtRp3840
(dp3841
g74
(dp3842
g101
g102
ssg83
g3831
sg76
(lp3843
S':'
asbag69
(g90
g71
NtRp3844
(dp3845
g74
(dp3846
sg83
g3831
sg76
(lp3847
g69
(g70
g71
NtRp3848
(dp3849
g74
(dp3850
g82
I3
ssg83
g3844
sg76
(lp3851
S'1'
asbasbasbasbasbasbasbasbasbasbasbasbasbsS'frames'
p3852
(lp3853
(dp3854
S'file'
p3855
S'/home/darshan/web2py/gluon/restricted.py'
p3856
sS'dump'
p3857
(dp3858
S'code'
p3859
S'\'response.write(\\\'<!DOCTYPE html PUBLIC "-//W3C//D...d footer -->\\\\n </body>\\\\n</html>\\\\n\\\', escape=False)\''
p3860
sS'layer'
p3861
S"'/home/darshan/web2py/applications/Garbage_Truck/views/default/request_reservior_view.html'"
p3862
sS'global compile2'
p3863
S'<function compile2>'
p3864
sS'ccode'
p3865
S'undefined'
p3866
ssS'lnum'
p3867
I211
sS'lines'
p3868
(dp3869
I206
S"    environment['__name__'] = '__restricted__'"
p3870
sI207
S'    try:'
p3871
sI208
S'        if isinstance(code, types.CodeType):'
p3872
sI209
S'            ccode = code'
p3873
sI210
S'        else:'
p3874
sI211
S'            ccode = compile2(code, layer)'
p3875
sI212
S'        exec ccode in environment'
p3876
sI213
S'    except HTTP:'
p3877
sI214
S'        raise'
p3878
sI215
S'    except RestrictedError:'
p3879
ssS'call'
p3880
S'(code=\'response.write(\\\'<!DOCTYPE html PUBLIC "-//W3C//D...d footer -->\\\\n </body>\\\\n</html>\\\\n\\\', escape=False)\', environment={\'A\': <class \'gluon.html.A\'>, \'Auth\': <class \'gluon.tools.Auth\'>, \'B\': <class \'gluon.html.B\'>, \'BEAUTIFY\': <class \'gluon.html.BEAUTIFY\'>, \'BODY\': <class \'gluon.html.BODY\'>, \'BR\': <class \'gluon.html.BR\'>, \'BUTTON\': <class \'gluon.html.BUTTON\'>, \'CAT\': <class \'gluon.html.CAT\'>, \'CENTER\': <class \'gluon.html.CENTER\'>, \'CLEANUP\': <class \'gluon.validators.CLEANUP\'>, ...}, layer=\'/home/darshan/web2py/applications/Garbage_Truck/views/default/request_reservior_view.html\')'
p3881
sS'func'
p3882
S'restricted'
p3883
sa(dp3884
g3855
S'/home/darshan/web2py/gluon/restricted.py'
p3885
sg3857
(dp3886
S'builtincompile'
p3887
S'<built-in function compile>'
p3888
sS'code'
p3889
S'\'response.write(\\\'<!DOCTYPE html PUBLIC "-//W3C//D...d footer -->\\\\n </body>\\\\n</html>\\\\n\\\', escape=False)\''
p3890
sS'code.rstrip'
p3891
S'<built-in method rstrip of str object>'
p3892
sS').replace'
p3893
g3866
sS'layer'
p3894
S"'/home/darshan/web2py/applications/Garbage_Truck/views/default/request_reservior_view.html'"
p3895
ssg3867
I194
sg3868
(dp3896
I192
S"    The +'\\n' is necessary else compile fails when code ends in a comment."
p3897
sI193
S'    """'
p3898
sI194
S"    return compile(code.rstrip().replace('\\r\\n', '\\n') + '\\n', layer, 'exec')"
p3899
sI195
S''
sI196
S''
sI197
S"def restricted(code, environment=None, layer='Unknown'):"
p3900
sI198
S'    """'
p3901
sI189
S''
sI190
S'def compile2(code, layer):'
p3902
sI191
S'    """'
p3903
ssg3880
S'(code=\'response.write(\\\'<!DOCTYPE html PUBLIC "-//W3C//D...d footer -->\\\\n </body>\\\\n</html>\\\\n\\\', escape=False)\', layer=\'/home/darshan/web2py/applications/Garbage_Truck/views/default/request_reservior_view.html\')'
p3904
sg3882
S'compile2'
p3905
sasS'pyver'
p3906
S'Python 2.7.6: /usr/bin/python'
p3907
sS'session'
p3908
g69
(g70
g71
NtRp3909
(dp3910
g74
(dp3911
sg76
(lp3912
g69
(g78
g71
NtRp3913
(dp3914
g74
(dp3915
g82
I5
ssg83
Nsg76
(lp3916
g69
(g85
g71
NtRp3917
(dp3918
g74
(dp3919
sg83
g3913
sg76
(lp3920
g69
(g90
g71
NtRp3921
(dp3922
g74
(dp3923
g94
g95
ssg83
g3917
sg76
(lp3924
S'auth'
p3925
asbag69
(g90
g71
NtRp3926
(dp3927
g74
(dp3928
g101
g102
ssg83
g3917
sg76
(lp3929
S':'
asbag69
(g90
g71
NtRp3930
(dp3931
g74
(dp3932
sg83
g3917
sg76
(lp3933
g69
(g70
g71
NtRp3934
(dp3935
g74
(dp3936
g82
I5
ssg83
g3930
sg76
(lp3937
g69
(g78
g71
NtRp3938
(dp3939
g74
(dp3940
g82
I4
ssg83
Nsg76
(lp3941
g69
(g85
g71
NtRp3942
(dp3943
g74
(dp3944
sg83
g3938
sg76
(lp3945
g69
(g90
g71
NtRp3946
(dp3947
g74
(dp3948
g94
g95
ssg83
g3942
sg76
(lp3949
S'expiration'
p3950
asbag69
(g90
g71
NtRp3951
(dp3952
g74
(dp3953
g101
g102
ssg83
g3942
sg76
(lp3954
S':'
asbag69
(g90
g71
NtRp3955
(dp3956
g74
(dp3957
sg83
g3942
sg76
(lp3958
g69
(g70
g71
NtRp3959
(dp3960
g74
(dp3961
g82
I4
ssg83
g3955
sg76
(lp3962
S'3600'
p3963
asbasbasbag69
(g85
g71
NtRp3964
(dp3965
g74
(dp3966
sg83
g3938
sg76
(lp3967
g69
(g90
g71
NtRp3968
(dp3969
g74
(dp3970
g94
g95
ssg83
g3964
sg76
(lp3971
S'hmac_key'
p3972
asbag69
(g90
g71
NtRp3973
(dp3974
g74
(dp3975
g101
g102
ssg83
g3964
sg76
(lp3976
S':'
asbag69
(g90
g71
NtRp3977
(dp3978
g74
(dp3979
sg83
g3964
sg76
(lp3980
g69
(g70
g71
NtRp3981
(dp3982
g74
(dp3983
g82
I4
ssg83
g3977
sg76
(lp3984
S'4352a417-154a-41d0-b73b-1c27518d7c74'
p3985
asbasbasbag69
(g85
g71
NtRp3986
(dp3987
g74
(dp3988
sg83
g3938
sg76
(lp3989
g69
(g90
g71
NtRp3990
(dp3991
g74
(dp3992
g94
g95
ssg83
g3986
sg76
(lp3993
S'last_visit'
p3994
asbag69
(g90
g71
NtRp3995
(dp3996
g74
(dp3997
g101
g102
ssg83
g3986
sg76
(lp3998
S':'
asbag69
(g90
g71
NtRp3999
(dp4000
g74
(dp4001
sg83
g3986
sg76
(lp4002
g69
(g70
g71
NtRp4003
(dp4004
g74
(dp4005
g82
I4
ssg83
g3999
sg76
(lp4006
S'datetime.datetime(2014, 9, 28, 12, 16, 26, 914374)'
p4007
asbasbasbag69
(g85
g71
NtRp4008
(dp4009
g74
(dp4010
sg83
g3938
sg76
(lp4011
g69
(g90
g71
NtRp4012
(dp4013
g74
(dp4014
g94
g95
ssg83
g4008
sg76
(lp4015
S'remember'
p4016
asbag69
(g90
g71
NtRp4017
(dp4018
g74
(dp4019
g101
g102
ssg83
g4008
sg76
(lp4020
S':'
asbag69
(g90
g71
NtRp4021
(dp4022
g74
(dp4023
sg83
g4008
sg76
(lp4024
g69
(g70
g71
NtRp4025
(dp4026
g74
(dp4027
g82
I4
ssg83
g4021
sg76
(lp4028
g112
asbasbasbag69
(g85
g71
NtRp4029
(dp4030
g74
(dp4031
sg83
g3938
sg76
(lp4032
g69
(g90
g71
NtRp4033
(dp4034
g74
(dp4035
g94
g95
ssg83
g4029
sg76
(lp4036
S'user'
p4037
asbag69
(g90
g71
NtRp4038
(dp4039
g74
(dp4040
g101
g102
ssg83
g4029
sg76
(lp4041
S':'
asbag69
(g90
g71
NtRp4042
(dp4043
g74
(dp4044
sg83
g4029
sg76
(lp4045
g69
(g70
g71
NtRp4046
(dp4047
g74
(dp4048
g82
I4
ssg83
g4042
sg76
(lp4049
g69
(g78
g71
NtRp4050
(dp4051
g74
(dp4052
g82
I3
ssg83
Nsg76
(lp4053
g69
(g85
g71
NtRp4054
(dp4055
g74
(dp4056
sg83
g4050
sg76
(lp4057
g69
(g90
g71
NtRp4058
(dp4059
g74
(dp4060
g94
g95
ssg83
g4054
sg76
(lp4061
S'email'
p4062
asbag69
(g90
g71
NtRp4063
(dp4064
g74
(dp4065
g101
g102
ssg83
g4054
sg76
(lp4066
S':'
asbag69
(g90
g71
NtRp4067
(dp4068
g74
(dp4069
sg83
g4054
sg76
(lp4070
g69
(g70
g71
NtRp4071
(dp4072
g74
(dp4073
g82
I3
ssg83
g4067
sg76
(lp4074
S'darpan@gmail.com'
p4075
asbasbasbag69
(g85
g71
NtRp4076
(dp4077
g74
(dp4078
sg83
g4050
sg76
(lp4079
g69
(g90
g71
NtRp4080
(dp4081
g74
(dp4082
g94
g95
ssg83
g4076
sg76
(lp4083
S'first_name'
p4084
asbag69
(g90
g71
NtRp4085
(dp4086
g74
(dp4087
g101
g102
ssg83
g4076
sg76
(lp4088
S':'
asbag69
(g90
g71
NtRp4089
(dp4090
g74
(dp4091
sg83
g4076
sg76
(lp4092
g69
(g70
g71
NtRp4093
(dp4094
g74
(dp4095
g82
I3
ssg83
g4089
sg76
(lp4096
S'darpan'
p4097
asbasbasbag69
(g85
g71
NtRp4098
(dp4099
g74
(dp4100
sg83
g4050
sg76
(lp4101
g69
(g90
g71
NtRp4102
(dp4103
g74
(dp4104
g94
g95
ssg83
g4098
sg76
(lp4105
S'id'
p4106
asbag69
(g90
g71
NtRp4107
(dp4108
g74
(dp4109
g101
g102
ssg83
g4098
sg76
(lp4110
S':'
asbag69
(g90
g71
NtRp4111
(dp4112
g74
(dp4113
sg83
g4098
sg76
(lp4114
g69
(g70
g71
NtRp4115
(dp4116
g74
(dp4117
g82
I3
ssg83
g4111
sg76
(lp4118
S'3'
asbasbasbag69
(g85
g71
NtRp4119
(dp4120
g74
(dp4121
sg83
g4050
sg76
(lp4122
g69
(g90
g71
NtRp4123
(dp4124
g74
(dp4125
g94
g95
ssg83
g4119
sg76
(lp4126
S'last_name'
p4127
asbag69
(g90
g71
NtRp4128
(dp4129
g74
(dp4130
g101
g102
ssg83
g4119
sg76
(lp4131
S':'
asbag69
(g90
g71
NtRp4132
(dp4133
g74
(dp4134
sg83
g4119
sg76
(lp4135
g69
(g70
g71
NtRp4136
(dp4137
g74
(dp4138
g82
I3
ssg83
g4132
sg76
(lp4139
S'baheti'
p4140
asbasbasbag69
(g85
g71
NtRp4141
(dp4142
g74
(dp4143
sg83
g4050
sg76
(lp4144
g69
(g90
g71
NtRp4145
(dp4146
g74
(dp4147
g94
g95
ssg83
g4141
sg76
(lp4148
S'registration_id'
p4149
asbag69
(g90
g71
NtRp4150
(dp4151
g74
(dp4152
g101
g102
ssg83
g4141
sg76
(lp4153
S':'
asbag69
(g90
g71
NtRp4154
(dp4155
g74
(dp4156
sg83
g4141
sg76
(lp4157
g69
(g70
g71
NtRp4158
(dp4159
g74
(dp4160
g82
I3
ssg83
g4154
sg76
(lp4161
S''
asbasbasbag69
(g85
g71
NtRp4162
(dp4163
g74
(dp4164
sg83
g4050
sg76
(lp4165
g69
(g90
g71
NtRp4166
(dp4167
g74
(dp4168
g94
g95
ssg83
g4162
sg76
(lp4169
S'registration_key'
p4170
asbag69
(g90
g71
NtRp4171
(dp4172
g74
(dp4173
g101
g102
ssg83
g4162
sg76
(lp4174
S':'
asbag69
(g90
g71
NtRp4175
(dp4176
g74
(dp4177
sg83
g4162
sg76
(lp4178
g69
(g70
g71
NtRp4179
(dp4180
g74
(dp4181
g82
I3
ssg83
g4175
sg76
(lp4182
S''
asbasbasbag69
(g85
g71
NtRp4183
(dp4184
g74
(dp4185
sg83
g4050
sg76
(lp4186
g69
(g90
g71
NtRp4187
(dp4188
g74
(dp4189
g94
g95
ssg83
g4183
sg76
(lp4190
S'reset_password_key'
p4191
asbag69
(g90
g71
NtRp4192
(dp4193
g74
(dp4194
g101
g102
ssg83
g4183
sg76
(lp4195
S':'
asbag69
(g90
g71
NtRp4196
(dp4197
g74
(dp4198
sg83
g4183
sg76
(lp4199
g69
(g70
g71
NtRp4200
(dp4201
g74
(dp4202
g82
I3
ssg83
g4196
sg76
(lp4203
S''
asbasbasbag69
(g85
g71
NtRp4204
(dp4205
g74
(dp4206
sg83
g4050
sg76
(lp4207
g69
(g90
g71
NtRp4208
(dp4209
g74
(dp4210
g94
g95
ssg83
g4204
sg76
(lp4211
S'username'
p4212
asbag69
(g90
g71
NtRp4213
(dp4214
g74
(dp4215
g101
g102
ssg83
g4204
sg76
(lp4216
S':'
asbag69
(g90
g71
NtRp4217
(dp4218
g74
(dp4219
sg83
g4204
sg76
(lp4220
g69
(g70
g71
NtRp4221
(dp4222
g74
(dp4223
g82
I3
ssg83
g4217
sg76
(lp4224
S'darpan'
p4225
asbasbasbasbasbasbasbag69
(g85
g71
NtRp4226
(dp4227
g74
(dp4228
sg83
g3938
sg76
(lp4229
g69
(g90
g71
NtRp4230
(dp4231
g74
(dp4232
g94
g95
ssg83
g4226
sg76
(lp4233
S'user_groups'
p4234
asbag69
(g90
g71
NtRp4235
(dp4236
g74
(dp4237
g101
g102
ssg83
g4226
sg76
(lp4238
S':'
asbag69
(g90
g71
NtRp4239
(dp4240
g74
(dp4241
sg83
g4226
sg76
(lp4242
g69
(g70
g71
NtRp4243
(dp4244
g74
(dp4245
g82
I4
ssg83
g4239
sg76
(lp4246
g69
(g78
g71
NtRp4247
(dp4248
g74
(dp4249
g82
I3
ssg83
Nsg76
(lp4250
g69
(g85
g71
NtRp4251
(dp4252
g74
(dp4253
sg83
g4247
sg76
(lp4254
g69
(g90
g71
NtRp4255
(dp4256
g74
(dp4257
g94
g95
ssg83
g4251
sg76
(lp4258
S'2'
asbag69
(g90
g71
NtRp4259
(dp4260
g74
(dp4261
g101
g102
ssg83
g4251
sg76
(lp4262
S':'
asbag69
(g90
g71
NtRp4263
(dp4264
g74
(dp4265
sg83
g4251
sg76
(lp4266
g69
(g70
g71
NtRp4267
(dp4268
g74
(dp4269
g82
I3
ssg83
g4263
sg76
(lp4270
S'ghmc_admin'
p4271
asbasbasbasbasbasbasbasbasbasbasbag69
(g85
g71
NtRp4272
(dp4273
g74
(dp4274
sg83
g3913
sg76
(lp4275
g69
(g90
g71
NtRp4276
(dp4277
g74
(dp4278
g94
g95
ssg83
g4272
sg76
(lp4279
S'flash'
p4280
asbag69
(g90
g71
NtRp4281
(dp4282
g74
(dp4283
g101
g102
ssg83
g4272
sg76
(lp4284
S':'
asbag69
(g90
g71
NtRp4285
(dp4286
g74
(dp4287
sg83
g4272
sg76
(lp4288
g69
(g70
g71
NtRp4289
(dp4290
g74
(dp4291
g82
I5
ssg83
g4285
sg76
(lp4292
S'None'
p4293
asbasbasbag69
(g85
g71
NtRp4294
(dp4295
g74
(dp4296
sg83
g3913
sg76
(lp4297
g69
(g90
g71
NtRp4298
(dp4299
g74
(dp4300
g94
g95
ssg83
g4294
sg76
(lp4301
S'last_orderby'
p4302
asbag69
(g90
g71
NtRp4303
(dp4304
g74
(dp4305
g101
g102
ssg83
g4294
sg76
(lp4306
S':'
asbag69
(g90
g71
NtRp4307
(dp4308
g74
(dp4309
sg83
g4294
sg76
(lp4310
g69
(g70
g71
NtRp4311
(dp4312
g74
(dp4313
g82
I5
ssg83
g4307
sg76
(lp4314
S'None'
p4315
asbasbasbag69
(g85
g71
NtRp4316
(dp4317
g74
(dp4318
sg83
g3913
sg76
(lp4319
g69
(g90
g71
NtRp4320
(dp4321
g74
(dp4322
g94
g95
ssg83
g4316
sg76
(lp4323
S'last_query'
p4324
asbag69
(g90
g71
NtRp4325
(dp4326
g74
(dp4327
g101
g102
ssg83
g4316
sg76
(lp4328
S':'
asbag69
(g90
g71
NtRp4329
(dp4330
g74
(dp4331
sg83
g4316
sg76
(lp4332
g69
(g70
g71
NtRp4333
(dp4334
g74
(dp4335
g82
I5
ssg83
g4329
sg76
(lp4336
S'db.auth_user.id>0'
p4337
asbasbasbag69
(g85
g71
NtRp4338
(dp4339
g74
(dp4340
sg83
g3913
sg76
(lp4341
g69
(g90
g71
NtRp4342
(dp4343
g74
(dp4344
g94
g95
ssg83
g4338
sg76
(lp4345
S'user_id'
p4346
asbag69
(g90
g71
NtRp4347
(dp4348
g74
(dp4349
g101
g102
ssg83
g4338
sg76
(lp4350
S':'
asbag69
(g90
g71
NtRp4351
(dp4352
g74
(dp4353
sg83
g4338
sg76
(lp4354
g69
(g70
g71
NtRp4355
(dp4356
g74
(dp4357
g82
I5
ssg83
g4351
sg76
(lp4358
S'3'
asbasbasbag69
(g85
g71
NtRp4359
(dp4360
g74
(dp4361
sg83
g3913
sg76
(lp4362
g69
(g90
g71
NtRp4363
(dp4364
g74
(dp4365
g94
g95
ssg83
g4359
sg76
(lp4366
S'user_name'
p4367
asbag69
(g90
g71
NtRp4368
(dp4369
g74
(dp4370
g101
g102
ssg83
g4359
sg76
(lp4371
S':'
asbag69
(g90
g71
NtRp4372
(dp4373
g74
(dp4374
sg83
g4359
sg76
(lp4375
g69
(g70
g71
NtRp4376
(dp4377
g74
(dp4378
g82
I5
ssg83
g4372
sg76
(lp4379
g4097
asbasbasbasbasbsS'etype'
p4380
S"<type 'exceptions.SyntaxError'>"
p4381
sS'date'
p4382
S'Sun Sep 28 12:17:23 2014'
p4383
sS'response'
p4384
g69
(g70
g71
NtRp4385
(dp4386
g74
(dp4387
sg76
(lp4388
g69
(g78
g71
NtRp4389
(dp4390
g74
(dp4391
g82
I5
ssg83
Nsg76
(lp4392
g69
(g85
g71
NtRp4393
(dp4394
g74
(dp4395
sg83
g4389
sg76
(lp4396
g69
(g90
g71
NtRp4397
(dp4398
g74
(dp4399
g94
g95
ssg83
g4393
sg76
(lp4400
g167
asbag69
(g90
g71
NtRp4401
(dp4402
g74
(dp4403
g101
g102
ssg83
g4393
sg76
(lp4404
S':'
asbag69
(g90
g71
NtRp4405
(dp4406
g74
(dp4407
sg83
g4393
sg76
(lp4408
g69
(g70
g71
NtRp4409
(dp4410
g74
(dp4411
g82
I5
ssg83
g4405
sg76
(lp4412
S'<cStringIO.StringO object at 0x7f9289394e68>'
p4413
asbasbasbag69
(g85
g71
NtRp4414
(dp4415
g74
(dp4416
sg83
g4389
sg76
(lp4417
g69
(g90
g71
NtRp4418
(dp4419
g74
(dp4420
g94
g95
ssg83
g4414
sg76
(lp4421
g255
asbag69
(g90
g71
NtRp4422
(dp4423
g74
(dp4424
g101
g102
ssg83
g4414
sg76
(lp4425
S':'
asbag69
(g90
g71
NtRp4426
(dp4427
g74
(dp4428
sg83
g4414
sg76
(lp4429
g69
(g70
g71
NtRp4430
(dp4431
g74
(dp4432
g82
I5
ssg83
g4426
sg76
(lp4433
g69
(g78
g71
NtRp4434
(dp4435
g74
(dp4436
g82
I4
ssg83
Nsg76
(lp4437
g69
(g85
g71
NtRp4438
(dp4439
g74
(dp4440
sg83
g4434
sg76
(lp4441
g69
(g90
g71
NtRp4442
(dp4443
g74
(dp4444
g94
g95
ssg83
g4438
sg76
(lp4445
S'session_id_garbage_truck'
p4446
asbag69
(g90
g71
NtRp4447
(dp4448
g74
(dp4449
g101
g102
ssg83
g4438
sg76
(lp4450
S':'
asbag69
(g90
g71
NtRp4451
(dp4452
g74
(dp4453
sg83
g4438
sg76
(lp4454
g69
(g70
g71
NtRp4455
(dp4456
g74
(dp4457
g82
I4
ssg83
g4451
sg76
(lp4458
g673
ag69
(g78
g71
NtRp4459
(dp4460
g74
(dp4461
g82
I3
ssg83
Nsg76
(lp4462
g69
(g85
g71
NtRp4463
(dp4464
g74
(dp4465
sg83
g4459
sg76
(lp4466
g69
(g90
g71
NtRp4467
(dp4468
g74
(dp4469
g94
g95
ssg83
g4463
sg76
(lp4470
g306
asbag69
(g90
g71
NtRp4471
(dp4472
g74
(dp4473
g101
g102
ssg83
g4463
sg76
(lp4474
S':'
asbag69
(g90
g71
NtRp4475
(dp4476
g74
(dp4477
sg83
g4463
sg76
(lp4478
g69
(g70
g71
NtRp4479
(dp4480
g74
(dp4481
g82
I3
ssg83
g4475
sg76
(lp4482
S''
asbasbasbag69
(g85
g71
NtRp4483
(dp4484
g74
(dp4485
sg83
g4459
sg76
(lp4486
g69
(g90
g71
NtRp4487
(dp4488
g74
(dp4489
g94
g95
ssg83
g4483
sg76
(lp4490
g327
asbag69
(g90
g71
NtRp4491
(dp4492
g74
(dp4493
g101
g102
ssg83
g4483
sg76
(lp4494
S':'
asbag69
(g90
g71
NtRp4495
(dp4496
g74
(dp4497
sg83
g4483
sg76
(lp4498
g69
(g70
g71
NtRp4499
(dp4500
g74
(dp4501
g82
I3
ssg83
g4495
sg76
(lp4502
S''
asbasbasbag69
(g85
g71
NtRp4503
(dp4504
g74
(dp4505
sg83
g4459
sg76
(lp4506
g69
(g90
g71
NtRp4507
(dp4508
g74
(dp4509
g94
g95
ssg83
g4503
sg76
(lp4510
g348
asbag69
(g90
g71
NtRp4511
(dp4512
g74
(dp4513
g101
g102
ssg83
g4503
sg76
(lp4514
S':'
asbag69
(g90
g71
NtRp4515
(dp4516
g74
(dp4517
sg83
g4503
sg76
(lp4518
g69
(g70
g71
NtRp4519
(dp4520
g74
(dp4521
g82
I3
ssg83
g4515
sg76
(lp4522
S''
asbasbasbag69
(g85
g71
NtRp4523
(dp4524
g74
(dp4525
sg83
g4459
sg76
(lp4526
g69
(g90
g71
NtRp4527
(dp4528
g74
(dp4529
g94
g95
ssg83
g4523
sg76
(lp4530
g369
asbag69
(g90
g71
NtRp4531
(dp4532
g74
(dp4533
g101
g102
ssg83
g4523
sg76
(lp4534
S':'
asbag69
(g90
g71
NtRp4535
(dp4536
g74
(dp4537
sg83
g4523
sg76
(lp4538
g69
(g70
g71
NtRp4539
(dp4540
g74
(dp4541
g82
I3
ssg83
g4535
sg76
(lp4542
S''
asbasbasbag69
(g85
g71
NtRp4543
(dp4544
g74
(dp4545
sg83
g4459
sg76
(lp4546
g69
(g90
g71
NtRp4547
(dp4548
g74
(dp4549
g94
g95
ssg83
g4543
sg76
(lp4550
g390
asbag69
(g90
g71
NtRp4551
(dp4552
g74
(dp4553
g101
g102
ssg83
g4543
sg76
(lp4554
S':'
asbag69
(g90
g71
NtRp4555
(dp4556
g74
(dp4557
sg83
g4543
sg76
(lp4558
g69
(g70
g71
NtRp4559
(dp4560
g74
(dp4561
g82
I3
ssg83
g4555
sg76
(lp4562
S''
asbasbasbag69
(g85
g71
NtRp4563
(dp4564
g74
(dp4565
sg83
g4459
sg76
(lp4566
g69
(g90
g71
NtRp4567
(dp4568
g74
(dp4569
g94
g95
ssg83
g4563
sg76
(lp4570
g411
asbag69
(g90
g71
NtRp4571
(dp4572
g74
(dp4573
g101
g102
ssg83
g4563
sg76
(lp4574
S':'
asbag69
(g90
g71
NtRp4575
(dp4576
g74
(dp4577
sg83
g4563
sg76
(lp4578
g69
(g70
g71
NtRp4579
(dp4580
g74
(dp4581
g82
I3
ssg83
g4575
sg76
(lp4582
S'/'
asbasbasbag69
(g85
g71
NtRp4583
(dp4584
g74
(dp4585
sg83
g4459
sg76
(lp4586
g69
(g90
g71
NtRp4587
(dp4588
g74
(dp4589
g94
g95
ssg83
g4583
sg76
(lp4590
g432
asbag69
(g90
g71
NtRp4591
(dp4592
g74
(dp4593
g101
g102
ssg83
g4583
sg76
(lp4594
S':'
asbag69
(g90
g71
NtRp4595
(dp4596
g74
(dp4597
sg83
g4583
sg76
(lp4598
g69
(g70
g71
NtRp4599
(dp4600
g74
(dp4601
g82
I3
ssg83
g4595
sg76
(lp4602
S''
asbasbasbag69
(g85
g71
NtRp4603
(dp4604
g74
(dp4605
sg83
g4459
sg76
(lp4606
g69
(g90
g71
NtRp4607
(dp4608
g74
(dp4609
g94
g95
ssg83
g4603
sg76
(lp4610
g453
asbag69
(g90
g71
NtRp4611
(dp4612
g74
(dp4613
g101
g102
ssg83
g4603
sg76
(lp4614
S':'
asbag69
(g90
g71
NtRp4615
(dp4616
g74
(dp4617
sg83
g4603
sg76
(lp4618
g69
(g70
g71
NtRp4619
(dp4620
g74
(dp4621
g82
I3
ssg83
g4615
sg76
(lp4622
S''
asbasbasbasbasbasbasbasbasbasbasbag69
(g85
g71
NtRp4623
(dp4624
g74
(dp4625
sg83
g4389
sg76
(lp4626
g69
(g90
g71
NtRp4627
(dp4628
g74
(dp4629
g94
g95
ssg83
g4623
sg76
(lp4630
S'delimiters'
p4631
asbag69
(g90
g71
NtRp4632
(dp4633
g74
(dp4634
g101
g102
ssg83
g4623
sg76
(lp4635
S':'
asbag69
(g90
g71
NtRp4636
(dp4637
g74
(dp4638
sg83
g4623
sg76
(lp4639
g69
(g70
g71
NtRp4640
(dp4641
g74
(dp4642
g82
I5
ssg83
g4636
sg76
(lp4643
g69
(g78
g71
NtRp4644
(dp4645
g74
(dp4646
g82
I4
ssg83
Nsg76
(lp4647
g69
(g85
g71
NtRp4648
(dp4649
g74
(dp4650
sg83
g4644
sg76
(lp4651
g69
(g90
g71
NtRp4652
(dp4653
g74
(dp4654
sg83
g4648
sg76
(lp4655
g69
(g70
g71
NtRp4656
(dp4657
g74
(dp4658
g82
I4
ssg83
g4652
sg76
(lp4659
S'{{'
p4660
asbasbasbag69
(g85
g71
NtRp4661
(dp4662
g74
(dp4663
sg83
g4644
sg76
(lp4664
g69
(g90
g71
NtRp4665
(dp4666
g74
(dp4667
sg83
g4661
sg76
(lp4668
g69
(g70
g71
NtRp4669
(dp4670
g74
(dp4671
g82
I4
ssg83
g4665
sg76
(lp4672
S'}}'
p4673
asbasbasbasbasbasbasbag69
(g85
g71
NtRp4674
(dp4675
g74
(dp4676
sg83
g4389
sg76
(lp4677
g69
(g90
g71
NtRp4678
(dp4679
g74
(dp4680
g94
g95
ssg83
g4674
sg76
(lp4681
S'files'
p4682
asbag69
(g90
g71
NtRp4683
(dp4684
g74
(dp4685
g101
g102
ssg83
g4674
sg76
(lp4686
S':'
asbag69
(g90
g71
NtRp4687
(dp4688
g74
(dp4689
sg83
g4674
sg76
(lp4690
g69
(g70
g71
NtRp4691
(dp4692
g74
(dp4693
g82
I5
ssg83
g4687
sg76
(lp4694
g69
(g78
g71
NtRp4695
(dp4696
g74
(dp4697
g82
I4
ssg83
Nsg76
(lp4698
sbasbasbasbag69
(g85
g71
NtRp4699
(dp4700
g74
(dp4701
sg83
g4389
sg76
(lp4702
g69
(g90
g71
NtRp4703
(dp4704
g74
(dp4705
g94
g95
ssg83
g4699
sg76
(lp4706
S'flash'
p4707
asbag69
(g90
g71
NtRp4708
(dp4709
g74
(dp4710
g101
g102
ssg83
g4699
sg76
(lp4711
S':'
asbag69
(g90
g71
NtRp4712
(dp4713
g74
(dp4714
sg83
g4699
sg76
(lp4715
g69
(g70
g71
NtRp4716
(dp4717
g74
(dp4718
g82
I5
ssg83
g4712
sg76
(lp4719
S''
asbasbasbag69
(g85
g71
NtRp4720
(dp4721
g74
(dp4722
sg83
g4389
sg76
(lp4723
g69
(g90
g71
NtRp4724
(dp4725
g74
(dp4726
g94
g95
ssg83
g4720
sg76
(lp4727
S'generic_patterns'
p4728
asbag69
(g90
g71
NtRp4729
(dp4730
g74
(dp4731
g101
g102
ssg83
g4720
sg76
(lp4732
S':'
asbag69
(g90
g71
NtRp4733
(dp4734
g74
(dp4735
sg83
g4720
sg76
(lp4736
g69
(g70
g71
NtRp4737
(dp4738
g74
(dp4739
g82
I5
ssg83
g4733
sg76
(lp4740
g69
(g78
g71
NtRp4741
(dp4742
g74
(dp4743
g82
I4
ssg83
Nsg76
(lp4744
g69
(g85
g71
NtRp4745
(dp4746
g74
(dp4747
sg83
g4741
sg76
(lp4748
g69
(g90
g71
NtRp4749
(dp4750
g74
(dp4751
sg83
g4745
sg76
(lp4752
g69
(g70
g71
NtRp4753
(dp4754
g74
(dp4755
g82
I4
ssg83
g4749
sg76
(lp4756
S'*'
asbasbasbasbasbasbasbag69
(g85
g71
NtRp4757
(dp4758
g74
(dp4759
sg83
g4389
sg76
(lp4760
g69
(g90
g71
NtRp4761
(dp4762
g74
(dp4763
g94
g95
ssg83
g4757
sg76
(lp4764
S'google_analytics_id'
p4765
asbag69
(g90
g71
NtRp4766
(dp4767
g74
(dp4768
g101
g102
ssg83
g4757
sg76
(lp4769
S':'
asbag69
(g90
g71
NtRp4770
(dp4771
g74
(dp4772
sg83
g4757
sg76
(lp4773
g69
(g70
g71
NtRp4774
(dp4775
g74
(dp4776
g82
I5
ssg83
g4770
sg76
(lp4777
S'None'
p4778
asbasbasbag69
(g85
g71
NtRp4779
(dp4780
g74
(dp4781
sg83
g4389
sg76
(lp4782
g69
(g90
g71
NtRp4783
(dp4784
g74
(dp4785
g94
g95
ssg83
g4779
sg76
(lp4786
S'headers'
p4787
asbag69
(g90
g71
NtRp4788
(dp4789
g74
(dp4790
g101
g102
ssg83
g4779
sg76
(lp4791
S':'
asbag69
(g90
g71
NtRp4792
(dp4793
g74
(dp4794
sg83
g4779
sg76
(lp4795
g69
(g70
g71
NtRp4796
(dp4797
g74
(dp4798
g82
I5
ssg83
g4792
sg76
(lp4799
g69
(g78
g71
NtRp4800
(dp4801
g74
(dp4802
g82
I4
ssg83
Nsg76
(lp4803
g69
(g85
g71
NtRp4804
(dp4805
g74
(dp4806
sg83
g4800
sg76
(lp4807
g69
(g90
g71
NtRp4808
(dp4809
g74
(dp4810
g94
g95
ssg83
g4804
sg76
(lp4811
S'X-Powered-By'
p4812
asbag69
(g90
g71
NtRp4813
(dp4814
g74
(dp4815
g101
g102
ssg83
g4804
sg76
(lp4816
S':'
asbag69
(g90
g71
NtRp4817
(dp4818
g74
(dp4819
sg83
g4804
sg76
(lp4820
g69
(g70
g71
NtRp4821
(dp4822
g74
(dp4823
g82
I4
ssg83
g4817
sg76
(lp4824
S'web2py'
p4825
asbasbasbasbasbasbasbag69
(g85
g71
NtRp4826
(dp4827
g74
(dp4828
sg83
g4389
sg76
(lp4829
g69
(g90
g71
NtRp4830
(dp4831
g74
(dp4832
g94
g95
ssg83
g4826
sg76
(lp4833
S'logo'
p4834
asbag69
(g90
g71
NtRp4835
(dp4836
g74
(dp4837
g101
g102
ssg83
g4826
sg76
(lp4838
S':'
asbag69
(g90
g71
NtRp4839
(dp4840
g74
(dp4841
sg83
g4826
sg76
(lp4842
g69
(g70
g71
NtRp4843
(dp4844
g74
(dp4845
g82
I5
ssg83
g4839
sg76
(lp4846
g69
(cgluon.html
A
p4847
g71
NtRp4848
(dp4849
g74
(dp4850
S'_class'
p4851
S'brand'
p4852
sS'_href'
p4853
S'http://www.web2py.com/'
p4854
ssg83
Nsg76
(lp4855
g69
(cgluon.html
B
p4856
g71
NtRp4857
(dp4858
g74
(dp4859
sg83
g4848
sg76
(lp4860
S'web'
p4861
ag69
(cgluon.html
SPAN
p4862
g71
NtRp4863
(dp4864
g74
(dp4865
sg83
g4857
sg76
(lp4866
I2
asbaS'py'
p4867
asbacgluon.html
XML_unpickle
p4868
(S's\r\x00\x00\x00&trade;&nbsp;'
tRp4869
asbasbasbasbag69
(g85
g71
NtRp4870
(dp4871
g74
(dp4872
sg83
g4389
sg76
(lp4873
g69
(g90
g71
NtRp4874
(dp4875
g74
(dp4876
g94
g95
ssg83
g4870
sg76
(lp4877
S'menu'
p4878
asbag69
(g90
g71
NtRp4879
(dp4880
g74
(dp4881
g101
g102
ssg83
g4870
sg76
(lp4882
S':'
asbag69
(g90
g71
NtRp4883
(dp4884
g74
(dp4885
sg83
g4870
sg76
(lp4886
g69
(g70
g71
NtRp4887
(dp4888
g74
(dp4889
g82
I5
ssg83
g4883
sg76
(lp4890
g69
(g78
g71
NtRp4891
(dp4892
g74
(dp4893
g82
I4
ssg83
Nsg76
(lp4894
g69
(g85
g71
NtRp4895
(dp4896
g74
(dp4897
sg83
g4891
sg76
(lp4898
g69
(g90
g71
NtRp4899
(dp4900
g74
(dp4901
sg83
g4895
sg76
(lp4902
g69
(g70
g71
NtRp4903
(dp4904
g74
(dp4905
g82
I4
ssg83
g4899
sg76
(lp4906
g69
(g78
g71
NtRp4907
(dp4908
g74
(dp4909
g82
I3
ssg83
Nsg76
(lp4910
g69
(g85
g71
NtRp4911
(dp4912
g74
(dp4913
sg83
g4907
sg76
(lp4914
g69
(g90
g71
NtRp4915
(dp4916
g74
(dp4917
sg83
g4911
sg76
(lp4918
g69
(g70
g71
NtRp4919
(dp4920
g74
(dp4921
g82
I3
ssg83
g4915
sg76
(lp4922
cgluon.languages
lazyT_unpickle
p4923
(S's\x04\x00\x00\x00Home'
tRp4924
asbasbasbag69
(g85
g71
NtRp4925
(dp4926
g74
(dp4927
sg83
g4907
sg76
(lp4928
g69
(g90
g71
NtRp4929
(dp4930
g74
(dp4931
sg83
g4925
sg76
(lp4932
g69
(g70
g71
NtRp4933
(dp4934
g74
(dp4935
g82
I3
ssg83
g4929
sg76
(lp4936
g112
asbasbasbag69
(g85
g71
NtRp4937
(dp4938
g74
(dp4939
sg83
g4907
sg76
(lp4940
g69
(g90
g71
NtRp4941
(dp4942
g74
(dp4943
sg83
g4937
sg76
(lp4944
g69
(g70
g71
NtRp4945
(dp4946
g74
(dp4947
g82
I3
ssg83
g4941
sg76
(lp4948
S'/Garbage_Truck/default/index'
p4949
asbasbasbag69
(g85
g71
NtRp4950
(dp4951
g74
(dp4952
sg83
g4907
sg76
(lp4953
g69
(g90
g71
NtRp4954
(dp4955
g74
(dp4956
sg83
g4950
sg76
(lp4957
g69
(g70
g71
NtRp4958
(dp4959
g74
(dp4960
g82
I3
ssg83
g4954
sg76
(lp4961
g69
(g78
g71
NtRp4962
(dp4963
g74
(dp4964
g82
I2
ssg83
Nsg76
(lp4965
sbasbasbasbasbasbasbasbag69
(g85
g71
NtRp4966
(dp4967
g74
(dp4968
sg83
g4891
sg76
(lp4969
g69
(g90
g71
NtRp4970
(dp4971
g74
(dp4972
sg83
g4966
sg76
(lp4973
g69
(g70
g71
NtRp4974
(dp4975
g74
(dp4976
g82
I4
ssg83
g4970
sg76
(lp4977
g69
(g78
g71
NtRp4978
(dp4979
g74
(dp4980
g82
I3
ssg83
Nsg76
(lp4981
g69
(g85
g71
NtRp4982
(dp4983
g74
(dp4984
sg83
g4978
sg76
(lp4985
g69
(g90
g71
NtRp4986
(dp4987
g74
(dp4988
sg83
g4982
sg76
(lp4989
g69
(g70
g71
NtRp4990
(dp4991
g74
(dp4992
g82
I3
ssg83
g4986
sg76
(lp4993
g69
(g4862
g71
NtRp4994
(dp4995
g74
(dp4996
g4851
S'highlighted'
p4997
ssg83
Nsg76
(lp4998
g4825
asbasbasbasbag69
(g85
g71
NtRp4999
(dp5000
g74
(dp5001
sg83
g4978
sg76
(lp5002
g69
(g90
g71
NtRp5003
(dp5004
g74
(dp5005
sg83
g4999
sg76
(lp5006
g69
(g70
g71
NtRp5007
(dp5008
g74
(dp5009
g82
I3
ssg83
g5003
sg76
(lp5010
g112
asbasbasbag69
(g85
g71
NtRp5011
(dp5012
g74
(dp5013
sg83
g4978
sg76
(lp5014
g69
(g90
g71
NtRp5015
(dp5016
g74
(dp5017
sg83
g5011
sg76
(lp5018
g69
(g70
g71
NtRp5019
(dp5020
g74
(dp5021
g82
I3
ssg83
g5015
sg76
(lp5022
S'http://web2py.com'
p5023
asbasbasbag69
(g85
g71
NtRp5024
(dp5025
g74
(dp5026
sg83
g4978
sg76
(lp5027
g69
(g90
g71
NtRp5028
(dp5029
g74
(dp5030
sg83
g5024
sg76
(lp5031
g69
(g70
g71
NtRp5032
(dp5033
g74
(dp5034
g82
I3
ssg83
g5028
sg76
(lp5035
g69
(g78
g71
NtRp5036
(dp5037
g74
(dp5038
g82
I2
ssg83
Nsg76
(lp5039
g69
(g85
g71
NtRp5040
(dp5041
g74
(dp5042
sg83
g5036
sg76
(lp5043
g69
(g90
g71
NtRp5044
(dp5045
g74
(dp5046
sg83
g5040
sg76
(lp5047
g69
(g70
g71
NtRp5048
(dp5049
g74
(dp5050
g82
I2
ssg83
g5044
sg76
(lp5051
g69
(g78
g71
NtRp5052
(dp5053
g74
(dp5054
g82
I1
ssg83
Nsg76
(lp5055
g69
(g85
g71
NtRp5056
(dp5057
g74
(dp5058
sg83
g5052
sg76
(lp5059
g69
(g90
g71
NtRp5060
(dp5061
g74
(dp5062
sg83
g5056
sg76
(lp5063
g69
(g70
g71
NtRp5064
(dp5065
g74
(dp5066
g82
I1
ssg83
g5060
sg76
(lp5067
g4923
(S's\x08\x00\x00\x00My Sites'
tRp5068
asbasbasbag69
(g85
g71
NtRp5069
(dp5070
g74
(dp5071
sg83
g5052
sg76
(lp5072
g69
(g90
g71
NtRp5073
(dp5074
g74
(dp5075
sg83
g5069
sg76
(lp5076
g69
(g70
g71
NtRp5077
(dp5078
g74
(dp5079
g82
I1
ssg83
g5073
sg76
(lp5080
I00
asbasbasbag69
(g85
g71
NtRp5081
(dp5082
g74
(dp5083
sg83
g5052
sg76
(lp5084
g69
(g90
g71
NtRp5085
(dp5086
g74
(dp5087
sg83
g5081
sg76
(lp5088
g69
(g70
g71
NtRp5089
(dp5090
g74
(dp5091
g82
I1
ssg83
g5085
sg76
(lp5092
S'/admin/default/site'
p5093
asbasbasbasbasbasbasbag69
(g85
g71
NtRp5094
(dp5095
g74
(dp5096
sg83
g5036
sg76
(lp5097
g69
(g90
g71
NtRp5098
(dp5099
g74
(dp5100
sg83
g5094
sg76
(lp5101
g69
(g70
g71
NtRp5102
(dp5103
g74
(dp5104
g82
I2
ssg83
g5098
sg76
(lp5105
g69
(g78
g71
NtRp5106
(dp5107
g74
(dp5108
g82
I1
ssg83
Nsg76
(lp5109
g69
(g85
g71
NtRp5110
(dp5111
g74
(dp5112
sg83
g5106
sg76
(lp5113
g69
(g90
g71
NtRp5114
(dp5115
g74
(dp5116
sg83
g5110
sg76
(lp5117
g69
(g70
g71
NtRp5118
(dp5119
g74
(dp5120
g82
I1
ssg83
g5114
sg76
(lp5121
g4923
(S's\x08\x00\x00\x00This App'
tRp5122
asbasbasbag69
(g85
g71
NtRp5123
(dp5124
g74
(dp5125
sg83
g5106
sg76
(lp5126
g69
(g90
g71
NtRp5127
(dp5128
g74
(dp5129
sg83
g5123
sg76
(lp5130
g69
(g70
g71
NtRp5131
(dp5132
g74
(dp5133
g82
I1
ssg83
g5127
sg76
(lp5134
I00
asbasbasbag69
(g85
g71
NtRp5135
(dp5136
g74
(dp5137
sg83
g5106
sg76
(lp5138
g69
(g90
g71
NtRp5139
(dp5140
g74
(dp5141
sg83
g5135
sg76
(lp5142
g69
(g70
g71
NtRp5143
(dp5144
g74
(dp5145
g82
I1
ssg83
g5139
sg76
(lp5146
S'/admin/default/design/Garbage_Truck'
p5147
asbasbasbag69
(g85
g71
NtRp5148
(dp5149
g74
(dp5150
sg83
g5106
sg76
(lp5151
g69
(g90
g71
NtRp5152
(dp5153
g74
(dp5154
sg83
g5148
sg76
(lp5155
g69
(g70
g71
NtRp5156
(dp5157
g74
(dp5158
g82
I1
ssg83
g5152
sg76
(lp5159
(lp5160
(g4923
(S's\n\x00\x00\x00Controller'
tRp5161
I00
S'/admin/default/edit/Garbage_Truck/controllers/default.py'
tp5162
a(g4923
(S's\x04\x00\x00\x00View'
tRp5163
I00
S'/admin/default/edit/Garbage_Truck/views/default/request_reservior_view.html'
tp5164
a(g4923
(S's\x06\x00\x00\x00Layout'
tRp5165
I00
S'/admin/default/edit/Garbage_Truck/views/layout.html'
tp5166
a(g4923
(S's\n\x00\x00\x00Stylesheet'
tRp5167
I00
S'/admin/default/edit/Garbage_Truck/static/css/web2py.css'
tp5168
a(g4923
(S's\x08\x00\x00\x00DB Model'
tRp5169
I00
S'/admin/default/edit/Garbage_Truck/models/db.py'
tp5170
a(g4923
(S's\n\x00\x00\x00Menu Model'
tRp5171
I00
S'/admin/default/edit/Garbage_Truck/models/menu.py'
tp5172
a(g4923
(S's\x08\x00\x00\x00Database'
tRp5173
I00
S'/Garbage_Truck/appadmin/index'
tp5174
a(g4923
(S's\x06\x00\x00\x00Errors'
tRp5175
I00
S'/admin/default/errors/Garbage_Truck'
tp5176
a(g4923
(S's\x05\x00\x00\x00About'
tRp5177
I00
S'/admin/default/about/Garbage_Truck'
tp5178
aasbasbasbasbasbasbasbag69
(g85
g71
NtRp5179
(dp5180
g74
(dp5181
sg83
g5036
sg76
(lp5182
g69
(g90
g71
NtRp5183
(dp5184
g74
(dp5185
sg83
g5179
sg76
(lp5186
g69
(g70
g71
NtRp5187
(dp5188
g74
(dp5189
g82
I2
ssg83
g5183
sg76
(lp5190
g69
(g78
g71
NtRp5191
(dp5192
g74
(dp5193
g82
I1
ssg83
Nsg76
(lp5194
g69
(g85
g71
NtRp5195
(dp5196
g74
(dp5197
sg83
g5191
sg76
(lp5198
g69
(g90
g71
NtRp5199
(dp5200
g74
(dp5201
sg83
g5195
sg76
(lp5202
g69
(g70
g71
NtRp5203
(dp5204
g74
(dp5205
g82
I1
ssg83
g5199
sg76
(lp5206
S'web2py.com'
p5207
asbasbasbag69
(g85
g71
NtRp5208
(dp5209
g74
(dp5210
sg83
g5191
sg76
(lp5211
g69
(g90
g71
NtRp5212
(dp5213
g74
(dp5214
sg83
g5208
sg76
(lp5215
g69
(g70
g71
NtRp5216
(dp5217
g74
(dp5218
g82
I1
ssg83
g5212
sg76
(lp5219
I00
asbasbasbag69
(g85
g71
NtRp5220
(dp5221
g74
(dp5222
sg83
g5191
sg76
(lp5223
g69
(g90
g71
NtRp5224
(dp5225
g74
(dp5226
sg83
g5220
sg76
(lp5227
g69
(g70
g71
NtRp5228
(dp5229
g74
(dp5230
g82
I1
ssg83
g5224
sg76
(lp5231
S'http://www.web2py.com'
p5232
asbasbasbag69
(g85
g71
NtRp5233
(dp5234
g74
(dp5235
sg83
g5191
sg76
(lp5236
g69
(g90
g71
NtRp5237
(dp5238
g74
(dp5239
sg83
g5233
sg76
(lp5240
g69
(g70
g71
NtRp5241
(dp5242
g74
(dp5243
g82
I1
ssg83
g5237
sg76
(lp5244
(lp5245
(g4923
(S's\x08\x00\x00\x00Download'
tRp5246
I00
S'http://www.web2py.com/examples/default/download'
p5247
tp5248
a(g4923
(S's\x07\x00\x00\x00Support'
tRp5249
I00
S'http://www.web2py.com/examples/default/support'
p5250
tp5251
a(g4923
(S's\x04\x00\x00\x00Demo'
tRp5252
I00
S'http://web2py.com/demo_admin'
p5253
tp5254
a(g4923
(S's\x0e\x00\x00\x00Quick Examples'
tRp5255
I00
S'http://web2py.com/examples/default/examples'
p5256
tp5257
a(g4923
(S's\x03\x00\x00\x00FAQ'
tRp5258
I00
S'http://web2py.com/AlterEgo'
p5259
tp5260
a(g4923
(S's\x06\x00\x00\x00Videos'
tRp5261
I00
S'http://www.web2py.com/examples/default/videos/'
p5262
tp5263
a(g4923
(S's\x11\x00\x00\x00Free Applications'
tRp5264
I00
S'http://web2py.com/appliances'
p5265
tp5266
a(g4923
(S's\x07\x00\x00\x00Plugins'
tRp5267
I00
S'http://web2py.com/plugins'
p5268
tp5269
a(g4923
(S's\x07\x00\x00\x00Layouts'
tRp5270
I00
S'http://web2py.com/layouts'
p5271
tp5272
a(g4923
(S's\x07\x00\x00\x00Recipes'
tRp5273
I00
S'http://web2pyslices.com/'
p5274
tp5275
a(g4923
(S's\x08\x00\x00\x00Semantic'
tRp5276
I00
S'http://web2py.com/semantic'
p5277
tp5278
aasbasbasbasbasbasbasbag69
(g85
g71
NtRp5279
(dp5280
g74
(dp5281
sg83
g5036
sg76
(lp5282
g69
(g90
g71
NtRp5283
(dp5284
g74
(dp5285
sg83
g5279
sg76
(lp5286
g69
(g70
g71
NtRp5287
(dp5288
g74
(dp5289
g82
I2
ssg83
g5283
sg76
(lp5290
g69
(g78
g71
NtRp5291
(dp5292
g74
(dp5293
g82
I1
ssg83
Nsg76
(lp5294
g69
(g85
g71
NtRp5295
(dp5296
g74
(dp5297
sg83
g5291
sg76
(lp5298
g69
(g90
g71
NtRp5299
(dp5300
g74
(dp5301
sg83
g5295
sg76
(lp5302
g69
(g70
g71
NtRp5303
(dp5304
g74
(dp5305
g82
I1
ssg83
g5299
sg76
(lp5306
g4923
(S's\r\x00\x00\x00Documentation'
tRp5307
asbasbasbag69
(g85
g71
NtRp5308
(dp5309
g74
(dp5310
sg83
g5291
sg76
(lp5311
g69
(g90
g71
NtRp5312
(dp5313
g74
(dp5314
sg83
g5308
sg76
(lp5315
g69
(g70
g71
NtRp5316
(dp5317
g74
(dp5318
g82
I1
ssg83
g5312
sg76
(lp5319
I00
asbasbasbag69
(g85
g71
NtRp5320
(dp5321
g74
(dp5322
sg83
g5291
sg76
(lp5323
g69
(g90
g71
NtRp5324
(dp5325
g74
(dp5326
sg83
g5320
sg76
(lp5327
g69
(g70
g71
NtRp5328
(dp5329
g74
(dp5330
g82
I1
ssg83
g5324
sg76
(lp5331
S'http://www.web2py.com/book'
p5332
asbasbasbag69
(g85
g71
NtRp5333
(dp5334
g74
(dp5335
sg83
g5291
sg76
(lp5336
g69
(g90
g71
NtRp5337
(dp5338
g74
(dp5339
sg83
g5333
sg76
(lp5340
g69
(g70
g71
NtRp5341
(dp5342
g74
(dp5343
g82
I1
ssg83
g5337
sg76
(lp5344
(lp5345
(g4923
(S's\x07\x00\x00\x00Preface'
tRp5346
I00
S'http://www.web2py.com/book/default/chapter/00'
p5347
tp5348
a(g4923
(S's\x0c\x00\x00\x00Introduction'
tRp5349
I00
S'http://www.web2py.com/book/default/chapter/01'
p5350
tp5351
a(g4923
(S's\x06\x00\x00\x00Python'
tRp5352
I00
S'http://www.web2py.com/book/default/chapter/02'
p5353
tp5354
a(g4923
(S's\x08\x00\x00\x00Overview'
tRp5355
I00
S'http://www.web2py.com/book/default/chapter/03'
p5356
tp5357
a(g4923
(S's\x08\x00\x00\x00The Core'
tRp5358
I00
S'http://www.web2py.com/book/default/chapter/04'
p5359
tp5360
a(g4923
(S's\t\x00\x00\x00The Views'
tRp5361
I00
S'http://www.web2py.com/book/default/chapter/05'
p5362
tp5363
a(g4923
(S's\x08\x00\x00\x00Database'
tRp5364
I00
S'http://www.web2py.com/book/default/chapter/06'
p5365
tp5366
a(g4923
(S's\x14\x00\x00\x00Forms and Validators'
tRp5367
I00
S'http://www.web2py.com/book/default/chapter/07'
p5368
tp5369
a(g4923
(S's\r\x00\x00\x00Email and SMS'
tRp5370
I00
S'http://www.web2py.com/book/default/chapter/08'
p5371
tp5372
a(g4923
(S's\x0e\x00\x00\x00Access Control'
tRp5373
I00
S'http://www.web2py.com/book/default/chapter/09'
p5374
tp5375
a(g4923
(S's\x08\x00\x00\x00Services'
tRp5376
I00
S'http://www.web2py.com/book/default/chapter/10'
p5377
tp5378
a(g4923
(S's\x0c\x00\x00\x00Ajax Recipes'
tRp5379
I00
S'http://www.web2py.com/book/default/chapter/11'
p5380
tp5381
a(g4923
(S's\x16\x00\x00\x00Components and Plugins'
tRp5382
I00
S'http://www.web2py.com/book/default/chapter/12'
p5383
tp5384
a(g4923
(S's\x12\x00\x00\x00Deployment Recipes'
tRp5385
I00
S'http://www.web2py.com/book/default/chapter/13'
p5386
tp5387
a(g4923
(S's\r\x00\x00\x00Other Recipes'
tRp5388
I00
S'http://www.web2py.com/book/default/chapter/14'
p5389
tp5390
a(g4923
(S's\r\x00\x00\x00Buy this book'
tRp5391
I00
S'http://stores.lulu.com/web2py'
p5392
tp5393
aasbasbasbasbasbasbasbag69
(g85
g71
NtRp5394
(dp5395
g74
(dp5396
sg83
g5036
sg76
(lp5397
g69
(g90
g71
NtRp5398
(dp5399
g74
(dp5400
sg83
g5394
sg76
(lp5401
g69
(g70
g71
NtRp5402
(dp5403
g74
(dp5404
g82
I2
ssg83
g5398
sg76
(lp5405
g69
(g78
g71
NtRp5406
(dp5407
g74
(dp5408
g82
I1
ssg83
Nsg76
(lp5409
g69
(g85
g71
NtRp5410
(dp5411
g74
(dp5412
sg83
g5406
sg76
(lp5413
g69
(g90
g71
NtRp5414
(dp5415
g74
(dp5416
sg83
g5410
sg76
(lp5417
g69
(g70
g71
NtRp5418
(dp5419
g74
(dp5420
g82
I1
ssg83
g5414
sg76
(lp5421
g4923
(S's\t\x00\x00\x00Community'
tRp5422
asbasbasbag69
(g85
g71
NtRp5423
(dp5424
g74
(dp5425
sg83
g5406
sg76
(lp5426
g69
(g90
g71
NtRp5427
(dp5428
g74
(dp5429
sg83
g5423
sg76
(lp5430
g69
(g70
g71
NtRp5431
(dp5432
g74
(dp5433
g82
I1
ssg83
g5427
sg76
(lp5434
I00
asbasbasbag69
(g85
g71
NtRp5435
(dp5436
g74
(dp5437
sg83
g5406
sg76
(lp5438
g69
(g90
g71
NtRp5439
(dp5440
g74
(dp5441
sg83
g5435
sg76
(lp5442
g69
(g70
g71
NtRp5443
(dp5444
g74
(dp5445
g82
I1
ssg83
g5439
sg76
(lp5446
Nasbasbasbag69
(g85
g71
NtRp5447
(dp5448
g74
(dp5449
sg83
g5406
sg76
(lp5450
g69
(g90
g71
NtRp5451
(dp5452
g74
(dp5453
sg83
g5447
sg76
(lp5454
g69
(g70
g71
NtRp5455
(dp5456
g74
(dp5457
g82
I1
ssg83
g5451
sg76
(lp5458
(lp5459
(g4923
(S's\x06\x00\x00\x00Groups'
tRp5460
I00
S'http://www.web2py.com/examples/default/usergroups'
p5461
tp5462
a(g4923
(S's\x07\x00\x00\x00Twitter'
tRp5463
I00
S'http://twitter.com/web2py'
p5464
tp5465
a(g4923
(S's\t\x00\x00\x00Live Chat'
tRp5466
I00
S'http://webchat.freenode.net/?channels=web2py'
p5467
tp5468
aasbasbasbasbasbasbasbag69
(g85
g71
NtRp5469
(dp5470
g74
(dp5471
sg83
g5036
sg76
(lp5472
g69
(g90
g71
NtRp5473
(dp5474
g74
(dp5475
sg83
g5469
sg76
(lp5476
g69
(g70
g71
NtRp5477
(dp5478
g74
(dp5479
g82
I2
ssg83
g5473
sg76
(lp5480
g69
(g78
g71
NtRp5481
(dp5482
g74
(dp5483
g82
I1
ssg83
Nsg76
(lp5484
g69
(g85
g71
NtRp5485
(dp5486
g74
(dp5487
sg83
g5481
sg76
(lp5488
g69
(g90
g71
NtRp5489
(dp5490
g74
(dp5491
sg83
g5485
sg76
(lp5492
g69
(g70
g71
NtRp5493
(dp5494
g74
(dp5495
g82
I1
ssg83
g5489
sg76
(lp5496
g4923
(S's\x07\x00\x00\x00Plugins'
tRp5497
asbasbasbag69
(g85
g71
NtRp5498
(dp5499
g74
(dp5500
sg83
g5481
sg76
(lp5501
g69
(g90
g71
NtRp5502
(dp5503
g74
(dp5504
sg83
g5498
sg76
(lp5505
g69
(g70
g71
NtRp5506
(dp5507
g74
(dp5508
g82
I1
ssg83
g5502
sg76
(lp5509
I00
asbasbasbag69
(g85
g71
NtRp5510
(dp5511
g74
(dp5512
sg83
g5481
sg76
(lp5513
g69
(g90
g71
NtRp5514
(dp5515
g74
(dp5516
sg83
g5510
sg76
(lp5517
g69
(g70
g71
NtRp5518
(dp5519
g74
(dp5520
g82
I1
ssg83
g5514
sg76
(lp5521
Nasbasbasbag69
(g85
g71
NtRp5522
(dp5523
g74
(dp5524
sg83
g5481
sg76
(lp5525
g69
(g90
g71
NtRp5526
(dp5527
g74
(dp5528
sg83
g5522
sg76
(lp5529
g69
(g70
g71
NtRp5530
(dp5531
g74
(dp5532
g82
I1
ssg83
g5526
sg76
(lp5533
(lp5534
(S'plugin_wiki'
p5535
I00
S'http://web2py.com/examples/default/download'
p5536
tp5537
a(g4923
(S's\r\x00\x00\x00Other Plugins'
tRp5538
I00
g5268
tp5539
a(g4923
(S's\x0e\x00\x00\x00Layout Plugins'
tRp5540
I00
g5271
tp5541
aasbasbasbasbasbasbasbasbasbasbasbasbasbasbasbasbasbasbasbag69
(g85
g71
NtRp5542
(dp5543
g74
(dp5544
sg83
g4389
sg76
(lp5545
g69
(g90
g71
NtRp5546
(dp5547
g74
(dp5548
g94
g95
ssg83
g5542
sg76
(lp5549
S'meta'
p5550
asbag69
(g90
g71
NtRp5551
(dp5552
g74
(dp5553
g101
g102
ssg83
g5542
sg76
(lp5554
S':'
asbag69
(g90
g71
NtRp5555
(dp5556
g74
(dp5557
sg83
g5542
sg76
(lp5558
g69
(g70
g71
NtRp5559
(dp5560
g74
(dp5561
g82
I5
ssg83
g5555
sg76
(lp5562
g69
(g78
g71
NtRp5563
(dp5564
g74
(dp5565
g82
I4
ssg83
Nsg76
(lp5566
g69
(g85
g71
NtRp5567
(dp5568
g74
(dp5569
sg83
g5563
sg76
(lp5570
g69
(g90
g71
NtRp5571
(dp5572
g74
(dp5573
g94
g95
ssg83
g5567
sg76
(lp5574
S'author'
p5575
asbag69
(g90
g71
NtRp5576
(dp5577
g74
(dp5578
g101
g102
ssg83
g5567
sg76
(lp5579
S':'
asbag69
(g90
g71
NtRp5580
(dp5581
g74
(dp5582
sg83
g5567
sg76
(lp5583
g69
(g70
g71
NtRp5584
(dp5585
g74
(dp5586
g82
I4
ssg83
g5580
sg76
(lp5587
S'Your Name <you@example.com>'
p5588
asbasbasbag69
(g85
g71
NtRp5589
(dp5590
g74
(dp5591
sg83
g5563
sg76
(lp5592
g69
(g90
g71
NtRp5593
(dp5594
g74
(dp5595
g94
g95
ssg83
g5589
sg76
(lp5596
S'description'
p5597
asbag69
(g90
g71
NtRp5598
(dp5599
g74
(dp5600
g101
g102
ssg83
g5589
sg76
(lp5601
S':'
asbag69
(g90
g71
NtRp5602
(dp5603
g74
(dp5604
sg83
g5589
sg76
(lp5605
g69
(g70
g71
NtRp5606
(dp5607
g74
(dp5608
g82
I4
ssg83
g5602
sg76
(lp5609
S'a cool new app'
p5610
asbasbasbag69
(g85
g71
NtRp5611
(dp5612
g74
(dp5613
sg83
g5563
sg76
(lp5614
g69
(g90
g71
NtRp5615
(dp5616
g74
(dp5617
g94
g95
ssg83
g5611
sg76
(lp5618
S'generator'
p5619
asbag69
(g90
g71
NtRp5620
(dp5621
g74
(dp5622
g101
g102
ssg83
g5611
sg76
(lp5623
S':'
asbag69
(g90
g71
NtRp5624
(dp5625
g74
(dp5626
sg83
g5611
sg76
(lp5627
g69
(g70
g71
NtRp5628
(dp5629
g74
(dp5630
g82
I4
ssg83
g5624
sg76
(lp5631
S'Web2py Web Framework'
p5632
asbasbasbag69
(g85
g71
NtRp5633
(dp5634
g74
(dp5635
sg83
g5563
sg76
(lp5636
g69
(g90
g71
NtRp5637
(dp5638
g74
(dp5639
g94
g95
ssg83
g5633
sg76
(lp5640
S'keywords'
p5641
asbag69
(g90
g71
NtRp5642
(dp5643
g74
(dp5644
g101
g102
ssg83
g5633
sg76
(lp5645
S':'
asbag69
(g90
g71
NtRp5646
(dp5647
g74
(dp5648
sg83
g5633
sg76
(lp5649
g69
(g70
g71
NtRp5650
(dp5651
g74
(dp5652
g82
I4
ssg83
g5646
sg76
(lp5653
S'web2py, python, framework'
p5654
asbasbasbasbasbasbasbag69
(g85
g71
NtRp5655
(dp5656
g74
(dp5657
sg83
g4389
sg76
(lp5658
g69
(g90
g71
NtRp5659
(dp5660
g74
(dp5661
g94
g95
ssg83
g5655
sg76
(lp5662
S'models_to_run'
p5663
asbag69
(g90
g71
NtRp5664
(dp5665
g74
(dp5666
g101
g102
ssg83
g5655
sg76
(lp5667
S':'
asbag69
(g90
g71
NtRp5668
(dp5669
g74
(dp5670
sg83
g5655
sg76
(lp5671
g69
(g70
g71
NtRp5672
(dp5673
g74
(dp5674
g82
I5
ssg83
g5668
sg76
(lp5675
g69
(g78
g71
NtRp5676
(dp5677
g74
(dp5678
g82
I4
ssg83
Nsg76
(lp5679
g69
(g85
g71
NtRp5680
(dp5681
g74
(dp5682
sg83
g5676
sg76
(lp5683
g69
(g90
g71
NtRp5684
(dp5685
g74
(dp5686
sg83
g5680
sg76
(lp5687
g69
(g70
g71
NtRp5688
(dp5689
g74
(dp5690
g82
I4
ssg83
g5684
sg76
(lp5691
S'^\\w+\\.py$'
p5692
asbasbasbag69
(g85
g71
NtRp5693
(dp5694
g74
(dp5695
sg83
g5676
sg76
(lp5696
g69
(g90
g71
NtRp5697
(dp5698
g74
(dp5699
sg83
g5693
sg76
(lp5700
g69
(g70
g71
NtRp5701
(dp5702
g74
(dp5703
g82
I4
ssg83
g5697
sg76
(lp5704
S'^default/\\w+\\.py$'
p5705
asbasbasbag69
(g85
g71
NtRp5706
(dp5707
g74
(dp5708
sg83
g5676
sg76
(lp5709
g69
(g90
g71
NtRp5710
(dp5711
g74
(dp5712
sg83
g5706
sg76
(lp5713
g69
(g70
g71
NtRp5714
(dp5715
g74
(dp5716
g82
I4
ssg83
g5710
sg76
(lp5717
S'^default/request_reservior_view/\\w+\\.py$'
p5718
asbasbasbasbasbasbasbag69
(g85
g71
NtRp5719
(dp5720
g74
(dp5721
sg83
g4389
sg76
(lp5722
g69
(g90
g71
NtRp5723
(dp5724
g74
(dp5725
g94
g95
ssg83
g5719
sg76
(lp5726
S'postprocessing'
p5727
asbag69
(g90
g71
NtRp5728
(dp5729
g74
(dp5730
g101
g102
ssg83
g5719
sg76
(lp5731
S':'
asbag69
(g90
g71
NtRp5732
(dp5733
g74
(dp5734
sg83
g5719
sg76
(lp5735
g69
(g70
g71
NtRp5736
(dp5737
g74
(dp5738
g82
I5
ssg83
g5732
sg76
(lp5739
g69
(g78
g71
NtRp5740
(dp5741
g74
(dp5742
g82
I4
ssg83
Nsg76
(lp5743
sbasbasbasbag69
(g85
g71
NtRp5744
(dp5745
g74
(dp5746
sg83
g4389
sg76
(lp5747
g69
(g90
g71
NtRp5748
(dp5749
g74
(dp5750
g94
g95
ssg83
g5744
sg76
(lp5751
S'session_cookie_expires'
p5752
asbag69
(g90
g71
NtRp5753
(dp5754
g74
(dp5755
g101
g102
ssg83
g5744
sg76
(lp5756
S':'
asbag69
(g90
g71
NtRp5757
(dp5758
g74
(dp5759
sg83
g5744
sg76
(lp5760
g69
(g70
g71
NtRp5761
(dp5762
g74
(dp5763
g82
I5
ssg83
g5757
sg76
(lp5764
S'None'
p5765
asbasbasbag69
(g85
g71
NtRp5766
(dp5767
g74
(dp5768
sg83
g4389
sg76
(lp5769
g69
(g90
g71
NtRp5770
(dp5771
g74
(dp5772
g94
g95
ssg83
g5766
sg76
(lp5773
S'session_data_name'
p5774
asbag69
(g90
g71
NtRp5775
(dp5776
g74
(dp5777
g101
g102
ssg83
g5766
sg76
(lp5778
S':'
asbag69
(g90
g71
NtRp5779
(dp5780
g74
(dp5781
sg83
g5766
sg76
(lp5782
g69
(g70
g71
NtRp5783
(dp5784
g74
(dp5785
g82
I5
ssg83
g5779
sg76
(lp5786
S'session_data_garbage_truck'
p5787
asbasbasbag69
(g85
g71
NtRp5788
(dp5789
g74
(dp5790
sg83
g4389
sg76
(lp5791
g69
(g90
g71
NtRp5792
(dp5793
g74
(dp5794
g94
g95
ssg83
g5788
sg76
(lp5795
S'session_file'
p5796
asbag69
(g90
g71
NtRp5797
(dp5798
g74
(dp5799
g101
g102
ssg83
g5788
sg76
(lp5800
S':'
asbag69
(g90
g71
NtRp5801
(dp5802
g74
(dp5803
sg83
g5788
sg76
(lp5804
g69
(g70
g71
NtRp5805
(dp5806
g74
(dp5807
g82
I5
ssg83
g5801
sg76
(lp5808
S"<open file '/home/darshan/web2py/applications/Garbage_Truck/sessions/127.0.0.1-eb5e8630-3789-44cf-90c0-4c0a37fc535a', mode 'rb+' at 0x7f92a8482e40>"
p5809
asbasbasbag69
(g85
g71
NtRp5810
(dp5811
g74
(dp5812
sg83
g4389
sg76
(lp5813
g69
(g90
g71
NtRp5814
(dp5815
g74
(dp5816
g94
g95
ssg83
g5810
sg76
(lp5817
S'session_filename'
p5818
asbag69
(g90
g71
NtRp5819
(dp5820
g74
(dp5821
g101
g102
ssg83
g5810
sg76
(lp5822
S':'
asbag69
(g90
g71
NtRp5823
(dp5824
g74
(dp5825
sg83
g5810
sg76
(lp5826
g69
(g70
g71
NtRp5827
(dp5828
g74
(dp5829
g82
I5
ssg83
g5823
sg76
(lp5830
S'/home/darshan/web2py/applications/Garbage_Truck/sessions/127.0.0.1-eb5e8630-3789-44cf-90c0-4c0a37fc535a'
p5831
asbasbasbag69
(g85
g71
NtRp5832
(dp5833
g74
(dp5834
sg83
g4389
sg76
(lp5835
g69
(g90
g71
NtRp5836
(dp5837
g74
(dp5838
g94
g95
ssg83
g5832
sg76
(lp5839
S'session_id'
p5840
asbag69
(g90
g71
NtRp5841
(dp5842
g74
(dp5843
g101
g102
ssg83
g5832
sg76
(lp5844
S':'
asbag69
(g90
g71
NtRp5845
(dp5846
g74
(dp5847
sg83
g5832
sg76
(lp5848
g69
(g70
g71
NtRp5849
(dp5850
g74
(dp5851
g82
I5
ssg83
g5845
sg76
(lp5852
g673
asbasbasbag69
(g85
g71
NtRp5853
(dp5854
g74
(dp5855
sg83
g4389
sg76
(lp5856
g69
(g90
g71
NtRp5857
(dp5858
g74
(dp5859
g94
g95
ssg83
g5853
sg76
(lp5860
S'session_id_name'
p5861
asbag69
(g90
g71
NtRp5862
(dp5863
g74
(dp5864
g101
g102
ssg83
g5853
sg76
(lp5865
S':'
asbag69
(g90
g71
NtRp5866
(dp5867
g74
(dp5868
sg83
g5853
sg76
(lp5869
g69
(g70
g71
NtRp5870
(dp5871
g74
(dp5872
g82
I5
ssg83
g5866
sg76
(lp5873
g4446
asbasbasbag69
(g85
g71
NtRp5874
(dp5875
g74
(dp5876
sg83
g4389
sg76
(lp5877
g69
(g90
g71
NtRp5878
(dp5879
g74
(dp5880
g94
g95
ssg83
g5874
sg76
(lp5881
S'session_locked'
p5882
asbag69
(g90
g71
NtRp5883
(dp5884
g74
(dp5885
g101
g102
ssg83
g5874
sg76
(lp5886
S':'
asbag69
(g90
g71
NtRp5887
(dp5888
g74
(dp5889
sg83
g5874
sg76
(lp5890
g69
(g70
g71
NtRp5891
(dp5892
g74
(dp5893
g82
I5
ssg83
g5887
sg76
(lp5894
g2382
asbasbasbag69
(g85
g71
NtRp5895
(dp5896
g74
(dp5897
sg83
g4389
sg76
(lp5898
g69
(g90
g71
NtRp5899
(dp5900
g74
(dp5901
g94
g95
ssg83
g5895
sg76
(lp5902
S'session_new'
p5903
asbag69
(g90
g71
NtRp5904
(dp5905
g74
(dp5906
g101
g102
ssg83
g5895
sg76
(lp5907
S':'
asbag69
(g90
g71
NtRp5908
(dp5909
g74
(dp5910
sg83
g5895
sg76
(lp5911
g69
(g70
g71
NtRp5912
(dp5913
g74
(dp5914
g82
I5
ssg83
g5908
sg76
(lp5915
g112
asbasbasbag69
(g85
g71
NtRp5916
(dp5917
g74
(dp5918
sg83
g4389
sg76
(lp5919
g69
(g90
g71
NtRp5920
(dp5921
g74
(dp5922
g94
g95
ssg83
g5916
sg76
(lp5923
S'session_storage_type'
p5924
asbag69
(g90
g71
NtRp5925
(dp5926
g74
(dp5927
g101
g102
ssg83
g5916
sg76
(lp5928
S':'
asbag69
(g90
g71
NtRp5929
(dp5930
g74
(dp5931
sg83
g5916
sg76
(lp5932
g69
(g70
g71
NtRp5933
(dp5934
g74
(dp5935
g82
I5
ssg83
g5929
sg76
(lp5936
g3855
asbasbasbag69
(g85
g71
NtRp5937
(dp5938
g74
(dp5939
sg83
g4389
sg76
(lp5940
g69
(g90
g71
NtRp5941
(dp5942
g74
(dp5943
g94
g95
ssg83
g5937
sg76
(lp5944
S'status'
p5945
asbag69
(g90
g71
NtRp5946
(dp5947
g74
(dp5948
g101
g102
ssg83
g5937
sg76
(lp5949
S':'
asbag69
(g90
g71
NtRp5950
(dp5951
g74
(dp5952
sg83
g5937
sg76
(lp5953
g69
(g70
g71
NtRp5954
(dp5955
g74
(dp5956
g82
I5
ssg83
g5950
sg76
(lp5957
S'200'
p5958
asbasbasbag69
(g85
g71
NtRp5959
(dp5960
g74
(dp5961
sg83
g4389
sg76
(lp5962
g69
(g90
g71
NtRp5963
(dp5964
g74
(dp5965
g94
g95
ssg83
g5959
sg76
(lp5966
S'subtitle'
p5967
asbag69
(g90
g71
NtRp5968
(dp5969
g74
(dp5970
g101
g102
ssg83
g5959
sg76
(lp5971
S':'
asbag69
(g90
g71
NtRp5972
(dp5973
g74
(dp5974
sg83
g5959
sg76
(lp5975
g69
(g70
g71
NtRp5976
(dp5977
g74
(dp5978
g82
I5
ssg83
g5972
sg76
(lp5979
g4923
(S's\r\x00\x00\x00customize me!'
tRp5980
asbasbasbag69
(g85
g71
NtRp5981
(dp5982
g74
(dp5983
sg83
g4389
sg76
(lp5984
g69
(g90
g71
NtRp5985
(dp5986
g74
(dp5987
g94
g95
ssg83
g5981
sg76
(lp5988
S'title'
p5989
asbag69
(g90
g71
NtRp5990
(dp5991
g74
(dp5992
g101
g102
ssg83
g5981
sg76
(lp5993
S':'
asbag69
(g90
g71
NtRp5994
(dp5995
g74
(dp5996
sg83
g5981
sg76
(lp5997
g69
(g70
g71
NtRp5998
(dp5999
g74
(dp6000
g82
I5
ssg83
g5994
sg76
(lp6001
S'Garbage Truck'
p6002
asbasbasbag69
(g85
g71
NtRp6003
(dp6004
g74
(dp6005
sg83
g4389
sg76
(lp6006
g69
(g90
g71
NtRp6007
(dp6008
g74
(dp6009
g94
g95
ssg83
g6003
sg76
(lp6010
S'view'
p6011
asbag69
(g90
g71
NtRp6012
(dp6013
g74
(dp6014
g101
g102
ssg83
g6003
sg76
(lp6015
S':'
asbag69
(g90
g71
NtRp6016
(dp6017
g74
(dp6018
sg83
g6003
sg76
(lp6019
g69
(g70
g71
NtRp6020
(dp6021
g74
(dp6022
g82
I5
ssg83
g6016
sg76
(lp6023
S'default/request_reservior_view.html'
p6024
asbasbasbasbasbsS'locals'
p6025
(dp6026
g4
S"'/home/darshan/web2py/applications/Garbage_Truck/views/default/request_reservior_view.html'"
p6027
sg6
S'\'response.write(\\\'<!DOCTYPE html PUBLIC "-//W3C//D...d footer -->\\\\n </body>\\\\n</html>\\\\n\\\', escape=False)\''
p6028
sssS'traceback'
p6029
S'Traceback (most recent call last):\n  File "/home/darshan/web2py/gluon/restricted.py", line 211, in restricted\n    ccode = compile2(code, layer)\n  File "/home/darshan/web2py/gluon/restricted.py", line 194, in compile2\n    return compile(code.rstrip().replace(\'\\r\\n\', \'\\n\') + \'\\n\', layer, \'exec\')\n  File "/home/darshan/web2py/applications/Garbage_Truck/views/default/request_reservior_view.html", line 59\n    elif stat==\'2:\n                 ^\nSyntaxError: EOL while scanning string literal\n'
p6030
s.