(dp1
S'output'
p2
S'<type \'exceptions.SyntaxError\'> invalid table/column name "location" is a "ALL" reserved SQL keyword'
p3
sS'layer'
p4
S'/home/darshan/web2py/applications/Garbage_Truck/models/db.py'
p5
sS'code'
p6
S"# -*- coding: utf-8 -*-\n\n#########################################################################\n## This scaffolding model makes your app work on Google App Engine too\n## File is released under public domain and you can use without limitations\n#########################################################################\n\n## if SSL/HTTPS is properly configured and you want all HTTP requests to\n## be redirected to HTTPS, uncomment the line below:\n# request.requires_https()\n\nif not request.env.web2py_runtime_gae:\n    ## if NOT running on Google App Engine use SQLite or other DB\n    db = DAL('sqlite://storage.sqlite',pool_size=1,check_reserved=['all'])\nelse:\n    ## connect to Google BigTable (optional 'google:datastore://namespace')\n    db = DAL('google:datastore')\n    ## store sessions and tickets there\n    session.connect(request, response, db=db)\n    ## or store session in Memcache, Redis, etc.\n    ## from gluon.contrib.memdb import MEMDB\n    ## from google.appengine.api.memcache import Client\n    ## session.connect(request, response, db = MEMDB(Client()))\n\n## by default give a view/generic.extension to all actions from localhost\n## none otherwise. a pattern can be 'controller/function.extension'\nresponse.generic_patterns = ['*'] if request.is_local else []\n## (optional) optimize handling of static files\n# response.optimize_css = 'concat,minify,inline'\n# response.optimize_js = 'concat,minify,inline'\n\n#########################################################################\n## Here is sample code if you need for\n## - email capabilities\n## - authentication (registration, login, logout, ... )\n## - authorization (role based authorization)\n## - services (xml, csv, json, xmlrpc, jsonrpc, amf, rss)\n## - old style crud actions\n## (more options discussed in gluon/tools.py)\n#########################################################################\n\nfrom gluon.tools import Auth, Crud, Service, PluginManager, prettydate\nauth = Auth(db)\ncrud, service, plugins = Crud(db), Service(), PluginManager()\n\n## create all tables needed by auth if not custom tables\nauth.define_tables(username=False, signature=False)\n\n## configure email\nmail = auth.settings.mailer\nmail.settings.server = 'logging' or 'smtp.gmail.com:587'\nmail.settings.sender = 'you@gmail.com'\nmail.settings.login = 'username:password'\n\n## configure auth policy\nauth.settings.registration_requires_verification = False\nauth.settings.registration_requires_approval = False\nauth.settings.reset_password_requires_verification = True\n\n## if you need to use OpenID, Facebook, MySpace, Twitter, Linkedin, etc.\n## register with janrain.com, write your domain:api_key in private/janrain.key\nfrom gluon.contrib.login_methods.rpx_account import use_janrain\nuse_janrain(auth, filename='private/janrain.key')\n\n#########################################################################\n## Define your tables below (or better in another model file) for example\n##\n## >>> db.define_table('mytable',Field('myfield','string'))\n##\n## Fields can be 'string','text','password','integer','double','boolean'\n##       'date','time','datetime','blob','upload', 'reference TABLENAME'\n## There is an implicit 'id integer autoincrement' field\n## Consult manual for more options, validators, etc.\n##\n## More API examples for controllers:\n##\n## >>> db.mytable.insert(myfield='value')\n## >>> rows=db(db.mytable.myfield=='value').select(db.mytable.ALL)\n## >>> for row in rows: print row.id, row.myfield\n#########################################################################\n\n## after defining tables, uncomment below to enable auditing\n# auth.enable_record_versioning(db)\n\ndb.define_table('consumer',\n    Field('user_id',db.auth_user,requires=IS_IN_DB(db,'auth_user.id','auth_user.first_name')),\n    Field('dob','datetime',requires=IS_NOT_EMPTY()),\n    Field('gender',requires=IS_IN_SET(['M','F'])),\n    Field('occupation','string',requires=IS_NOT_EMPTY()),\n    Field('house_no','string',requires=IS_NOT_EMPTY()),\n    Field('street','string'),\n    Field('location','string',requires=IS_NOT_EMPTY()),\n    Field('state','string',default='Telangana',requires=IS_NOT_EMPTY()),\n    Field('pin','integer',requires=IS_NOT_EMPTY()),\n    Field('phone','integer',requires=IS_NOT_EMPTY()))\n\ndb.define_table('report_present',\n   Field('user_id',db.auth_user,requires=IS_IN_DB(db,'auth_user.id','auth_user.first_name')),\n   #Field('status',requires=IS_IN_SET(['1','2','3','4','5'])),\n   Field('on',default=request.now),\n   Field('comment','text'),\n   Field('rating',requires=IS_IN_SET(['1','2','3','4','5'])),\n   Field('ghmc_no','string'))\n   \ndb.define_table('report_absent',\n   Field('user_id',db.auth_user,requires=IS_IN_DB(db,'auth_user.id','auth_user.first_name')),\n   #Field('status',requires=IS_IN_SET(['1','2','3','4','5'])),\n   Field('on',default=request.now),\n   Field('comment','text'))\n  \n   \ndb.define_table('request_festive',\n   Field('user_id',db.auth_user,requires=IS_IN_DB(db,'auth_user.id','auth_user.first_name')),\n   Field('on',default=request.now),\n   Field('reason',requires=IS_IN_SET(['Festival','Marriage/Function','Other'])),\n   Field('comment','text'))\n   \n\ndb.define_table('request_collection',\n   Field('user_id',db.auth_user,requires=IS_IN_DB(db,'auth_user.id','auth_user.first_name')),\n   Field('on',default=request.now),\n   Field('comment','text'),\n   Field('street','string'),\n   Field('location','string',requires=IS_NOT_EMPTY()),\n   Field('state','string',default='Telangana',requires=IS_NOT_EMPTY()),\n   Field('pin','integer',requires=IS_NOT_EMPTY()))   \n   \n         \ndb.define_table('gmc_det',\n   Field('worker_id',db.report,requires=IS_IN_DB(db,'report.id','report.id')),\n   Field('area','string'),\n   Field('name','string'))\n"
p7
sS'snapshot'
p8
(dp9
S'exception'
p10
(dp11
S'__getslice__'
p12
S"<method-wrapper '__getslice__' of exceptions.SyntaxError object>"
p13
sS'text'
p14
S'None'
p15
sS'__str__'
p16
S"<method-wrapper '__str__' of exceptions.SyntaxError object>"
p17
sS'__reduce__'
p18
S'<built-in method __reduce__ of exceptions.SyntaxError object>'
p19
sS'__dict__'
p20
S'{}'
p21
sS'__sizeof__'
p22
S'<built-in method __sizeof__ of exceptions.SyntaxError object>'
p23
sS'__init__'
p24
S"<method-wrapper '__init__' of exceptions.SyntaxError object>"
p25
sS'__setattr__'
p26
S"<method-wrapper '__setattr__' of exceptions.SyntaxError object>"
p27
sS'__reduce_ex__'
p28
S'<built-in method __reduce_ex__ of exceptions.SyntaxError object>'
p29
sS'__new__'
p30
S'<built-in method __new__ of type object>'
p31
sS'__format__'
p32
S'<built-in method __format__ of exceptions.SyntaxError object>'
p33
sS'__class__'
p34
S"<type 'exceptions.SyntaxError'>"
p35
sS'filename'
p36
S'None'
p37
sS'lineno'
p38
S'None'
p39
sS'msg'
p40
S'\'invalid table/column name "location" is a "ALL" reserved SQL keyword\''
p41
sS'__doc__'
p42
S"'Invalid syntax.'"
p43
sS'__getitem__'
p44
S"<method-wrapper '__getitem__' of exceptions.SyntaxError object>"
p45
sS'__setstate__'
p46
S'<built-in method __setstate__ of exceptions.SyntaxError object>'
p47
sS'__getattribute__'
p48
S"<method-wrapper '__getattribute__' of exceptions.SyntaxError object>"
p49
sS'print_file_and_line'
p50
S'None'
p51
sS'args'
p52
S'(\'invalid table/column name "location" is a "ALL" reserved SQL keyword\',)'
p53
sS'__subclasshook__'
p54
S'<built-in method __subclasshook__ of type object>'
p55
sS'offset'
p56
S'None'
p57
sS'__unicode__'
p58
S'<built-in method __unicode__ of exceptions.SyntaxError object>'
p59
sS'__delattr__'
p60
S"<method-wrapper '__delattr__' of exceptions.SyntaxError object>"
p61
sS'__repr__'
p62
S"<method-wrapper '__repr__' of exceptions.SyntaxError object>"
p63
sS'__hash__'
p64
S"<method-wrapper '__hash__' of exceptions.SyntaxError object>"
p65
ssS'evalue'
p66
S'invalid table/column name "location" is a "ALL" reserved SQL keyword'
p67
sS'request'
p68
ccopy_reg
_reconstructor
p69
(cgluon.html
BEAUTIFY
p70
c__builtin__
object
p71
NtRp72
(dp73
S'attributes'
p74
(dp75
sS'components'
p76
(lp77
g69
(cgluon.html
TABLE
p78
g71
NtRp79
(dp80
g74
(dp81
S'level'
p82
I5
ssS'parent'
p83
Nsg76
(lp84
g69
(cgluon.html
TR
p85
g71
NtRp86
(dp87
g74
(dp88
sg83
g79
sg76
(lp89
g69
(cgluon.html
TD
p90
g71
NtRp91
(dp92
g74
(dp93
S'_style'
p94
S'font-weight:bold;vertical-align:top'
p95
ssg83
g86
sg76
(lp96
S'ajax'
p97
asbag69
(g90
g71
NtRp98
(dp99
g74
(dp100
S'_valign'
p101
S'top'
p102
ssg83
g86
sg76
(lp103
S':'
asbag69
(g90
g71
NtRp104
(dp105
g74
(dp106
sg83
g86
sg76
(lp107
g69
(g70
g71
NtRp108
(dp109
g74
(dp110
g82
I5
ssg83
g104
sg76
(lp111
S'False'
p112
asbasbasbag69
(g85
g71
NtRp113
(dp114
g74
(dp115
sg83
g79
sg76
(lp116
g69
(g90
g71
NtRp117
(dp118
g74
(dp119
g94
g95
ssg83
g113
sg76
(lp120
S'application'
p121
asbag69
(g90
g71
NtRp122
(dp123
g74
(dp124
g101
g102
ssg83
g113
sg76
(lp125
S':'
asbag69
(g90
g71
NtRp126
(dp127
g74
(dp128
sg83
g113
sg76
(lp129
g69
(g70
g71
NtRp130
(dp131
g74
(dp132
g82
I5
ssg83
g126
sg76
(lp133
S'Garbage_Truck'
p134
asbasbasbag69
(g85
g71
NtRp135
(dp136
g74
(dp137
sg83
g79
sg76
(lp138
g69
(g90
g71
NtRp139
(dp140
g74
(dp141
g94
g95
ssg83
g135
sg76
(lp142
g52
asbag69
(g90
g71
NtRp143
(dp144
g74
(dp145
g101
g102
ssg83
g135
sg76
(lp146
S':'
asbag69
(g90
g71
NtRp147
(dp148
g74
(dp149
sg83
g135
sg76
(lp150
g69
(g70
g71
NtRp151
(dp152
g74
(dp153
g82
I5
ssg83
g147
sg76
(lp154
g69
(g78
g71
NtRp155
(dp156
g74
(dp157
g82
I4
ssg83
Nsg76
(lp158
sbasbasbasbag69
(g85
g71
NtRp159
(dp160
g74
(dp161
sg83
g79
sg76
(lp162
g69
(g90
g71
NtRp163
(dp164
g74
(dp165
g94
g95
ssg83
g159
sg76
(lp166
S'body'
p167
asbag69
(g90
g71
NtRp168
(dp169
g74
(dp170
g101
g102
ssg83
g159
sg76
(lp171
S':'
asbag69
(g90
g71
NtRp172
(dp173
g74
(dp174
sg83
g159
sg76
(lp175
g69
(g70
g71
NtRp176
(dp177
g74
(dp178
g82
I5
ssg83
g172
sg76
(lp179
S'<cStringIO.StringO object at 0x7f92a83f0dc0>'
p180
asbasbasbag69
(g85
g71
NtRp181
(dp182
g74
(dp183
sg83
g79
sg76
(lp184
g69
(g90
g71
NtRp185
(dp186
g74
(dp187
g94
g95
ssg83
g181
sg76
(lp188
S'cid'
p189
asbag69
(g90
g71
NtRp190
(dp191
g74
(dp192
g101
g102
ssg83
g181
sg76
(lp193
S':'
asbag69
(g90
g71
NtRp194
(dp195
g74
(dp196
sg83
g181
sg76
(lp197
g69
(g70
g71
NtRp198
(dp199
g74
(dp200
g82
I5
ssg83
g194
sg76
(lp201
S'None'
p202
asbasbasbag69
(g85
g71
NtRp203
(dp204
g74
(dp205
sg83
g79
sg76
(lp206
g69
(g90
g71
NtRp207
(dp208
g74
(dp209
g94
g95
ssg83
g203
sg76
(lp210
S'client'
p211
asbag69
(g90
g71
NtRp212
(dp213
g74
(dp214
g101
g102
ssg83
g203
sg76
(lp215
S':'
asbag69
(g90
g71
NtRp216
(dp217
g74
(dp218
sg83
g203
sg76
(lp219
g69
(g70
g71
NtRp220
(dp221
g74
(dp222
g82
I5
ssg83
g216
sg76
(lp223
S'127.0.0.1'
p224
asbasbasbag69
(g85
g71
NtRp225
(dp226
g74
(dp227
sg83
g79
sg76
(lp228
g69
(g90
g71
NtRp229
(dp230
g74
(dp231
g94
g95
ssg83
g225
sg76
(lp232
S'controller'
p233
asbag69
(g90
g71
NtRp234
(dp235
g74
(dp236
g101
g102
ssg83
g225
sg76
(lp237
S':'
asbag69
(g90
g71
NtRp238
(dp239
g74
(dp240
sg83
g225
sg76
(lp241
g69
(g70
g71
NtRp242
(dp243
g74
(dp244
g82
I5
ssg83
g238
sg76
(lp245
S'appadmin'
p246
asbasbasbag69
(g85
g71
NtRp247
(dp248
g74
(dp249
sg83
g79
sg76
(lp250
g69
(g90
g71
NtRp251
(dp252
g74
(dp253
g94
g95
ssg83
g247
sg76
(lp254
S'cookies'
p255
asbag69
(g90
g71
NtRp256
(dp257
g74
(dp258
g101
g102
ssg83
g247
sg76
(lp259
S':'
asbag69
(g90
g71
NtRp260
(dp261
g74
(dp262
sg83
g247
sg76
(lp263
g69
(g70
g71
NtRp264
(dp265
g74
(dp266
g82
I5
ssg83
g260
sg76
(lp267
g69
(g78
g71
NtRp268
(dp269
g74
(dp270
g82
I4
ssg83
Nsg76
(lp271
g69
(g85
g71
NtRp272
(dp273
g74
(dp274
sg83
g268
sg76
(lp275
g69
(g90
g71
NtRp276
(dp277
g74
(dp278
g94
g95
ssg83
g272
sg76
(lp279
S'csrftoken'
p280
asbag69
(g90
g71
NtRp281
(dp282
g74
(dp283
g101
g102
ssg83
g272
sg76
(lp284
S':'
asbag69
(g90
g71
NtRp285
(dp286
g74
(dp287
sg83
g272
sg76
(lp288
g69
(g70
g71
NtRp289
(dp290
g74
(dp291
g82
I4
ssg83
g285
sg76
(lp292
S'a9lCt5w7Q4OG437IZNwjtNB3YEdWYXWm'
p293
ag69
(g78
g71
NtRp294
(dp295
g74
(dp296
g82
I3
ssg83
Nsg76
(lp297
g69
(g85
g71
NtRp298
(dp299
g74
(dp300
sg83
g294
sg76
(lp301
g69
(g90
g71
NtRp302
(dp303
g74
(dp304
g94
g95
ssg83
g298
sg76
(lp305
S'comment'
p306
asbag69
(g90
g71
NtRp307
(dp308
g74
(dp309
g101
g102
ssg83
g298
sg76
(lp310
S':'
asbag69
(g90
g71
NtRp311
(dp312
g74
(dp313
sg83
g298
sg76
(lp314
g69
(g70
g71
NtRp315
(dp316
g74
(dp317
g82
I3
ssg83
g311
sg76
(lp318
S''
asbasbasbag69
(g85
g71
NtRp319
(dp320
g74
(dp321
sg83
g294
sg76
(lp322
g69
(g90
g71
NtRp323
(dp324
g74
(dp325
g94
g95
ssg83
g319
sg76
(lp326
S'domain'
p327
asbag69
(g90
g71
NtRp328
(dp329
g74
(dp330
g101
g102
ssg83
g319
sg76
(lp331
S':'
asbag69
(g90
g71
NtRp332
(dp333
g74
(dp334
sg83
g319
sg76
(lp335
g69
(g70
g71
NtRp336
(dp337
g74
(dp338
g82
I3
ssg83
g332
sg76
(lp339
S''
asbasbasbag69
(g85
g71
NtRp340
(dp341
g74
(dp342
sg83
g294
sg76
(lp343
g69
(g90
g71
NtRp344
(dp345
g74
(dp346
g94
g95
ssg83
g340
sg76
(lp347
S'expires'
p348
asbag69
(g90
g71
NtRp349
(dp350
g74
(dp351
g101
g102
ssg83
g340
sg76
(lp352
S':'
asbag69
(g90
g71
NtRp353
(dp354
g74
(dp355
sg83
g340
sg76
(lp356
g69
(g70
g71
NtRp357
(dp358
g74
(dp359
g82
I3
ssg83
g353
sg76
(lp360
S''
asbasbasbag69
(g85
g71
NtRp361
(dp362
g74
(dp363
sg83
g294
sg76
(lp364
g69
(g90
g71
NtRp365
(dp366
g74
(dp367
g94
g95
ssg83
g361
sg76
(lp368
S'httponly'
p369
asbag69
(g90
g71
NtRp370
(dp371
g74
(dp372
g101
g102
ssg83
g361
sg76
(lp373
S':'
asbag69
(g90
g71
NtRp374
(dp375
g74
(dp376
sg83
g361
sg76
(lp377
g69
(g70
g71
NtRp378
(dp379
g74
(dp380
g82
I3
ssg83
g374
sg76
(lp381
S''
asbasbasbag69
(g85
g71
NtRp382
(dp383
g74
(dp384
sg83
g294
sg76
(lp385
g69
(g90
g71
NtRp386
(dp387
g74
(dp388
g94
g95
ssg83
g382
sg76
(lp389
S'max-age'
p390
asbag69
(g90
g71
NtRp391
(dp392
g74
(dp393
g101
g102
ssg83
g382
sg76
(lp394
S':'
asbag69
(g90
g71
NtRp395
(dp396
g74
(dp397
sg83
g382
sg76
(lp398
g69
(g70
g71
NtRp399
(dp400
g74
(dp401
g82
I3
ssg83
g395
sg76
(lp402
S''
asbasbasbag69
(g85
g71
NtRp403
(dp404
g74
(dp405
sg83
g294
sg76
(lp406
g69
(g90
g71
NtRp407
(dp408
g74
(dp409
g94
g95
ssg83
g403
sg76
(lp410
S'path'
p411
asbag69
(g90
g71
NtRp412
(dp413
g74
(dp414
g101
g102
ssg83
g403
sg76
(lp415
S':'
asbag69
(g90
g71
NtRp416
(dp417
g74
(dp418
sg83
g403
sg76
(lp419
g69
(g70
g71
NtRp420
(dp421
g74
(dp422
g82
I3
ssg83
g416
sg76
(lp423
S''
asbasbasbag69
(g85
g71
NtRp424
(dp425
g74
(dp426
sg83
g294
sg76
(lp427
g69
(g90
g71
NtRp428
(dp429
g74
(dp430
g94
g95
ssg83
g424
sg76
(lp431
S'secure'
p432
asbag69
(g90
g71
NtRp433
(dp434
g74
(dp435
g101
g102
ssg83
g424
sg76
(lp436
S':'
asbag69
(g90
g71
NtRp437
(dp438
g74
(dp439
sg83
g424
sg76
(lp440
g69
(g70
g71
NtRp441
(dp442
g74
(dp443
g82
I3
ssg83
g437
sg76
(lp444
S''
asbasbasbag69
(g85
g71
NtRp445
(dp446
g74
(dp447
sg83
g294
sg76
(lp448
g69
(g90
g71
NtRp449
(dp450
g74
(dp451
g94
g95
ssg83
g445
sg76
(lp452
S'version'
p453
asbag69
(g90
g71
NtRp454
(dp455
g74
(dp456
g101
g102
ssg83
g445
sg76
(lp457
S':'
asbag69
(g90
g71
NtRp458
(dp459
g74
(dp460
sg83
g445
sg76
(lp461
g69
(g70
g71
NtRp462
(dp463
g74
(dp464
g82
I3
ssg83
g458
sg76
(lp465
S''
asbasbasbasbasbasbasbag69
(g85
g71
NtRp466
(dp467
g74
(dp468
sg83
g268
sg76
(lp469
g69
(g90
g71
NtRp470
(dp471
g74
(dp472
g94
g95
ssg83
g466
sg76
(lp473
S'session_id_admin'
p474
asbag69
(g90
g71
NtRp475
(dp476
g74
(dp477
g101
g102
ssg83
g466
sg76
(lp478
S':'
asbag69
(g90
g71
NtRp479
(dp480
g74
(dp481
sg83
g466
sg76
(lp482
g69
(g70
g71
NtRp483
(dp484
g74
(dp485
g82
I4
ssg83
g479
sg76
(lp486
S'127.0.0.1-e6c203e9-d008-4610-8523-5a0e93da9abb'
p487
ag69
(g78
g71
NtRp488
(dp489
g74
(dp490
g82
I3
ssg83
Nsg76
(lp491
g69
(g85
g71
NtRp492
(dp493
g74
(dp494
sg83
g488
sg76
(lp495
g69
(g90
g71
NtRp496
(dp497
g74
(dp498
g94
g95
ssg83
g492
sg76
(lp499
g306
asbag69
(g90
g71
NtRp500
(dp501
g74
(dp502
g101
g102
ssg83
g492
sg76
(lp503
S':'
asbag69
(g90
g71
NtRp504
(dp505
g74
(dp506
sg83
g492
sg76
(lp507
g69
(g70
g71
NtRp508
(dp509
g74
(dp510
g82
I3
ssg83
g504
sg76
(lp511
S''
asbasbasbag69
(g85
g71
NtRp512
(dp513
g74
(dp514
sg83
g488
sg76
(lp515
g69
(g90
g71
NtRp516
(dp517
g74
(dp518
g94
g95
ssg83
g512
sg76
(lp519
g327
asbag69
(g90
g71
NtRp520
(dp521
g74
(dp522
g101
g102
ssg83
g512
sg76
(lp523
S':'
asbag69
(g90
g71
NtRp524
(dp525
g74
(dp526
sg83
g512
sg76
(lp527
g69
(g70
g71
NtRp528
(dp529
g74
(dp530
g82
I3
ssg83
g524
sg76
(lp531
S''
asbasbasbag69
(g85
g71
NtRp532
(dp533
g74
(dp534
sg83
g488
sg76
(lp535
g69
(g90
g71
NtRp536
(dp537
g74
(dp538
g94
g95
ssg83
g532
sg76
(lp539
g348
asbag69
(g90
g71
NtRp540
(dp541
g74
(dp542
g101
g102
ssg83
g532
sg76
(lp543
S':'
asbag69
(g90
g71
NtRp544
(dp545
g74
(dp546
sg83
g532
sg76
(lp547
g69
(g70
g71
NtRp548
(dp549
g74
(dp550
g82
I3
ssg83
g544
sg76
(lp551
S''
asbasbasbag69
(g85
g71
NtRp552
(dp553
g74
(dp554
sg83
g488
sg76
(lp555
g69
(g90
g71
NtRp556
(dp557
g74
(dp558
g94
g95
ssg83
g552
sg76
(lp559
g369
asbag69
(g90
g71
NtRp560
(dp561
g74
(dp562
g101
g102
ssg83
g552
sg76
(lp563
S':'
asbag69
(g90
g71
NtRp564
(dp565
g74
(dp566
sg83
g552
sg76
(lp567
g69
(g70
g71
NtRp568
(dp569
g74
(dp570
g82
I3
ssg83
g564
sg76
(lp571
S''
asbasbasbag69
(g85
g71
NtRp572
(dp573
g74
(dp574
sg83
g488
sg76
(lp575
g69
(g90
g71
NtRp576
(dp577
g74
(dp578
g94
g95
ssg83
g572
sg76
(lp579
g390
asbag69
(g90
g71
NtRp580
(dp581
g74
(dp582
g101
g102
ssg83
g572
sg76
(lp583
S':'
asbag69
(g90
g71
NtRp584
(dp585
g74
(dp586
sg83
g572
sg76
(lp587
g69
(g70
g71
NtRp588
(dp589
g74
(dp590
g82
I3
ssg83
g584
sg76
(lp591
S''
asbasbasbag69
(g85
g71
NtRp592
(dp593
g74
(dp594
sg83
g488
sg76
(lp595
g69
(g90
g71
NtRp596
(dp597
g74
(dp598
g94
g95
ssg83
g592
sg76
(lp599
g411
asbag69
(g90
g71
NtRp600
(dp601
g74
(dp602
g101
g102
ssg83
g592
sg76
(lp603
S':'
asbag69
(g90
g71
NtRp604
(dp605
g74
(dp606
sg83
g592
sg76
(lp607
g69
(g70
g71
NtRp608
(dp609
g74
(dp610
g82
I3
ssg83
g604
sg76
(lp611
S''
asbasbasbag69
(g85
g71
NtRp612
(dp613
g74
(dp614
sg83
g488
sg76
(lp615
g69
(g90
g71
NtRp616
(dp617
g74
(dp618
g94
g95
ssg83
g612
sg76
(lp619
g432
asbag69
(g90
g71
NtRp620
(dp621
g74
(dp622
g101
g102
ssg83
g612
sg76
(lp623
S':'
asbag69
(g90
g71
NtRp624
(dp625
g74
(dp626
sg83
g612
sg76
(lp627
g69
(g70
g71
NtRp628
(dp629
g74
(dp630
g82
I3
ssg83
g624
sg76
(lp631
S''
asbasbasbag69
(g85
g71
NtRp632
(dp633
g74
(dp634
sg83
g488
sg76
(lp635
g69
(g90
g71
NtRp636
(dp637
g74
(dp638
g94
g95
ssg83
g632
sg76
(lp639
g453
asbag69
(g90
g71
NtRp640
(dp641
g74
(dp642
g101
g102
ssg83
g632
sg76
(lp643
S':'
asbag69
(g90
g71
NtRp644
(dp645
g74
(dp646
sg83
g632
sg76
(lp647
g69
(g70
g71
NtRp648
(dp649
g74
(dp650
g82
I3
ssg83
g644
sg76
(lp651
S''
asbasbasbasbasbasbasbag69
(g85
g71
NtRp652
(dp653
g74
(dp654
sg83
g268
sg76
(lp655
g69
(g90
g71
NtRp656
(dp657
g74
(dp658
g94
g95
ssg83
g652
sg76
(lp659
S'session_id_isas'
p660
asbag69
(g90
g71
NtRp661
(dp662
g74
(dp663
g101
g102
ssg83
g652
sg76
(lp664
S':'
asbag69
(g90
g71
NtRp665
(dp666
g74
(dp667
sg83
g652
sg76
(lp668
g69
(g70
g71
NtRp669
(dp670
g74
(dp671
g82
I4
ssg83
g665
sg76
(lp672
S'127.0.0.1-46261fb6-868f-4eb5-ae61-7251ec9ac039'
p673
ag69
(g78
g71
NtRp674
(dp675
g74
(dp676
g82
I3
ssg83
Nsg76
(lp677
g69
(g85
g71
NtRp678
(dp679
g74
(dp680
sg83
g674
sg76
(lp681
g69
(g90
g71
NtRp682
(dp683
g74
(dp684
g94
g95
ssg83
g678
sg76
(lp685
g306
asbag69
(g90
g71
NtRp686
(dp687
g74
(dp688
g101
g102
ssg83
g678
sg76
(lp689
S':'
asbag69
(g90
g71
NtRp690
(dp691
g74
(dp692
sg83
g678
sg76
(lp693
g69
(g70
g71
NtRp694
(dp695
g74
(dp696
g82
I3
ssg83
g690
sg76
(lp697
S''
asbasbasbag69
(g85
g71
NtRp698
(dp699
g74
(dp700
sg83
g674
sg76
(lp701
g69
(g90
g71
NtRp702
(dp703
g74
(dp704
g94
g95
ssg83
g698
sg76
(lp705
g327
asbag69
(g90
g71
NtRp706
(dp707
g74
(dp708
g101
g102
ssg83
g698
sg76
(lp709
S':'
asbag69
(g90
g71
NtRp710
(dp711
g74
(dp712
sg83
g698
sg76
(lp713
g69
(g70
g71
NtRp714
(dp715
g74
(dp716
g82
I3
ssg83
g710
sg76
(lp717
S''
asbasbasbag69
(g85
g71
NtRp718
(dp719
g74
(dp720
sg83
g674
sg76
(lp721
g69
(g90
g71
NtRp722
(dp723
g74
(dp724
g94
g95
ssg83
g718
sg76
(lp725
g348
asbag69
(g90
g71
NtRp726
(dp727
g74
(dp728
g101
g102
ssg83
g718
sg76
(lp729
S':'
asbag69
(g90
g71
NtRp730
(dp731
g74
(dp732
sg83
g718
sg76
(lp733
g69
(g70
g71
NtRp734
(dp735
g74
(dp736
g82
I3
ssg83
g730
sg76
(lp737
S''
asbasbasbag69
(g85
g71
NtRp738
(dp739
g74
(dp740
sg83
g674
sg76
(lp741
g69
(g90
g71
NtRp742
(dp743
g74
(dp744
g94
g95
ssg83
g738
sg76
(lp745
g369
asbag69
(g90
g71
NtRp746
(dp747
g74
(dp748
g101
g102
ssg83
g738
sg76
(lp749
S':'
asbag69
(g90
g71
NtRp750
(dp751
g74
(dp752
sg83
g738
sg76
(lp753
g69
(g70
g71
NtRp754
(dp755
g74
(dp756
g82
I3
ssg83
g750
sg76
(lp757
S''
asbasbasbag69
(g85
g71
NtRp758
(dp759
g74
(dp760
sg83
g674
sg76
(lp761
g69
(g90
g71
NtRp762
(dp763
g74
(dp764
g94
g95
ssg83
g758
sg76
(lp765
g390
asbag69
(g90
g71
NtRp766
(dp767
g74
(dp768
g101
g102
ssg83
g758
sg76
(lp769
S':'
asbag69
(g90
g71
NtRp770
(dp771
g74
(dp772
sg83
g758
sg76
(lp773
g69
(g70
g71
NtRp774
(dp775
g74
(dp776
g82
I3
ssg83
g770
sg76
(lp777
S''
asbasbasbag69
(g85
g71
NtRp778
(dp779
g74
(dp780
sg83
g674
sg76
(lp781
g69
(g90
g71
NtRp782
(dp783
g74
(dp784
g94
g95
ssg83
g778
sg76
(lp785
g411
asbag69
(g90
g71
NtRp786
(dp787
g74
(dp788
g101
g102
ssg83
g778
sg76
(lp789
S':'
asbag69
(g90
g71
NtRp790
(dp791
g74
(dp792
sg83
g778
sg76
(lp793
g69
(g70
g71
NtRp794
(dp795
g74
(dp796
g82
I3
ssg83
g790
sg76
(lp797
S''
asbasbasbag69
(g85
g71
NtRp798
(dp799
g74
(dp800
sg83
g674
sg76
(lp801
g69
(g90
g71
NtRp802
(dp803
g74
(dp804
g94
g95
ssg83
g798
sg76
(lp805
g432
asbag69
(g90
g71
NtRp806
(dp807
g74
(dp808
g101
g102
ssg83
g798
sg76
(lp809
S':'
asbag69
(g90
g71
NtRp810
(dp811
g74
(dp812
sg83
g798
sg76
(lp813
g69
(g70
g71
NtRp814
(dp815
g74
(dp816
g82
I3
ssg83
g810
sg76
(lp817
S''
asbasbasbag69
(g85
g71
NtRp818
(dp819
g74
(dp820
sg83
g674
sg76
(lp821
g69
(g90
g71
NtRp822
(dp823
g74
(dp824
g94
g95
ssg83
g818
sg76
(lp825
g453
asbag69
(g90
g71
NtRp826
(dp827
g74
(dp828
g101
g102
ssg83
g818
sg76
(lp829
S':'
asbag69
(g90
g71
NtRp830
(dp831
g74
(dp832
sg83
g818
sg76
(lp833
g69
(g70
g71
NtRp834
(dp835
g74
(dp836
g82
I3
ssg83
g830
sg76
(lp837
S''
asbasbasbasbasbasbasbag69
(g85
g71
NtRp838
(dp839
g74
(dp840
sg83
g268
sg76
(lp841
g69
(g90
g71
NtRp842
(dp843
g74
(dp844
g94
g95
ssg83
g838
sg76
(lp845
S'session_id_readit'
p846
asbag69
(g90
g71
NtRp847
(dp848
g74
(dp849
g101
g102
ssg83
g838
sg76
(lp850
S':'
asbag69
(g90
g71
NtRp851
(dp852
g74
(dp853
sg83
g838
sg76
(lp854
g69
(g70
g71
NtRp855
(dp856
g74
(dp857
g82
I4
ssg83
g851
sg76
(lp858
S'127.0.0.1-e391c20a-8d22-4e6d-a1c8-f85c00f99b3d'
p859
ag69
(g78
g71
NtRp860
(dp861
g74
(dp862
g82
I3
ssg83
Nsg76
(lp863
g69
(g85
g71
NtRp864
(dp865
g74
(dp866
sg83
g860
sg76
(lp867
g69
(g90
g71
NtRp868
(dp869
g74
(dp870
g94
g95
ssg83
g864
sg76
(lp871
g306
asbag69
(g90
g71
NtRp872
(dp873
g74
(dp874
g101
g102
ssg83
g864
sg76
(lp875
S':'
asbag69
(g90
g71
NtRp876
(dp877
g74
(dp878
sg83
g864
sg76
(lp879
g69
(g70
g71
NtRp880
(dp881
g74
(dp882
g82
I3
ssg83
g876
sg76
(lp883
S''
asbasbasbag69
(g85
g71
NtRp884
(dp885
g74
(dp886
sg83
g860
sg76
(lp887
g69
(g90
g71
NtRp888
(dp889
g74
(dp890
g94
g95
ssg83
g884
sg76
(lp891
g327
asbag69
(g90
g71
NtRp892
(dp893
g74
(dp894
g101
g102
ssg83
g884
sg76
(lp895
S':'
asbag69
(g90
g71
NtRp896
(dp897
g74
(dp898
sg83
g884
sg76
(lp899
g69
(g70
g71
NtRp900
(dp901
g74
(dp902
g82
I3
ssg83
g896
sg76
(lp903
S''
asbasbasbag69
(g85
g71
NtRp904
(dp905
g74
(dp906
sg83
g860
sg76
(lp907
g69
(g90
g71
NtRp908
(dp909
g74
(dp910
g94
g95
ssg83
g904
sg76
(lp911
g348
asbag69
(g90
g71
NtRp912
(dp913
g74
(dp914
g101
g102
ssg83
g904
sg76
(lp915
S':'
asbag69
(g90
g71
NtRp916
(dp917
g74
(dp918
sg83
g904
sg76
(lp919
g69
(g70
g71
NtRp920
(dp921
g74
(dp922
g82
I3
ssg83
g916
sg76
(lp923
S''
asbasbasbag69
(g85
g71
NtRp924
(dp925
g74
(dp926
sg83
g860
sg76
(lp927
g69
(g90
g71
NtRp928
(dp929
g74
(dp930
g94
g95
ssg83
g924
sg76
(lp931
g369
asbag69
(g90
g71
NtRp932
(dp933
g74
(dp934
g101
g102
ssg83
g924
sg76
(lp935
S':'
asbag69
(g90
g71
NtRp936
(dp937
g74
(dp938
sg83
g924
sg76
(lp939
g69
(g70
g71
NtRp940
(dp941
g74
(dp942
g82
I3
ssg83
g936
sg76
(lp943
S''
asbasbasbag69
(g85
g71
NtRp944
(dp945
g74
(dp946
sg83
g860
sg76
(lp947
g69
(g90
g71
NtRp948
(dp949
g74
(dp950
g94
g95
ssg83
g944
sg76
(lp951
g390
asbag69
(g90
g71
NtRp952
(dp953
g74
(dp954
g101
g102
ssg83
g944
sg76
(lp955
S':'
asbag69
(g90
g71
NtRp956
(dp957
g74
(dp958
sg83
g944
sg76
(lp959
g69
(g70
g71
NtRp960
(dp961
g74
(dp962
g82
I3
ssg83
g956
sg76
(lp963
S''
asbasbasbag69
(g85
g71
NtRp964
(dp965
g74
(dp966
sg83
g860
sg76
(lp967
g69
(g90
g71
NtRp968
(dp969
g74
(dp970
g94
g95
ssg83
g964
sg76
(lp971
g411
asbag69
(g90
g71
NtRp972
(dp973
g74
(dp974
g101
g102
ssg83
g964
sg76
(lp975
S':'
asbag69
(g90
g71
NtRp976
(dp977
g74
(dp978
sg83
g964
sg76
(lp979
g69
(g70
g71
NtRp980
(dp981
g74
(dp982
g82
I3
ssg83
g976
sg76
(lp983
S''
asbasbasbag69
(g85
g71
NtRp984
(dp985
g74
(dp986
sg83
g860
sg76
(lp987
g69
(g90
g71
NtRp988
(dp989
g74
(dp990
g94
g95
ssg83
g984
sg76
(lp991
g432
asbag69
(g90
g71
NtRp992
(dp993
g74
(dp994
g101
g102
ssg83
g984
sg76
(lp995
S':'
asbag69
(g90
g71
NtRp996
(dp997
g74
(dp998
sg83
g984
sg76
(lp999
g69
(g70
g71
NtRp1000
(dp1001
g74
(dp1002
g82
I3
ssg83
g996
sg76
(lp1003
S''
asbasbasbag69
(g85
g71
NtRp1004
(dp1005
g74
(dp1006
sg83
g860
sg76
(lp1007
g69
(g90
g71
NtRp1008
(dp1009
g74
(dp1010
g94
g95
ssg83
g1004
sg76
(lp1011
g453
asbag69
(g90
g71
NtRp1012
(dp1013
g74
(dp1014
g101
g102
ssg83
g1004
sg76
(lp1015
S':'
asbag69
(g90
g71
NtRp1016
(dp1017
g74
(dp1018
sg83
g1004
sg76
(lp1019
g69
(g70
g71
NtRp1020
(dp1021
g74
(dp1022
g82
I3
ssg83
g1016
sg76
(lp1023
S''
asbasbasbasbasbasbasbag69
(g85
g71
NtRp1024
(dp1025
g74
(dp1026
sg83
g268
sg76
(lp1027
g69
(g90
g71
NtRp1028
(dp1029
g74
(dp1030
g94
g95
ssg83
g1024
sg76
(lp1031
S'session_id_welcome'
p1032
asbag69
(g90
g71
NtRp1033
(dp1034
g74
(dp1035
g101
g102
ssg83
g1024
sg76
(lp1036
S':'
asbag69
(g90
g71
NtRp1037
(dp1038
g74
(dp1039
sg83
g1024
sg76
(lp1040
g69
(g70
g71
NtRp1041
(dp1042
g74
(dp1043
g82
I4
ssg83
g1037
sg76
(lp1044
S'127.0.0.1-2837c0cc-fb0c-4598-b75f-5727d328e2ad'
p1045
ag69
(g78
g71
NtRp1046
(dp1047
g74
(dp1048
g82
I3
ssg83
Nsg76
(lp1049
g69
(g85
g71
NtRp1050
(dp1051
g74
(dp1052
sg83
g1046
sg76
(lp1053
g69
(g90
g71
NtRp1054
(dp1055
g74
(dp1056
g94
g95
ssg83
g1050
sg76
(lp1057
g306
asbag69
(g90
g71
NtRp1058
(dp1059
g74
(dp1060
g101
g102
ssg83
g1050
sg76
(lp1061
S':'
asbag69
(g90
g71
NtRp1062
(dp1063
g74
(dp1064
sg83
g1050
sg76
(lp1065
g69
(g70
g71
NtRp1066
(dp1067
g74
(dp1068
g82
I3
ssg83
g1062
sg76
(lp1069
S''
asbasbasbag69
(g85
g71
NtRp1070
(dp1071
g74
(dp1072
sg83
g1046
sg76
(lp1073
g69
(g90
g71
NtRp1074
(dp1075
g74
(dp1076
g94
g95
ssg83
g1070
sg76
(lp1077
g327
asbag69
(g90
g71
NtRp1078
(dp1079
g74
(dp1080
g101
g102
ssg83
g1070
sg76
(lp1081
S':'
asbag69
(g90
g71
NtRp1082
(dp1083
g74
(dp1084
sg83
g1070
sg76
(lp1085
g69
(g70
g71
NtRp1086
(dp1087
g74
(dp1088
g82
I3
ssg83
g1082
sg76
(lp1089
S''
asbasbasbag69
(g85
g71
NtRp1090
(dp1091
g74
(dp1092
sg83
g1046
sg76
(lp1093
g69
(g90
g71
NtRp1094
(dp1095
g74
(dp1096
g94
g95
ssg83
g1090
sg76
(lp1097
g348
asbag69
(g90
g71
NtRp1098
(dp1099
g74
(dp1100
g101
g102
ssg83
g1090
sg76
(lp1101
S':'
asbag69
(g90
g71
NtRp1102
(dp1103
g74
(dp1104
sg83
g1090
sg76
(lp1105
g69
(g70
g71
NtRp1106
(dp1107
g74
(dp1108
g82
I3
ssg83
g1102
sg76
(lp1109
S''
asbasbasbag69
(g85
g71
NtRp1110
(dp1111
g74
(dp1112
sg83
g1046
sg76
(lp1113
g69
(g90
g71
NtRp1114
(dp1115
g74
(dp1116
g94
g95
ssg83
g1110
sg76
(lp1117
g369
asbag69
(g90
g71
NtRp1118
(dp1119
g74
(dp1120
g101
g102
ssg83
g1110
sg76
(lp1121
S':'
asbag69
(g90
g71
NtRp1122
(dp1123
g74
(dp1124
sg83
g1110
sg76
(lp1125
g69
(g70
g71
NtRp1126
(dp1127
g74
(dp1128
g82
I3
ssg83
g1122
sg76
(lp1129
S''
asbasbasbag69
(g85
g71
NtRp1130
(dp1131
g74
(dp1132
sg83
g1046
sg76
(lp1133
g69
(g90
g71
NtRp1134
(dp1135
g74
(dp1136
g94
g95
ssg83
g1130
sg76
(lp1137
g390
asbag69
(g90
g71
NtRp1138
(dp1139
g74
(dp1140
g101
g102
ssg83
g1130
sg76
(lp1141
S':'
asbag69
(g90
g71
NtRp1142
(dp1143
g74
(dp1144
sg83
g1130
sg76
(lp1145
g69
(g70
g71
NtRp1146
(dp1147
g74
(dp1148
g82
I3
ssg83
g1142
sg76
(lp1149
S''
asbasbasbag69
(g85
g71
NtRp1150
(dp1151
g74
(dp1152
sg83
g1046
sg76
(lp1153
g69
(g90
g71
NtRp1154
(dp1155
g74
(dp1156
g94
g95
ssg83
g1150
sg76
(lp1157
g411
asbag69
(g90
g71
NtRp1158
(dp1159
g74
(dp1160
g101
g102
ssg83
g1150
sg76
(lp1161
S':'
asbag69
(g90
g71
NtRp1162
(dp1163
g74
(dp1164
sg83
g1150
sg76
(lp1165
g69
(g70
g71
NtRp1166
(dp1167
g74
(dp1168
g82
I3
ssg83
g1162
sg76
(lp1169
S''
asbasbasbag69
(g85
g71
NtRp1170
(dp1171
g74
(dp1172
sg83
g1046
sg76
(lp1173
g69
(g90
g71
NtRp1174
(dp1175
g74
(dp1176
g94
g95
ssg83
g1170
sg76
(lp1177
g432
asbag69
(g90
g71
NtRp1178
(dp1179
g74
(dp1180
g101
g102
ssg83
g1170
sg76
(lp1181
S':'
asbag69
(g90
g71
NtRp1182
(dp1183
g74
(dp1184
sg83
g1170
sg76
(lp1185
g69
(g70
g71
NtRp1186
(dp1187
g74
(dp1188
g82
I3
ssg83
g1182
sg76
(lp1189
S''
asbasbasbag69
(g85
g71
NtRp1190
(dp1191
g74
(dp1192
sg83
g1046
sg76
(lp1193
g69
(g90
g71
NtRp1194
(dp1195
g74
(dp1196
g94
g95
ssg83
g1190
sg76
(lp1197
g453
asbag69
(g90
g71
NtRp1198
(dp1199
g74
(dp1200
g101
g102
ssg83
g1190
sg76
(lp1201
S':'
asbag69
(g90
g71
NtRp1202
(dp1203
g74
(dp1204
sg83
g1190
sg76
(lp1205
g69
(g70
g71
NtRp1206
(dp1207
g74
(dp1208
g82
I3
ssg83
g1202
sg76
(lp1209
S''
asbasbasbasbasbasbasbasbasbasbasbag69
(g85
g71
NtRp1210
(dp1211
g74
(dp1212
sg83
g79
sg76
(lp1213
g69
(g90
g71
NtRp1214
(dp1215
g74
(dp1216
g94
g95
ssg83
g1210
sg76
(lp1217
S'env'
p1218
asbag69
(g90
g71
NtRp1219
(dp1220
g74
(dp1221
g101
g102
ssg83
g1210
sg76
(lp1222
S':'
asbag69
(g90
g71
NtRp1223
(dp1224
g74
(dp1225
sg83
g1210
sg76
(lp1226
g69
(g70
g71
NtRp1227
(dp1228
g74
(dp1229
g82
I5
ssg83
g1223
sg76
(lp1230
g69
(g78
g71
NtRp1231
(dp1232
g74
(dp1233
g82
I4
ssg83
Nsg76
(lp1234
g69
(g85
g71
NtRp1235
(dp1236
g74
(dp1237
sg83
g1231
sg76
(lp1238
g69
(g90
g71
NtRp1239
(dp1240
g74
(dp1241
g94
g95
ssg83
g1235
sg76
(lp1242
S'app_folders'
p1243
asbag69
(g90
g71
NtRp1244
(dp1245
g74
(dp1246
g101
g102
ssg83
g1235
sg76
(lp1247
S':'
asbag69
(g90
g71
NtRp1248
(dp1249
g74
(dp1250
sg83
g1235
sg76
(lp1251
g69
(g70
g71
NtRp1252
(dp1253
g74
(dp1254
g82
I4
ssg83
g1248
sg76
(lp1255
S"set(['/home/darshan/web2py/applications/Isas/', '/home/darshan/web2py/applications/examples/', '/home/darshan/web2py/applications/readit/', '/home/darshan/web2py/applications/admin/', '/home/darshan/web2py/applications/Garbage_Truck/', '/home/darshan/web2py/applications/welcome/', '/home/darshan/web2py/applications/isas/'])"
p1256
asbasbasbag69
(g85
g71
NtRp1257
(dp1258
g74
(dp1259
sg83
g1231
sg76
(lp1260
g69
(g90
g71
NtRp1261
(dp1262
g74
(dp1263
g94
g95
ssg83
g1257
sg76
(lp1264
S'applications_parent'
p1265
asbag69
(g90
g71
NtRp1266
(dp1267
g74
(dp1268
g101
g102
ssg83
g1257
sg76
(lp1269
S':'
asbag69
(g90
g71
NtRp1270
(dp1271
g74
(dp1272
sg83
g1257
sg76
(lp1273
g69
(g70
g71
NtRp1274
(dp1275
g74
(dp1276
g82
I4
ssg83
g1270
sg76
(lp1277
S'/home/darshan/web2py'
p1278
asbasbasbag69
(g85
g71
NtRp1279
(dp1280
g74
(dp1281
sg83
g1231
sg76
(lp1282
g69
(g90
g71
NtRp1283
(dp1284
g74
(dp1285
g94
g95
ssg83
g1279
sg76
(lp1286
S'cmd_args'
p1287
asbag69
(g90
g71
NtRp1288
(dp1289
g74
(dp1290
g101
g102
ssg83
g1279
sg76
(lp1291
S':'
asbag69
(g90
g71
NtRp1292
(dp1293
g74
(dp1294
sg83
g1279
sg76
(lp1295
g69
(g70
g71
NtRp1296
(dp1297
g74
(dp1298
g82
I4
ssg83
g1292
sg76
(lp1299
g69
(g78
g71
NtRp1300
(dp1301
g74
(dp1302
g82
I3
ssg83
Nsg76
(lp1303
sbasbasbasbag69
(g85
g71
NtRp1304
(dp1305
g74
(dp1306
sg83
g1231
sg76
(lp1307
g69
(g90
g71
NtRp1308
(dp1309
g74
(dp1310
g94
g95
ssg83
g1304
sg76
(lp1311
S'cmd_options'
p1312
asbag69
(g90
g71
NtRp1313
(dp1314
g74
(dp1315
g101
g102
ssg83
g1304
sg76
(lp1316
S':'
asbag69
(g90
g71
NtRp1317
(dp1318
g74
(dp1319
sg83
g1304
sg76
(lp1320
g69
(g70
g71
NtRp1321
(dp1322
g74
(dp1323
g82
I4
ssg83
g1317
sg76
(lp1324
S"<Values at 0x7f92baaf7f80: {'verbose': False, 'ip': '127.0.0.1', 'with_scheduler': False, 'ips': [], 'shutdown_timeout': 5, 'taskbar': False, 'port': 8000, 'maxthreads': None, 'softcron': False, 'server_name': 'darshan-Inspiron-5520', 'bpython': False, 'nogui': False, 'pid_filename': 'httpserver.pid', 'extcron': False, 'runcron': False, 'run_system_tests': False, 'test': None, 'folder': '/home/darshan/web2py', 'config': '', 'minthreads': None, 'winservice': '', 'shell': None, 'run': '', 'log_filename': 'httpserver.log', 'debuglevel': 30, 'args': [''], 'socket_timeout': 5, 'ssl_ca_certificate': None, 'scheduler': None, 'profiler_filename': None, 'ssl_private_key': '', 'scheduler_groups': None, 'password': '<ask>', 'request_queue_size': 5, 'ssl_certificate': '', 'cronjob': False, 'numthreads': None, 'quiet': False, 'interfaces': None, 'import_models': False, 'timeout': 10, 'plain': False, 'nobanner': False}>"
p1325
asbasbasbag69
(g85
g71
NtRp1326
(dp1327
g74
(dp1328
sg83
g1231
sg76
(lp1329
g69
(g90
g71
NtRp1330
(dp1331
g74
(dp1332
g94
g95
ssg83
g1326
sg76
(lp1333
S'db_sessions'
p1334
asbag69
(g90
g71
NtRp1335
(dp1336
g74
(dp1337
g101
g102
ssg83
g1326
sg76
(lp1338
S':'
asbag69
(g90
g71
NtRp1339
(dp1340
g74
(dp1341
sg83
g1326
sg76
(lp1342
g69
(g70
g71
NtRp1343
(dp1344
g74
(dp1345
g82
I4
ssg83
g1339
sg76
(lp1346
S'set([])'
p1347
asbasbasbag69
(g85
g71
NtRp1348
(dp1349
g74
(dp1350
sg83
g1231
sg76
(lp1351
g69
(g90
g71
NtRp1352
(dp1353
g74
(dp1354
g94
g95
ssg83
g1348
sg76
(lp1355
S'debugging'
p1356
asbag69
(g90
g71
NtRp1357
(dp1358
g74
(dp1359
g101
g102
ssg83
g1348
sg76
(lp1360
S':'
asbag69
(g90
g71
NtRp1361
(dp1362
g74
(dp1363
sg83
g1348
sg76
(lp1364
g69
(g70
g71
NtRp1365
(dp1366
g74
(dp1367
g82
I4
ssg83
g1361
sg76
(lp1368
g112
asbasbasbag69
(g85
g71
NtRp1369
(dp1370
g74
(dp1371
sg83
g1231
sg76
(lp1372
g69
(g90
g71
NtRp1373
(dp1374
g74
(dp1375
g94
g95
ssg83
g1369
sg76
(lp1376
S'gluon_parent'
p1377
asbag69
(g90
g71
NtRp1378
(dp1379
g74
(dp1380
g101
g102
ssg83
g1369
sg76
(lp1381
S':'
asbag69
(g90
g71
NtRp1382
(dp1383
g74
(dp1384
sg83
g1369
sg76
(lp1385
g69
(g70
g71
NtRp1386
(dp1387
g74
(dp1388
g82
I4
ssg83
g1382
sg76
(lp1389
S'/home/darshan/web2py'
p1390
asbasbasbag69
(g85
g71
NtRp1391
(dp1392
g74
(dp1393
sg83
g1231
sg76
(lp1394
g69
(g90
g71
NtRp1395
(dp1396
g74
(dp1397
g94
g95
ssg83
g1391
sg76
(lp1398
S'http_accept'
p1399
asbag69
(g90
g71
NtRp1400
(dp1401
g74
(dp1402
g101
g102
ssg83
g1391
sg76
(lp1403
S':'
asbag69
(g90
g71
NtRp1404
(dp1405
g74
(dp1406
sg83
g1391
sg76
(lp1407
g69
(g70
g71
NtRp1408
(dp1409
g74
(dp1410
g82
I4
ssg83
g1404
sg76
(lp1411
S'text/html,application/xhtml+xml,application/xml;q=0.9,*/*;q=0.8'
p1412
asbasbasbag69
(g85
g71
NtRp1413
(dp1414
g74
(dp1415
sg83
g1231
sg76
(lp1416
g69
(g90
g71
NtRp1417
(dp1418
g74
(dp1419
g94
g95
ssg83
g1413
sg76
(lp1420
S'http_accept_encoding'
p1421
asbag69
(g90
g71
NtRp1422
(dp1423
g74
(dp1424
g101
g102
ssg83
g1413
sg76
(lp1425
S':'
asbag69
(g90
g71
NtRp1426
(dp1427
g74
(dp1428
sg83
g1413
sg76
(lp1429
g69
(g70
g71
NtRp1430
(dp1431
g74
(dp1432
g82
I4
ssg83
g1426
sg76
(lp1433
S'gzip, deflate'
p1434
asbasbasbag69
(g85
g71
NtRp1435
(dp1436
g74
(dp1437
sg83
g1231
sg76
(lp1438
g69
(g90
g71
NtRp1439
(dp1440
g74
(dp1441
g94
g95
ssg83
g1435
sg76
(lp1442
S'http_accept_language'
p1443
asbag69
(g90
g71
NtRp1444
(dp1445
g74
(dp1446
g101
g102
ssg83
g1435
sg76
(lp1447
S':'
asbag69
(g90
g71
NtRp1448
(dp1449
g74
(dp1450
sg83
g1435
sg76
(lp1451
g69
(g70
g71
NtRp1452
(dp1453
g74
(dp1454
g82
I4
ssg83
g1448
sg76
(lp1455
S'en-US,en;q=0.5'
p1456
asbasbasbag69
(g85
g71
NtRp1457
(dp1458
g74
(dp1459
sg83
g1231
sg76
(lp1460
g69
(g90
g71
NtRp1461
(dp1462
g74
(dp1463
g94
g95
ssg83
g1457
sg76
(lp1464
S'http_connection'
p1465
asbag69
(g90
g71
NtRp1466
(dp1467
g74
(dp1468
g101
g102
ssg83
g1457
sg76
(lp1469
S':'
asbag69
(g90
g71
NtRp1470
(dp1471
g74
(dp1472
sg83
g1457
sg76
(lp1473
g69
(g70
g71
NtRp1474
(dp1475
g74
(dp1476
g82
I4
ssg83
g1470
sg76
(lp1477
S'keep-alive'
p1478
asbasbasbag69
(g85
g71
NtRp1479
(dp1480
g74
(dp1481
sg83
g1231
sg76
(lp1482
g69
(g90
g71
NtRp1483
(dp1484
g74
(dp1485
g94
g95
ssg83
g1479
sg76
(lp1486
S'http_cookie'
p1487
asbag69
(g90
g71
NtRp1488
(dp1489
g74
(dp1490
g101
g102
ssg83
g1479
sg76
(lp1491
S':'
asbag69
(g90
g71
NtRp1492
(dp1493
g74
(dp1494
sg83
g1479
sg76
(lp1495
g69
(g70
g71
NtRp1496
(dp1497
g74
(dp1498
g82
I4
ssg83
g1492
sg76
(lp1499
S'csrftoken=a9lCt5w7Q4OG437IZNwjtNB3YEdWYXWm; session_id_admin=127.0.0.1-e6c203e9-d008-4610-8523-5a0e93da9abb; session_id_welcome=127.0.0.1-2837c0cc-fb0c-4598-b75f-5727d328e2ad; session_id_readit=127.0.0.1-e391c20a-8d22-4e6d-a1c8-f85c00f99b3d; session_id_isas=127.0.0.1-46261fb6-868f-4eb5-ae61-7251ec9ac039'
p1500
asbasbasbag69
(g85
g71
NtRp1501
(dp1502
g74
(dp1503
sg83
g1231
sg76
(lp1504
g69
(g90
g71
NtRp1505
(dp1506
g74
(dp1507
g94
g95
ssg83
g1501
sg76
(lp1508
S'http_dnt'
p1509
asbag69
(g90
g71
NtRp1510
(dp1511
g74
(dp1512
g101
g102
ssg83
g1501
sg76
(lp1513
S':'
asbag69
(g90
g71
NtRp1514
(dp1515
g74
(dp1516
sg83
g1501
sg76
(lp1517
g69
(g70
g71
NtRp1518
(dp1519
g74
(dp1520
g82
I4
ssg83
g1514
sg76
(lp1521
S'1'
asbasbasbag69
(g85
g71
NtRp1522
(dp1523
g74
(dp1524
sg83
g1231
sg76
(lp1525
g69
(g90
g71
NtRp1526
(dp1527
g74
(dp1528
g94
g95
ssg83
g1522
sg76
(lp1529
S'http_host'
p1530
asbag69
(g90
g71
NtRp1531
(dp1532
g74
(dp1533
g101
g102
ssg83
g1522
sg76
(lp1534
S':'
asbag69
(g90
g71
NtRp1535
(dp1536
g74
(dp1537
sg83
g1522
sg76
(lp1538
g69
(g70
g71
NtRp1539
(dp1540
g74
(dp1541
g82
I4
ssg83
g1535
sg76
(lp1542
S'127.0.0.1:8000'
p1543
asbasbasbag69
(g85
g71
NtRp1544
(dp1545
g74
(dp1546
sg83
g1231
sg76
(lp1547
g69
(g90
g71
NtRp1548
(dp1549
g74
(dp1550
g94
g95
ssg83
g1544
sg76
(lp1551
S'http_referer'
p1552
asbag69
(g90
g71
NtRp1553
(dp1554
g74
(dp1555
g101
g102
ssg83
g1544
sg76
(lp1556
S':'
asbag69
(g90
g71
NtRp1557
(dp1558
g74
(dp1559
sg83
g1544
sg76
(lp1560
g69
(g70
g71
NtRp1561
(dp1562
g74
(dp1563
g82
I4
ssg83
g1557
sg76
(lp1564
S'http://127.0.0.1:8000/admin/default/design/Garbage_Truck'
p1565
asbasbasbag69
(g85
g71
NtRp1566
(dp1567
g74
(dp1568
sg83
g1231
sg76
(lp1569
g69
(g90
g71
NtRp1570
(dp1571
g74
(dp1572
g94
g95
ssg83
g1566
sg76
(lp1573
S'http_user_agent'
p1574
asbag69
(g90
g71
NtRp1575
(dp1576
g74
(dp1577
g101
g102
ssg83
g1566
sg76
(lp1578
S':'
asbag69
(g90
g71
NtRp1579
(dp1580
g74
(dp1581
sg83
g1566
sg76
(lp1582
g69
(g70
g71
NtRp1583
(dp1584
g74
(dp1585
g82
I4
ssg83
g1579
sg76
(lp1586
S'Mozilla/5.0 (X11; Ubuntu; Linux x86_64; rv:32.0) Gecko/20100101 Firefox/32.0'
p1587
asbasbasbag69
(g85
g71
NtRp1588
(dp1589
g74
(dp1590
sg83
g1231
sg76
(lp1591
g69
(g90
g71
NtRp1592
(dp1593
g74
(dp1594
g94
g95
ssg83
g1588
sg76
(lp1595
S'is_jython'
p1596
asbag69
(g90
g71
NtRp1597
(dp1598
g74
(dp1599
g101
g102
ssg83
g1588
sg76
(lp1600
S':'
asbag69
(g90
g71
NtRp1601
(dp1602
g74
(dp1603
sg83
g1588
sg76
(lp1604
g69
(g70
g71
NtRp1605
(dp1606
g74
(dp1607
g82
I4
ssg83
g1601
sg76
(lp1608
g112
asbasbasbag69
(g85
g71
NtRp1609
(dp1610
g74
(dp1611
sg83
g1231
sg76
(lp1612
g69
(g90
g71
NtRp1613
(dp1614
g74
(dp1615
g94
g95
ssg83
g1609
sg76
(lp1616
S'is_pypy'
p1617
asbag69
(g90
g71
NtRp1618
(dp1619
g74
(dp1620
g101
g102
ssg83
g1609
sg76
(lp1621
S':'
asbag69
(g90
g71
NtRp1622
(dp1623
g74
(dp1624
sg83
g1609
sg76
(lp1625
g69
(g70
g71
NtRp1626
(dp1627
g74
(dp1628
g82
I4
ssg83
g1622
sg76
(lp1629
g112
asbasbasbag69
(g85
g71
NtRp1630
(dp1631
g74
(dp1632
sg83
g1231
sg76
(lp1633
g69
(g90
g71
NtRp1634
(dp1635
g74
(dp1636
g94
g95
ssg83
g1630
sg76
(lp1637
S'local_hosts'
p1638
asbag69
(g90
g71
NtRp1639
(dp1640
g74
(dp1641
g101
g102
ssg83
g1630
sg76
(lp1642
S':'
asbag69
(g90
g71
NtRp1643
(dp1644
g74
(dp1645
sg83
g1630
sg76
(lp1646
g69
(g70
g71
NtRp1647
(dp1648
g74
(dp1649
g82
I4
ssg83
g1643
sg76
(lp1650
g69
(g78
g71
NtRp1651
(dp1652
g74
(dp1653
g82
I3
ssg83
Nsg76
(lp1654
g69
(g85
g71
NtRp1655
(dp1656
g74
(dp1657
sg83
g1651
sg76
(lp1658
g69
(g90
g71
NtRp1659
(dp1660
g74
(dp1661
sg83
g1655
sg76
(lp1662
g69
(g70
g71
NtRp1663
(dp1664
g74
(dp1665
g82
I3
ssg83
g1659
sg76
(lp1666
S'::1'
p1667
asbasbasbag69
(g85
g71
NtRp1668
(dp1669
g74
(dp1670
sg83
g1651
sg76
(lp1671
g69
(g90
g71
NtRp1672
(dp1673
g74
(dp1674
sg83
g1668
sg76
(lp1675
g69
(g70
g71
NtRp1676
(dp1677
g74
(dp1678
g82
I3
ssg83
g1672
sg76
(lp1679
S'127.0.1.1'
p1680
asbasbasbag69
(g85
g71
NtRp1681
(dp1682
g74
(dp1683
sg83
g1651
sg76
(lp1684
g69
(g90
g71
NtRp1685
(dp1686
g74
(dp1687
sg83
g1681
sg76
(lp1688
g69
(g70
g71
NtRp1689
(dp1690
g74
(dp1691
g82
I3
ssg83
g1685
sg76
(lp1692
S'darshan-Inspiron-5520'
p1693
asbasbasbag69
(g85
g71
NtRp1694
(dp1695
g74
(dp1696
sg83
g1651
sg76
(lp1697
g69
(g90
g71
NtRp1698
(dp1699
g74
(dp1700
sg83
g1694
sg76
(lp1701
g69
(g70
g71
NtRp1702
(dp1703
g74
(dp1704
g82
I3
ssg83
g1698
sg76
(lp1705
S'::ffff:127.0.0.1'
p1706
asbasbasbag69
(g85
g71
NtRp1707
(dp1708
g74
(dp1709
sg83
g1651
sg76
(lp1710
g69
(g90
g71
NtRp1711
(dp1712
g74
(dp1713
sg83
g1707
sg76
(lp1714
g69
(g70
g71
NtRp1715
(dp1716
g74
(dp1717
g82
I3
ssg83
g1711
sg76
(lp1718
S'127.0.0.1'
p1719
asbasbasbasbasbasbasbag69
(g85
g71
NtRp1720
(dp1721
g74
(dp1722
sg83
g1231
sg76
(lp1723
g69
(g90
g71
NtRp1724
(dp1725
g74
(dp1726
g94
g95
ssg83
g1720
sg76
(lp1727
S'path_info'
p1728
asbag69
(g90
g71
NtRp1729
(dp1730
g74
(dp1731
g101
g102
ssg83
g1720
sg76
(lp1732
S':'
asbag69
(g90
g71
NtRp1733
(dp1734
g74
(dp1735
sg83
g1720
sg76
(lp1736
g69
(g70
g71
NtRp1737
(dp1738
g74
(dp1739
g82
I4
ssg83
g1733
sg76
(lp1740
S'/Garbage_Truck/appadmin/index'
p1741
asbasbasbag69
(g85
g71
NtRp1742
(dp1743
g74
(dp1744
sg83
g1231
sg76
(lp1745
g69
(g90
g71
NtRp1746
(dp1747
g74
(dp1748
g94
g95
ssg83
g1742
sg76
(lp1749
S'query_string'
p1750
asbag69
(g90
g71
NtRp1751
(dp1752
g74
(dp1753
g101
g102
ssg83
g1742
sg76
(lp1754
S':'
asbag69
(g90
g71
NtRp1755
(dp1756
g74
(dp1757
sg83
g1742
sg76
(lp1758
g69
(g70
g71
NtRp1759
(dp1760
g74
(dp1761
g82
I4
ssg83
g1755
sg76
(lp1762
S''
asbasbasbag69
(g85
g71
NtRp1763
(dp1764
g74
(dp1765
sg83
g1231
sg76
(lp1766
g69
(g90
g71
NtRp1767
(dp1768
g74
(dp1769
g94
g95
ssg83
g1763
sg76
(lp1770
S'remote_addr'
p1771
asbag69
(g90
g71
NtRp1772
(dp1773
g74
(dp1774
g101
g102
ssg83
g1763
sg76
(lp1775
S':'
asbag69
(g90
g71
NtRp1776
(dp1777
g74
(dp1778
sg83
g1763
sg76
(lp1779
g69
(g70
g71
NtRp1780
(dp1781
g74
(dp1782
g82
I4
ssg83
g1776
sg76
(lp1783
g224
asbasbasbag69
(g85
g71
NtRp1784
(dp1785
g74
(dp1786
sg83
g1231
sg76
(lp1787
g69
(g90
g71
NtRp1788
(dp1789
g74
(dp1790
g94
g95
ssg83
g1784
sg76
(lp1791
S'remote_port'
p1792
asbag69
(g90
g71
NtRp1793
(dp1794
g74
(dp1795
g101
g102
ssg83
g1784
sg76
(lp1796
S':'
asbag69
(g90
g71
NtRp1797
(dp1798
g74
(dp1799
sg83
g1784
sg76
(lp1800
g69
(g70
g71
NtRp1801
(dp1802
g74
(dp1803
g82
I4
ssg83
g1797
sg76
(lp1804
S'33171'
p1805
asbasbasbag69
(g85
g71
NtRp1806
(dp1807
g74
(dp1808
sg83
g1231
sg76
(lp1809
g69
(g90
g71
NtRp1810
(dp1811
g74
(dp1812
g94
g95
ssg83
g1806
sg76
(lp1813
S'request_method'
p1814
asbag69
(g90
g71
NtRp1815
(dp1816
g74
(dp1817
g101
g102
ssg83
g1806
sg76
(lp1818
S':'
asbag69
(g90
g71
NtRp1819
(dp1820
g74
(dp1821
sg83
g1806
sg76
(lp1822
g69
(g70
g71
NtRp1823
(dp1824
g74
(dp1825
g82
I4
ssg83
g1819
sg76
(lp1826
S'GET'
p1827
asbasbasbag69
(g85
g71
NtRp1828
(dp1829
g74
(dp1830
sg83
g1231
sg76
(lp1831
g69
(g90
g71
NtRp1832
(dp1833
g74
(dp1834
g94
g95
ssg83
g1828
sg76
(lp1835
S'request_uri'
p1836
asbag69
(g90
g71
NtRp1837
(dp1838
g74
(dp1839
g101
g102
ssg83
g1828
sg76
(lp1840
S':'
asbag69
(g90
g71
NtRp1841
(dp1842
g74
(dp1843
sg83
g1828
sg76
(lp1844
g69
(g70
g71
NtRp1845
(dp1846
g74
(dp1847
g82
I4
ssg83
g1841
sg76
(lp1848
g1741
asbasbasbag69
(g85
g71
NtRp1849
(dp1850
g74
(dp1851
sg83
g1231
sg76
(lp1852
g69
(g90
g71
NtRp1853
(dp1854
g74
(dp1855
g94
g95
ssg83
g1849
sg76
(lp1856
S'script_name'
p1857
asbag69
(g90
g71
NtRp1858
(dp1859
g74
(dp1860
g101
g102
ssg83
g1849
sg76
(lp1861
S':'
asbag69
(g90
g71
NtRp1862
(dp1863
g74
(dp1864
sg83
g1849
sg76
(lp1865
g69
(g70
g71
NtRp1866
(dp1867
g74
(dp1868
g82
I4
ssg83
g1862
sg76
(lp1869
S''
asbasbasbag69
(g85
g71
NtRp1870
(dp1871
g74
(dp1872
sg83
g1231
sg76
(lp1873
g69
(g90
g71
NtRp1874
(dp1875
g74
(dp1876
g94
g95
ssg83
g1870
sg76
(lp1877
S'server_name'
p1878
asbag69
(g90
g71
NtRp1879
(dp1880
g74
(dp1881
g101
g102
ssg83
g1870
sg76
(lp1882
S':'
asbag69
(g90
g71
NtRp1883
(dp1884
g74
(dp1885
sg83
g1870
sg76
(lp1886
g69
(g70
g71
NtRp1887
(dp1888
g74
(dp1889
g82
I4
ssg83
g1883
sg76
(lp1890
S'darshan-Inspiron-5520'
p1891
asbasbasbag69
(g85
g71
NtRp1892
(dp1893
g74
(dp1894
sg83
g1231
sg76
(lp1895
g69
(g90
g71
NtRp1896
(dp1897
g74
(dp1898
g94
g95
ssg83
g1892
sg76
(lp1899
S'server_port'
p1900
asbag69
(g90
g71
NtRp1901
(dp1902
g74
(dp1903
g101
g102
ssg83
g1892
sg76
(lp1904
S':'
asbag69
(g90
g71
NtRp1905
(dp1906
g74
(dp1907
sg83
g1892
sg76
(lp1908
g69
(g70
g71
NtRp1909
(dp1910
g74
(dp1911
g82
I4
ssg83
g1905
sg76
(lp1912
S'8000'
p1913
asbasbasbag69
(g85
g71
NtRp1914
(dp1915
g74
(dp1916
sg83
g1231
sg76
(lp1917
g69
(g90
g71
NtRp1918
(dp1919
g74
(dp1920
g94
g95
ssg83
g1914
sg76
(lp1921
S'server_protocol'
p1922
asbag69
(g90
g71
NtRp1923
(dp1924
g74
(dp1925
g101
g102
ssg83
g1914
sg76
(lp1926
S':'
asbag69
(g90
g71
NtRp1927
(dp1928
g74
(dp1929
sg83
g1914
sg76
(lp1930
g69
(g70
g71
NtRp1931
(dp1932
g74
(dp1933
g82
I4
ssg83
g1927
sg76
(lp1934
S'HTTP/1.1'
p1935
asbasbasbag69
(g85
g71
NtRp1936
(dp1937
g74
(dp1938
sg83
g1231
sg76
(lp1939
g69
(g90
g71
NtRp1940
(dp1941
g74
(dp1942
g94
g95
ssg83
g1936
sg76
(lp1943
S'server_software'
p1944
asbag69
(g90
g71
NtRp1945
(dp1946
g74
(dp1947
g101
g102
ssg83
g1936
sg76
(lp1948
S':'
asbag69
(g90
g71
NtRp1949
(dp1950
g74
(dp1951
sg83
g1936
sg76
(lp1952
g69
(g70
g71
NtRp1953
(dp1954
g74
(dp1955
g82
I4
ssg83
g1949
sg76
(lp1956
S'Rocket 1.2.6'
p1957
asbasbasbag69
(g85
g71
NtRp1958
(dp1959
g74
(dp1960
sg83
g1231
sg76
(lp1961
g69
(g90
g71
NtRp1962
(dp1963
g74
(dp1964
g94
g95
ssg83
g1958
sg76
(lp1965
S'web2py_path'
p1966
asbag69
(g90
g71
NtRp1967
(dp1968
g74
(dp1969
g101
g102
ssg83
g1958
sg76
(lp1970
S':'
asbag69
(g90
g71
NtRp1971
(dp1972
g74
(dp1973
sg83
g1958
sg76
(lp1974
g69
(g70
g71
NtRp1975
(dp1976
g74
(dp1977
g82
I4
ssg83
g1971
sg76
(lp1978
g1278
asbasbasbag69
(g85
g71
NtRp1979
(dp1980
g74
(dp1981
sg83
g1231
sg76
(lp1982
g69
(g90
g71
NtRp1983
(dp1984
g74
(dp1985
g94
g95
ssg83
g1979
sg76
(lp1986
S'web2py_version'
p1987
asbag69
(g90
g71
NtRp1988
(dp1989
g74
(dp1990
g101
g102
ssg83
g1979
sg76
(lp1991
S':'
asbag69
(g90
g71
NtRp1992
(dp1993
g74
(dp1994
sg83
g1979
sg76
(lp1995
g69
(g70
g71
NtRp1996
(dp1997
g74
(dp1998
g82
I4
ssg83
g1992
sg76
(lp1999
g69
(g78
g71
NtRp2000
(dp2001
g74
(dp2002
g82
I3
ssg83
Nsg76
(lp2003
g69
(g85
g71
NtRp2004
(dp2005
g74
(dp2006
sg83
g2000
sg76
(lp2007
g69
(g90
g71
NtRp2008
(dp2009
g74
(dp2010
sg83
g2004
sg76
(lp2011
g69
(g70
g71
NtRp2012
(dp2013
g74
(dp2014
g82
I3
ssg83
g2008
sg76
(lp2015
S'2'
asbasbasbag69
(g85
g71
NtRp2016
(dp2017
g74
(dp2018
sg83
g2000
sg76
(lp2019
g69
(g90
g71
NtRp2020
(dp2021
g74
(dp2022
sg83
g2016
sg76
(lp2023
g69
(g70
g71
NtRp2024
(dp2025
g74
(dp2026
g82
I3
ssg83
g2020
sg76
(lp2027
S'3'
asbasbasbag69
(g85
g71
NtRp2028
(dp2029
g74
(dp2030
sg83
g2000
sg76
(lp2031
g69
(g90
g71
NtRp2032
(dp2033
g74
(dp2034
sg83
g2028
sg76
(lp2035
g69
(g70
g71
NtRp2036
(dp2037
g74
(dp2038
g82
I3
ssg83
g2032
sg76
(lp2039
S'2'
asbasbasbag69
(g85
g71
NtRp2040
(dp2041
g74
(dp2042
sg83
g2000
sg76
(lp2043
g69
(g90
g71
NtRp2044
(dp2045
g74
(dp2046
sg83
g2040
sg76
(lp2047
g69
(g70
g71
NtRp2048
(dp2049
g74
(dp2050
g82
I3
ssg83
g2044
sg76
(lp2051
S'datetime.datetime(2012, 12, 17, 15, 3, 30)'
p2052
asbasbasbag69
(g85
g71
NtRp2053
(dp2054
g74
(dp2055
sg83
g2000
sg76
(lp2056
g69
(g90
g71
NtRp2057
(dp2058
g74
(dp2059
sg83
g2053
sg76
(lp2060
g69
(g70
g71
NtRp2061
(dp2062
g74
(dp2063
g82
I3
ssg83
g2057
sg76
(lp2064
S'stable'
p2065
asbasbasbasbasbasbasbag69
(g85
g71
NtRp2066
(dp2067
g74
(dp2068
sg83
g1231
sg76
(lp2069
g69
(g90
g71
NtRp2070
(dp2071
g74
(dp2072
g94
g95
ssg83
g2066
sg76
(lp2073
S'wsgi_errors'
p2074
asbag69
(g90
g71
NtRp2075
(dp2076
g74
(dp2077
g101
g102
ssg83
g2066
sg76
(lp2078
S':'
asbag69
(g90
g71
NtRp2079
(dp2080
g74
(dp2081
sg83
g2066
sg76
(lp2082
g69
(g70
g71
NtRp2083
(dp2084
g74
(dp2085
g82
I4
ssg83
g2079
sg76
(lp2086
S"<open file '<stderr>', mode 'w' at 0x7f92c1bb41e0>"
p2087
asbasbasbag69
(g85
g71
NtRp2088
(dp2089
g74
(dp2090
sg83
g1231
sg76
(lp2091
g69
(g90
g71
NtRp2092
(dp2093
g74
(dp2094
g94
g95
ssg83
g2088
sg76
(lp2095
S'wsgi_file_wrapper'
p2096
asbag69
(g90
g71
NtRp2097
(dp2098
g74
(dp2099
g101
g102
ssg83
g2088
sg76
(lp2100
S':'
asbag69
(g90
g71
NtRp2101
(dp2102
g74
(dp2103
sg83
g2088
sg76
(lp2104
g69
(g70
g71
NtRp2105
(dp2106
g74
(dp2107
g82
I4
ssg83
g2101
sg76
(lp2108
S'<class wsgiref.util.FileWrapper at 0x7f92bab98808>'
p2109
asbasbasbag69
(g85
g71
NtRp2110
(dp2111
g74
(dp2112
sg83
g1231
sg76
(lp2113
g69
(g90
g71
NtRp2114
(dp2115
g74
(dp2116
g94
g95
ssg83
g2110
sg76
(lp2117
S'wsgi_input'
p2118
asbag69
(g90
g71
NtRp2119
(dp2120
g74
(dp2121
g101
g102
ssg83
g2110
sg76
(lp2122
S':'
asbag69
(g90
g71
NtRp2123
(dp2124
g74
(dp2125
sg83
g2110
sg76
(lp2126
g69
(g70
g71
NtRp2127
(dp2128
g74
(dp2129
g82
I4
ssg83
g2123
sg76
(lp2130
S'<socket._fileobject object at 0x7f928999a450>'
p2131
asbasbasbag69
(g85
g71
NtRp2132
(dp2133
g74
(dp2134
sg83
g1231
sg76
(lp2135
g69
(g90
g71
NtRp2136
(dp2137
g74
(dp2138
g94
g95
ssg83
g2132
sg76
(lp2139
S'wsgi_multiprocess'
p2140
asbag69
(g90
g71
NtRp2141
(dp2142
g74
(dp2143
g101
g102
ssg83
g2132
sg76
(lp2144
S':'
asbag69
(g90
g71
NtRp2145
(dp2146
g74
(dp2147
sg83
g2132
sg76
(lp2148
g69
(g70
g71
NtRp2149
(dp2150
g74
(dp2151
g82
I4
ssg83
g2145
sg76
(lp2152
g112
asbasbasbag69
(g85
g71
NtRp2153
(dp2154
g74
(dp2155
sg83
g1231
sg76
(lp2156
g69
(g90
g71
NtRp2157
(dp2158
g74
(dp2159
g94
g95
ssg83
g2153
sg76
(lp2160
S'wsgi_multithread'
p2161
asbag69
(g90
g71
NtRp2162
(dp2163
g74
(dp2164
g101
g102
ssg83
g2153
sg76
(lp2165
S':'
asbag69
(g90
g71
NtRp2166
(dp2167
g74
(dp2168
sg83
g2153
sg76
(lp2169
g69
(g70
g71
NtRp2170
(dp2171
g74
(dp2172
g82
I4
ssg83
g2166
sg76
(lp2173
S'True'
p2174
asbasbasbag69
(g85
g71
NtRp2175
(dp2176
g74
(dp2177
sg83
g1231
sg76
(lp2178
g69
(g90
g71
NtRp2179
(dp2180
g74
(dp2181
g94
g95
ssg83
g2175
sg76
(lp2182
S'wsgi_run_once'
p2183
asbag69
(g90
g71
NtRp2184
(dp2185
g74
(dp2186
g101
g102
ssg83
g2175
sg76
(lp2187
S':'
asbag69
(g90
g71
NtRp2188
(dp2189
g74
(dp2190
sg83
g2175
sg76
(lp2191
g69
(g70
g71
NtRp2192
(dp2193
g74
(dp2194
g82
I4
ssg83
g2188
sg76
(lp2195
g112
asbasbasbag69
(g85
g71
NtRp2196
(dp2197
g74
(dp2198
sg83
g1231
sg76
(lp2199
g69
(g90
g71
NtRp2200
(dp2201
g74
(dp2202
g94
g95
ssg83
g2196
sg76
(lp2203
S'wsgi_url_scheme'
p2204
asbag69
(g90
g71
NtRp2205
(dp2206
g74
(dp2207
g101
g102
ssg83
g2196
sg76
(lp2208
S':'
asbag69
(g90
g71
NtRp2209
(dp2210
g74
(dp2211
sg83
g2196
sg76
(lp2212
g69
(g70
g71
NtRp2213
(dp2214
g74
(dp2215
g82
I4
ssg83
g2209
sg76
(lp2216
S'http'
p2217
asbasbasbag69
(g85
g71
NtRp2218
(dp2219
g74
(dp2220
sg83
g1231
sg76
(lp2221
g69
(g90
g71
NtRp2222
(dp2223
g74
(dp2224
g94
g95
ssg83
g2218
sg76
(lp2225
S'wsgi_version'
p2226
asbag69
(g90
g71
NtRp2227
(dp2228
g74
(dp2229
g101
g102
ssg83
g2218
sg76
(lp2230
S':'
asbag69
(g90
g71
NtRp2231
(dp2232
g74
(dp2233
sg83
g2218
sg76
(lp2234
g69
(g70
g71
NtRp2235
(dp2236
g74
(dp2237
g82
I4
ssg83
g2231
sg76
(lp2238
g69
(g78
g71
NtRp2239
(dp2240
g74
(dp2241
g82
I3
ssg83
Nsg76
(lp2242
g69
(g85
g71
NtRp2243
(dp2244
g74
(dp2245
sg83
g2239
sg76
(lp2246
g69
(g90
g71
NtRp2247
(dp2248
g74
(dp2249
sg83
g2243
sg76
(lp2250
g69
(g70
g71
NtRp2251
(dp2252
g74
(dp2253
g82
I3
ssg83
g2247
sg76
(lp2254
S'1'
asbasbasbag69
(g85
g71
NtRp2255
(dp2256
g74
(dp2257
sg83
g2239
sg76
(lp2258
g69
(g90
g71
NtRp2259
(dp2260
g74
(dp2261
sg83
g2255
sg76
(lp2262
g69
(g70
g71
NtRp2263
(dp2264
g74
(dp2265
g82
I3
ssg83
g2259
sg76
(lp2266
S'0'
asbasbasbasbasbasbasbasbasbasbasbag69
(g85
g71
NtRp2267
(dp2268
g74
(dp2269
sg83
g79
sg76
(lp2270
g69
(g90
g71
NtRp2271
(dp2272
g74
(dp2273
g94
g95
ssg83
g2267
sg76
(lp2274
S'extension'
p2275
asbag69
(g90
g71
NtRp2276
(dp2277
g74
(dp2278
g101
g102
ssg83
g2267
sg76
(lp2279
S':'
asbag69
(g90
g71
NtRp2280
(dp2281
g74
(dp2282
sg83
g2267
sg76
(lp2283
g69
(g70
g71
NtRp2284
(dp2285
g74
(dp2286
g82
I5
ssg83
g2280
sg76
(lp2287
S'html'
p2288
asbasbasbag69
(g85
g71
NtRp2289
(dp2290
g74
(dp2291
sg83
g79
sg76
(lp2292
g69
(g90
g71
NtRp2293
(dp2294
g74
(dp2295
g94
g95
ssg83
g2289
sg76
(lp2296
S'folder'
p2297
asbag69
(g90
g71
NtRp2298
(dp2299
g74
(dp2300
g101
g102
ssg83
g2289
sg76
(lp2301
S':'
asbag69
(g90
g71
NtRp2302
(dp2303
g74
(dp2304
sg83
g2289
sg76
(lp2305
g69
(g70
g71
NtRp2306
(dp2307
g74
(dp2308
g82
I5
ssg83
g2302
sg76
(lp2309
S'/home/darshan/web2py/applications/Garbage_Truck/'
p2310
asbasbasbag69
(g85
g71
NtRp2311
(dp2312
g74
(dp2313
sg83
g79
sg76
(lp2314
g69
(g90
g71
NtRp2315
(dp2316
g74
(dp2317
g94
g95
ssg83
g2311
sg76
(lp2318
S'function'
p2319
asbag69
(g90
g71
NtRp2320
(dp2321
g74
(dp2322
g101
g102
ssg83
g2311
sg76
(lp2323
S':'
asbag69
(g90
g71
NtRp2324
(dp2325
g74
(dp2326
sg83
g2311
sg76
(lp2327
g69
(g70
g71
NtRp2328
(dp2329
g74
(dp2330
g82
I5
ssg83
g2324
sg76
(lp2331
S'index'
p2332
asbasbasbag69
(g85
g71
NtRp2333
(dp2334
g74
(dp2335
sg83
g79
sg76
(lp2336
g69
(g90
g71
NtRp2337
(dp2338
g74
(dp2339
g94
g95
ssg83
g2333
sg76
(lp2340
S'get_vars'
p2341
asbag69
(g90
g71
NtRp2342
(dp2343
g74
(dp2344
g101
g102
ssg83
g2333
sg76
(lp2345
S':'
asbag69
(g90
g71
NtRp2346
(dp2347
g74
(dp2348
sg83
g2333
sg76
(lp2349
g69
(g70
g71
NtRp2350
(dp2351
g74
(dp2352
g82
I5
ssg83
g2346
sg76
(lp2353
g69
(g78
g71
NtRp2354
(dp2355
g74
(dp2356
g82
I4
ssg83
Nsg76
(lp2357
sbasbasbasbag69
(g85
g71
NtRp2358
(dp2359
g74
(dp2360
sg83
g79
sg76
(lp2361
g69
(g90
g71
NtRp2362
(dp2363
g74
(dp2364
g94
g95
ssg83
g2358
sg76
(lp2365
S'global_settings'
p2366
asbag69
(g90
g71
NtRp2367
(dp2368
g74
(dp2369
g101
g102
ssg83
g2358
sg76
(lp2370
S':'
asbag69
(g90
g71
NtRp2371
(dp2372
g74
(dp2373
sg83
g2358
sg76
(lp2374
g69
(g70
g71
NtRp2375
(dp2376
g74
(dp2377
g82
I5
ssg83
g2371
sg76
(lp2378
g69
(g78
g71
NtRp2379
(dp2380
g74
(dp2381
g82
I4
ssg83
Nsg76
(lp2382
g69
(g85
g71
NtRp2383
(dp2384
g74
(dp2385
sg83
g2379
sg76
(lp2386
g69
(g90
g71
NtRp2387
(dp2388
g74
(dp2389
g94
g95
ssg83
g2383
sg76
(lp2390
g1243
asbag69
(g90
g71
NtRp2391
(dp2392
g74
(dp2393
g101
g102
ssg83
g2383
sg76
(lp2394
S':'
asbag69
(g90
g71
NtRp2395
(dp2396
g74
(dp2397
sg83
g2383
sg76
(lp2398
g69
(g70
g71
NtRp2399
(dp2400
g74
(dp2401
g82
I4
ssg83
g2395
sg76
(lp2402
S"set(['/home/darshan/web2py/applications/Isas/', '/home/darshan/web2py/applications/examples/', '/home/darshan/web2py/applications/readit/', '/home/darshan/web2py/applications/admin/', '/home/darshan/web2py/applications/Garbage_Truck/', '/home/darshan/web2py/applications/welcome/', '/home/darshan/web2py/applications/isas/'])"
p2403
asbasbasbag69
(g85
g71
NtRp2404
(dp2405
g74
(dp2406
sg83
g2379
sg76
(lp2407
g69
(g90
g71
NtRp2408
(dp2409
g74
(dp2410
g94
g95
ssg83
g2404
sg76
(lp2411
g1265
asbag69
(g90
g71
NtRp2412
(dp2413
g74
(dp2414
g101
g102
ssg83
g2404
sg76
(lp2415
S':'
asbag69
(g90
g71
NtRp2416
(dp2417
g74
(dp2418
sg83
g2404
sg76
(lp2419
g69
(g70
g71
NtRp2420
(dp2421
g74
(dp2422
g82
I4
ssg83
g2416
sg76
(lp2423
g1278
asbasbasbag69
(g85
g71
NtRp2424
(dp2425
g74
(dp2426
sg83
g2379
sg76
(lp2427
g69
(g90
g71
NtRp2428
(dp2429
g74
(dp2430
g94
g95
ssg83
g2424
sg76
(lp2431
g1287
asbag69
(g90
g71
NtRp2432
(dp2433
g74
(dp2434
g101
g102
ssg83
g2424
sg76
(lp2435
S':'
asbag69
(g90
g71
NtRp2436
(dp2437
g74
(dp2438
sg83
g2424
sg76
(lp2439
g69
(g70
g71
NtRp2440
(dp2441
g74
(dp2442
g82
I4
ssg83
g2436
sg76
(lp2443
g69
(g78
g71
NtRp2444
(dp2445
g74
(dp2446
g82
I3
ssg83
Nsg76
(lp2447
sbasbasbasbag69
(g85
g71
NtRp2448
(dp2449
g74
(dp2450
sg83
g2379
sg76
(lp2451
g69
(g90
g71
NtRp2452
(dp2453
g74
(dp2454
g94
g95
ssg83
g2448
sg76
(lp2455
g1312
asbag69
(g90
g71
NtRp2456
(dp2457
g74
(dp2458
g101
g102
ssg83
g2448
sg76
(lp2459
S':'
asbag69
(g90
g71
NtRp2460
(dp2461
g74
(dp2462
sg83
g2448
sg76
(lp2463
g69
(g70
g71
NtRp2464
(dp2465
g74
(dp2466
g82
I4
ssg83
g2460
sg76
(lp2467
S"<Values at 0x7f92baaf7f80: {'verbose': False, 'ip': '127.0.0.1', 'with_scheduler': False, 'ips': [], 'shutdown_timeout': 5, 'taskbar': False, 'port': 8000, 'maxthreads': None, 'softcron': False, 'server_name': 'darshan-Inspiron-5520', 'bpython': False, 'nogui': False, 'pid_filename': 'httpserver.pid', 'extcron': False, 'runcron': False, 'run_system_tests': False, 'test': None, 'folder': '/home/darshan/web2py', 'config': '', 'minthreads': None, 'winservice': '', 'shell': None, 'run': '', 'log_filename': 'httpserver.log', 'debuglevel': 30, 'args': [''], 'socket_timeout': 5, 'ssl_ca_certificate': None, 'scheduler': None, 'profiler_filename': None, 'ssl_private_key': '', 'scheduler_groups': None, 'password': '<ask>', 'request_queue_size': 5, 'ssl_certificate': '', 'cronjob': False, 'numthreads': None, 'quiet': False, 'interfaces': None, 'import_models': False, 'timeout': 10, 'plain': False, 'nobanner': False}>"
p2468
asbasbasbag69
(g85
g71
NtRp2469
(dp2470
g74
(dp2471
sg83
g2379
sg76
(lp2472
g69
(g90
g71
NtRp2473
(dp2474
g74
(dp2475
g94
g95
ssg83
g2469
sg76
(lp2476
g1334
asbag69
(g90
g71
NtRp2477
(dp2478
g74
(dp2479
g101
g102
ssg83
g2469
sg76
(lp2480
S':'
asbag69
(g90
g71
NtRp2481
(dp2482
g74
(dp2483
sg83
g2469
sg76
(lp2484
g69
(g70
g71
NtRp2485
(dp2486
g74
(dp2487
g82
I4
ssg83
g2481
sg76
(lp2488
S'set([])'
p2489
asbasbasbag69
(g85
g71
NtRp2490
(dp2491
g74
(dp2492
sg83
g2379
sg76
(lp2493
g69
(g90
g71
NtRp2494
(dp2495
g74
(dp2496
g94
g95
ssg83
g2490
sg76
(lp2497
g1356
asbag69
(g90
g71
NtRp2498
(dp2499
g74
(dp2500
g101
g102
ssg83
g2490
sg76
(lp2501
S':'
asbag69
(g90
g71
NtRp2502
(dp2503
g74
(dp2504
sg83
g2490
sg76
(lp2505
g69
(g70
g71
NtRp2506
(dp2507
g74
(dp2508
g82
I4
ssg83
g2502
sg76
(lp2509
g112
asbasbasbag69
(g85
g71
NtRp2510
(dp2511
g74
(dp2512
sg83
g2379
sg76
(lp2513
g69
(g90
g71
NtRp2514
(dp2515
g74
(dp2516
g94
g95
ssg83
g2510
sg76
(lp2517
g1377
asbag69
(g90
g71
NtRp2518
(dp2519
g74
(dp2520
g101
g102
ssg83
g2510
sg76
(lp2521
S':'
asbag69
(g90
g71
NtRp2522
(dp2523
g74
(dp2524
sg83
g2510
sg76
(lp2525
g69
(g70
g71
NtRp2526
(dp2527
g74
(dp2528
g82
I4
ssg83
g2522
sg76
(lp2529
g1390
asbasbasbag69
(g85
g71
NtRp2530
(dp2531
g74
(dp2532
sg83
g2379
sg76
(lp2533
g69
(g90
g71
NtRp2534
(dp2535
g74
(dp2536
g94
g95
ssg83
g2530
sg76
(lp2537
g1596
asbag69
(g90
g71
NtRp2538
(dp2539
g74
(dp2540
g101
g102
ssg83
g2530
sg76
(lp2541
S':'
asbag69
(g90
g71
NtRp2542
(dp2543
g74
(dp2544
sg83
g2530
sg76
(lp2545
g69
(g70
g71
NtRp2546
(dp2547
g74
(dp2548
g82
I4
ssg83
g2542
sg76
(lp2549
g112
asbasbasbag69
(g85
g71
NtRp2550
(dp2551
g74
(dp2552
sg83
g2379
sg76
(lp2553
g69
(g90
g71
NtRp2554
(dp2555
g74
(dp2556
g94
g95
ssg83
g2550
sg76
(lp2557
g1617
asbag69
(g90
g71
NtRp2558
(dp2559
g74
(dp2560
g101
g102
ssg83
g2550
sg76
(lp2561
S':'
asbag69
(g90
g71
NtRp2562
(dp2563
g74
(dp2564
sg83
g2550
sg76
(lp2565
g69
(g70
g71
NtRp2566
(dp2567
g74
(dp2568
g82
I4
ssg83
g2562
sg76
(lp2569
g112
asbasbasbag69
(g85
g71
NtRp2570
(dp2571
g74
(dp2572
sg83
g2379
sg76
(lp2573
g69
(g90
g71
NtRp2574
(dp2575
g74
(dp2576
g94
g95
ssg83
g2570
sg76
(lp2577
g1638
asbag69
(g90
g71
NtRp2578
(dp2579
g74
(dp2580
g101
g102
ssg83
g2570
sg76
(lp2581
S':'
asbag69
(g90
g71
NtRp2582
(dp2583
g74
(dp2584
sg83
g2570
sg76
(lp2585
g69
(g70
g71
NtRp2586
(dp2587
g74
(dp2588
g82
I4
ssg83
g2582
sg76
(lp2589
g69
(g78
g71
NtRp2590
(dp2591
g74
(dp2592
g82
I3
ssg83
Nsg76
(lp2593
g69
(g85
g71
NtRp2594
(dp2595
g74
(dp2596
sg83
g2590
sg76
(lp2597
g69
(g90
g71
NtRp2598
(dp2599
g74
(dp2600
sg83
g2594
sg76
(lp2601
g69
(g70
g71
NtRp2602
(dp2603
g74
(dp2604
g82
I3
ssg83
g2598
sg76
(lp2605
g1667
asbasbasbag69
(g85
g71
NtRp2606
(dp2607
g74
(dp2608
sg83
g2590
sg76
(lp2609
g69
(g90
g71
NtRp2610
(dp2611
g74
(dp2612
sg83
g2606
sg76
(lp2613
g69
(g70
g71
NtRp2614
(dp2615
g74
(dp2616
g82
I3
ssg83
g2610
sg76
(lp2617
g1680
asbasbasbag69
(g85
g71
NtRp2618
(dp2619
g74
(dp2620
sg83
g2590
sg76
(lp2621
g69
(g90
g71
NtRp2622
(dp2623
g74
(dp2624
sg83
g2618
sg76
(lp2625
g69
(g70
g71
NtRp2626
(dp2627
g74
(dp2628
g82
I3
ssg83
g2622
sg76
(lp2629
g1693
asbasbasbag69
(g85
g71
NtRp2630
(dp2631
g74
(dp2632
sg83
g2590
sg76
(lp2633
g69
(g90
g71
NtRp2634
(dp2635
g74
(dp2636
sg83
g2630
sg76
(lp2637
g69
(g70
g71
NtRp2638
(dp2639
g74
(dp2640
g82
I3
ssg83
g2634
sg76
(lp2641
g1706
asbasbasbag69
(g85
g71
NtRp2642
(dp2643
g74
(dp2644
sg83
g2590
sg76
(lp2645
g69
(g90
g71
NtRp2646
(dp2647
g74
(dp2648
sg83
g2642
sg76
(lp2649
g69
(g70
g71
NtRp2650
(dp2651
g74
(dp2652
g82
I3
ssg83
g2646
sg76
(lp2653
g1719
asbasbasbasbasbasbasbag69
(g85
g71
NtRp2654
(dp2655
g74
(dp2656
sg83
g2379
sg76
(lp2657
g69
(g90
g71
NtRp2658
(dp2659
g74
(dp2660
g94
g95
ssg83
g2654
sg76
(lp2661
g1987
asbag69
(g90
g71
NtRp2662
(dp2663
g74
(dp2664
g101
g102
ssg83
g2654
sg76
(lp2665
S':'
asbag69
(g90
g71
NtRp2666
(dp2667
g74
(dp2668
sg83
g2654
sg76
(lp2669
g69
(g70
g71
NtRp2670
(dp2671
g74
(dp2672
g82
I4
ssg83
g2666
sg76
(lp2673
g69
(g78
g71
NtRp2674
(dp2675
g74
(dp2676
g82
I3
ssg83
Nsg76
(lp2677
g69
(g85
g71
NtRp2678
(dp2679
g74
(dp2680
sg83
g2674
sg76
(lp2681
g69
(g90
g71
NtRp2682
(dp2683
g74
(dp2684
sg83
g2678
sg76
(lp2685
g69
(g70
g71
NtRp2686
(dp2687
g74
(dp2688
g82
I3
ssg83
g2682
sg76
(lp2689
S'2'
asbasbasbag69
(g85
g71
NtRp2690
(dp2691
g74
(dp2692
sg83
g2674
sg76
(lp2693
g69
(g90
g71
NtRp2694
(dp2695
g74
(dp2696
sg83
g2690
sg76
(lp2697
g69
(g70
g71
NtRp2698
(dp2699
g74
(dp2700
g82
I3
ssg83
g2694
sg76
(lp2701
S'3'
asbasbasbag69
(g85
g71
NtRp2702
(dp2703
g74
(dp2704
sg83
g2674
sg76
(lp2705
g69
(g90
g71
NtRp2706
(dp2707
g74
(dp2708
sg83
g2702
sg76
(lp2709
g69
(g70
g71
NtRp2710
(dp2711
g74
(dp2712
g82
I3
ssg83
g2706
sg76
(lp2713
S'2'
asbasbasbag69
(g85
g71
NtRp2714
(dp2715
g74
(dp2716
sg83
g2674
sg76
(lp2717
g69
(g90
g71
NtRp2718
(dp2719
g74
(dp2720
sg83
g2714
sg76
(lp2721
g69
(g70
g71
NtRp2722
(dp2723
g74
(dp2724
g82
I3
ssg83
g2718
sg76
(lp2725
S'datetime.datetime(2012, 12, 17, 15, 3, 30)'
p2726
asbasbasbag69
(g85
g71
NtRp2727
(dp2728
g74
(dp2729
sg83
g2674
sg76
(lp2730
g69
(g90
g71
NtRp2731
(dp2732
g74
(dp2733
sg83
g2727
sg76
(lp2734
g69
(g70
g71
NtRp2735
(dp2736
g74
(dp2737
g82
I3
ssg83
g2731
sg76
(lp2738
g2065
asbasbasbasbasbasbasbasbasbasbasbag69
(g85
g71
NtRp2739
(dp2740
g74
(dp2741
sg83
g79
sg76
(lp2742
g69
(g90
g71
NtRp2743
(dp2744
g74
(dp2745
g94
g95
ssg83
g2739
sg76
(lp2746
S'is_https'
p2747
asbag69
(g90
g71
NtRp2748
(dp2749
g74
(dp2750
g101
g102
ssg83
g2739
sg76
(lp2751
S':'
asbag69
(g90
g71
NtRp2752
(dp2753
g74
(dp2754
sg83
g2739
sg76
(lp2755
g69
(g70
g71
NtRp2756
(dp2757
g74
(dp2758
g82
I5
ssg83
g2752
sg76
(lp2759
g112
asbasbasbag69
(g85
g71
NtRp2760
(dp2761
g74
(dp2762
sg83
g79
sg76
(lp2763
g69
(g90
g71
NtRp2764
(dp2765
g74
(dp2766
g94
g95
ssg83
g2760
sg76
(lp2767
S'is_local'
p2768
asbag69
(g90
g71
NtRp2769
(dp2770
g74
(dp2771
g101
g102
ssg83
g2760
sg76
(lp2772
S':'
asbag69
(g90
g71
NtRp2773
(dp2774
g74
(dp2775
sg83
g2760
sg76
(lp2776
g69
(g70
g71
NtRp2777
(dp2778
g74
(dp2779
g82
I5
ssg83
g2773
sg76
(lp2780
g2174
asbasbasbag69
(g85
g71
NtRp2781
(dp2782
g74
(dp2783
sg83
g79
sg76
(lp2784
g69
(g90
g71
NtRp2785
(dp2786
g74
(dp2787
g94
g95
ssg83
g2781
sg76
(lp2788
S'is_restful'
p2789
asbag69
(g90
g71
NtRp2790
(dp2791
g74
(dp2792
g101
g102
ssg83
g2781
sg76
(lp2793
S':'
asbag69
(g90
g71
NtRp2794
(dp2795
g74
(dp2796
sg83
g2781
sg76
(lp2797
g69
(g70
g71
NtRp2798
(dp2799
g74
(dp2800
g82
I5
ssg83
g2794
sg76
(lp2801
g112
asbasbasbag69
(g85
g71
NtRp2802
(dp2803
g74
(dp2804
sg83
g79
sg76
(lp2805
g69
(g90
g71
NtRp2806
(dp2807
g74
(dp2808
g94
g95
ssg83
g2802
sg76
(lp2809
S'now'
p2810
asbag69
(g90
g71
NtRp2811
(dp2812
g74
(dp2813
g101
g102
ssg83
g2802
sg76
(lp2814
S':'
asbag69
(g90
g71
NtRp2815
(dp2816
g74
(dp2817
sg83
g2802
sg76
(lp2818
g69
(g70
g71
NtRp2819
(dp2820
g74
(dp2821
g82
I5
ssg83
g2815
sg76
(lp2822
S'datetime.datetime(2014, 9, 28, 0, 38, 28, 760282)'
p2823
asbasbasbag69
(g85
g71
NtRp2824
(dp2825
g74
(dp2826
sg83
g79
sg76
(lp2827
g69
(g90
g71
NtRp2828
(dp2829
g74
(dp2830
g94
g95
ssg83
g2824
sg76
(lp2831
S'post_vars'
p2832
asbag69
(g90
g71
NtRp2833
(dp2834
g74
(dp2835
g101
g102
ssg83
g2824
sg76
(lp2836
S':'
asbag69
(g90
g71
NtRp2837
(dp2838
g74
(dp2839
sg83
g2824
sg76
(lp2840
g69
(g70
g71
NtRp2841
(dp2842
g74
(dp2843
g82
I5
ssg83
g2837
sg76
(lp2844
g69
(g78
g71
NtRp2845
(dp2846
g74
(dp2847
g82
I4
ssg83
Nsg76
(lp2848
sbasbasbasbag69
(g85
g71
NtRp2849
(dp2850
g74
(dp2851
sg83
g79
sg76
(lp2852
g69
(g90
g71
NtRp2853
(dp2854
g74
(dp2855
g94
g95
ssg83
g2849
sg76
(lp2856
S'raw_args'
p2857
asbag69
(g90
g71
NtRp2858
(dp2859
g74
(dp2860
g101
g102
ssg83
g2849
sg76
(lp2861
S':'
asbag69
(g90
g71
NtRp2862
(dp2863
g74
(dp2864
sg83
g2849
sg76
(lp2865
g69
(g70
g71
NtRp2866
(dp2867
g74
(dp2868
g82
I5
ssg83
g2862
sg76
(lp2869
S''
asbasbasbag69
(g85
g71
NtRp2870
(dp2871
g74
(dp2872
sg83
g79
sg76
(lp2873
g69
(g90
g71
NtRp2874
(dp2875
g74
(dp2876
g94
g95
ssg83
g2870
sg76
(lp2877
S'raw_extension'
p2878
asbag69
(g90
g71
NtRp2879
(dp2880
g74
(dp2881
g101
g102
ssg83
g2870
sg76
(lp2882
S':'
asbag69
(g90
g71
NtRp2883
(dp2884
g74
(dp2885
sg83
g2870
sg76
(lp2886
g69
(g70
g71
NtRp2887
(dp2888
g74
(dp2889
g82
I5
ssg83
g2883
sg76
(lp2890
S'None'
p2891
asbasbasbag69
(g85
g71
NtRp2892
(dp2893
g74
(dp2894
sg83
g79
sg76
(lp2895
g69
(g90
g71
NtRp2896
(dp2897
g74
(dp2898
g94
g95
ssg83
g2892
sg76
(lp2899
S'url'
p2900
asbag69
(g90
g71
NtRp2901
(dp2902
g74
(dp2903
g101
g102
ssg83
g2892
sg76
(lp2904
S':'
asbag69
(g90
g71
NtRp2905
(dp2906
g74
(dp2907
sg83
g2892
sg76
(lp2908
g69
(g70
g71
NtRp2909
(dp2910
g74
(dp2911
g82
I5
ssg83
g2905
sg76
(lp2912
g1741
asbasbasbag69
(g85
g71
NtRp2913
(dp2914
g74
(dp2915
sg83
g79
sg76
(lp2916
g69
(g90
g71
NtRp2917
(dp2918
g74
(dp2919
g94
g95
ssg83
g2913
sg76
(lp2920
S'utcnow'
p2921
asbag69
(g90
g71
NtRp2922
(dp2923
g74
(dp2924
g101
g102
ssg83
g2913
sg76
(lp2925
S':'
asbag69
(g90
g71
NtRp2926
(dp2927
g74
(dp2928
sg83
g2913
sg76
(lp2929
g69
(g70
g71
NtRp2930
(dp2931
g74
(dp2932
g82
I5
ssg83
g2926
sg76
(lp2933
S'datetime.datetime(2014, 9, 27, 19, 8, 28, 760329)'
p2934
asbasbasbag69
(g85
g71
NtRp2935
(dp2936
g74
(dp2937
sg83
g79
sg76
(lp2938
g69
(g90
g71
NtRp2939
(dp2940
g74
(dp2941
g94
g95
ssg83
g2935
sg76
(lp2942
S'uuid'
p2943
asbag69
(g90
g71
NtRp2944
(dp2945
g74
(dp2946
g101
g102
ssg83
g2935
sg76
(lp2947
S':'
asbag69
(g90
g71
NtRp2948
(dp2949
g74
(dp2950
sg83
g2935
sg76
(lp2951
g69
(g70
g71
NtRp2952
(dp2953
g74
(dp2954
g82
I5
ssg83
g2948
sg76
(lp2955
S'Garbage_Truck/127.0.0.1.2014-09-28.00-38-28.fb3cac4d-0a47-4007-8d28-629b4586e8da'
p2956
asbasbasbag69
(g85
g71
NtRp2957
(dp2958
g74
(dp2959
sg83
g79
sg76
(lp2960
g69
(g90
g71
NtRp2961
(dp2962
g74
(dp2963
g94
g95
ssg83
g2957
sg76
(lp2964
S'vars'
p2965
asbag69
(g90
g71
NtRp2966
(dp2967
g74
(dp2968
g101
g102
ssg83
g2957
sg76
(lp2969
S':'
asbag69
(g90
g71
NtRp2970
(dp2971
g74
(dp2972
sg83
g2957
sg76
(lp2973
g69
(g70
g71
NtRp2974
(dp2975
g74
(dp2976
g82
I5
ssg83
g2970
sg76
(lp2977
g69
(g78
g71
NtRp2978
(dp2979
g74
(dp2980
g82
I4
ssg83
Nsg76
(lp2981
sbasbasbasbag69
(g85
g71
NtRp2982
(dp2983
g74
(dp2984
sg83
g79
sg76
(lp2985
g69
(g90
g71
NtRp2986
(dp2987
g74
(dp2988
g94
g95
ssg83
g2982
sg76
(lp2989
S'wsgi'
p2990
asbag69
(g90
g71
NtRp2991
(dp2992
g74
(dp2993
g101
g102
ssg83
g2982
sg76
(lp2994
S':'
asbag69
(g90
g71
NtRp2995
(dp2996
g74
(dp2997
sg83
g2982
sg76
(lp2998
g69
(g70
g71
NtRp2999
(dp3000
g74
(dp3001
g82
I5
ssg83
g2995
sg76
(lp3002
g69
(g78
g71
NtRp3003
(dp3004
g74
(dp3005
g82
I4
ssg83
Nsg76
(lp3006
g69
(g85
g71
NtRp3007
(dp3008
g74
(dp3009
sg83
g3003
sg76
(lp3010
g69
(g90
g71
NtRp3011
(dp3012
g74
(dp3013
g94
g95
ssg83
g3007
sg76
(lp3014
S'environ'
p3015
asbag69
(g90
g71
NtRp3016
(dp3017
g74
(dp3018
g101
g102
ssg83
g3007
sg76
(lp3019
S':'
asbag69
(g90
g71
NtRp3020
(dp3021
g74
(dp3022
sg83
g3007
sg76
(lp3023
g69
(g70
g71
NtRp3024
(dp3025
g74
(dp3026
g82
I4
ssg83
g3020
sg76
(lp3027
g69
(g78
g71
NtRp3028
(dp3029
g74
(dp3030
g82
I3
ssg83
Nsg76
(lp3031
g69
(g85
g71
NtRp3032
(dp3033
g74
(dp3034
sg83
g3028
sg76
(lp3035
g69
(g90
g71
NtRp3036
(dp3037
g74
(dp3038
g94
g95
ssg83
g3032
sg76
(lp3039
S'HTTP_ACCEPT'
p3040
asbag69
(g90
g71
NtRp3041
(dp3042
g74
(dp3043
g101
g102
ssg83
g3032
sg76
(lp3044
S':'
asbag69
(g90
g71
NtRp3045
(dp3046
g74
(dp3047
sg83
g3032
sg76
(lp3048
g69
(g70
g71
NtRp3049
(dp3050
g74
(dp3051
g82
I3
ssg83
g3045
sg76
(lp3052
g1412
asbasbasbag69
(g85
g71
NtRp3053
(dp3054
g74
(dp3055
sg83
g3028
sg76
(lp3056
g69
(g90
g71
NtRp3057
(dp3058
g74
(dp3059
g94
g95
ssg83
g3053
sg76
(lp3060
S'HTTP_ACCEPT_ENCODING'
p3061
asbag69
(g90
g71
NtRp3062
(dp3063
g74
(dp3064
g101
g102
ssg83
g3053
sg76
(lp3065
S':'
asbag69
(g90
g71
NtRp3066
(dp3067
g74
(dp3068
sg83
g3053
sg76
(lp3069
g69
(g70
g71
NtRp3070
(dp3071
g74
(dp3072
g82
I3
ssg83
g3066
sg76
(lp3073
g1434
asbasbasbag69
(g85
g71
NtRp3074
(dp3075
g74
(dp3076
sg83
g3028
sg76
(lp3077
g69
(g90
g71
NtRp3078
(dp3079
g74
(dp3080
g94
g95
ssg83
g3074
sg76
(lp3081
S'HTTP_ACCEPT_LANGUAGE'
p3082
asbag69
(g90
g71
NtRp3083
(dp3084
g74
(dp3085
g101
g102
ssg83
g3074
sg76
(lp3086
S':'
asbag69
(g90
g71
NtRp3087
(dp3088
g74
(dp3089
sg83
g3074
sg76
(lp3090
g69
(g70
g71
NtRp3091
(dp3092
g74
(dp3093
g82
I3
ssg83
g3087
sg76
(lp3094
g1456
asbasbasbag69
(g85
g71
NtRp3095
(dp3096
g74
(dp3097
sg83
g3028
sg76
(lp3098
g69
(g90
g71
NtRp3099
(dp3100
g74
(dp3101
g94
g95
ssg83
g3095
sg76
(lp3102
S'HTTP_CONNECTION'
p3103
asbag69
(g90
g71
NtRp3104
(dp3105
g74
(dp3106
g101
g102
ssg83
g3095
sg76
(lp3107
S':'
asbag69
(g90
g71
NtRp3108
(dp3109
g74
(dp3110
sg83
g3095
sg76
(lp3111
g69
(g70
g71
NtRp3112
(dp3113
g74
(dp3114
g82
I3
ssg83
g3108
sg76
(lp3115
g1478
asbasbasbag69
(g85
g71
NtRp3116
(dp3117
g74
(dp3118
sg83
g3028
sg76
(lp3119
g69
(g90
g71
NtRp3120
(dp3121
g74
(dp3122
g94
g95
ssg83
g3116
sg76
(lp3123
S'HTTP_COOKIE'
p3124
asbag69
(g90
g71
NtRp3125
(dp3126
g74
(dp3127
g101
g102
ssg83
g3116
sg76
(lp3128
S':'
asbag69
(g90
g71
NtRp3129
(dp3130
g74
(dp3131
sg83
g3116
sg76
(lp3132
g69
(g70
g71
NtRp3133
(dp3134
g74
(dp3135
g82
I3
ssg83
g3129
sg76
(lp3136
g1500
asbasbasbag69
(g85
g71
NtRp3137
(dp3138
g74
(dp3139
sg83
g3028
sg76
(lp3140
g69
(g90
g71
NtRp3141
(dp3142
g74
(dp3143
g94
g95
ssg83
g3137
sg76
(lp3144
S'HTTP_DNT'
p3145
asbag69
(g90
g71
NtRp3146
(dp3147
g74
(dp3148
g101
g102
ssg83
g3137
sg76
(lp3149
S':'
asbag69
(g90
g71
NtRp3150
(dp3151
g74
(dp3152
sg83
g3137
sg76
(lp3153
g69
(g70
g71
NtRp3154
(dp3155
g74
(dp3156
g82
I3
ssg83
g3150
sg76
(lp3157
S'1'
asbasbasbag69
(g85
g71
NtRp3158
(dp3159
g74
(dp3160
sg83
g3028
sg76
(lp3161
g69
(g90
g71
NtRp3162
(dp3163
g74
(dp3164
g94
g95
ssg83
g3158
sg76
(lp3165
S'HTTP_HOST'
p3166
asbag69
(g90
g71
NtRp3167
(dp3168
g74
(dp3169
g101
g102
ssg83
g3158
sg76
(lp3170
S':'
asbag69
(g90
g71
NtRp3171
(dp3172
g74
(dp3173
sg83
g3158
sg76
(lp3174
g69
(g70
g71
NtRp3175
(dp3176
g74
(dp3177
g82
I3
ssg83
g3171
sg76
(lp3178
g1543
asbasbasbag69
(g85
g71
NtRp3179
(dp3180
g74
(dp3181
sg83
g3028
sg76
(lp3182
g69
(g90
g71
NtRp3183
(dp3184
g74
(dp3185
g94
g95
ssg83
g3179
sg76
(lp3186
S'HTTP_REFERER'
p3187
asbag69
(g90
g71
NtRp3188
(dp3189
g74
(dp3190
g101
g102
ssg83
g3179
sg76
(lp3191
S':'
asbag69
(g90
g71
NtRp3192
(dp3193
g74
(dp3194
sg83
g3179
sg76
(lp3195
g69
(g70
g71
NtRp3196
(dp3197
g74
(dp3198
g82
I3
ssg83
g3192
sg76
(lp3199
g1565
asbasbasbag69
(g85
g71
NtRp3200
(dp3201
g74
(dp3202
sg83
g3028
sg76
(lp3203
g69
(g90
g71
NtRp3204
(dp3205
g74
(dp3206
g94
g95
ssg83
g3200
sg76
(lp3207
S'HTTP_USER_AGENT'
p3208
asbag69
(g90
g71
NtRp3209
(dp3210
g74
(dp3211
g101
g102
ssg83
g3200
sg76
(lp3212
S':'
asbag69
(g90
g71
NtRp3213
(dp3214
g74
(dp3215
sg83
g3200
sg76
(lp3216
g69
(g70
g71
NtRp3217
(dp3218
g74
(dp3219
g82
I3
ssg83
g3213
sg76
(lp3220
g1587
asbasbasbag69
(g85
g71
NtRp3221
(dp3222
g74
(dp3223
sg83
g3028
sg76
(lp3224
g69
(g90
g71
NtRp3225
(dp3226
g74
(dp3227
g94
g95
ssg83
g3221
sg76
(lp3228
S'PATH_INFO'
p3229
asbag69
(g90
g71
NtRp3230
(dp3231
g74
(dp3232
g101
g102
ssg83
g3221
sg76
(lp3233
S':'
asbag69
(g90
g71
NtRp3234
(dp3235
g74
(dp3236
sg83
g3221
sg76
(lp3237
g69
(g70
g71
NtRp3238
(dp3239
g74
(dp3240
g82
I3
ssg83
g3234
sg76
(lp3241
g1741
asbasbasbag69
(g85
g71
NtRp3242
(dp3243
g74
(dp3244
sg83
g3028
sg76
(lp3245
g69
(g90
g71
NtRp3246
(dp3247
g74
(dp3248
g94
g95
ssg83
g3242
sg76
(lp3249
S'QUERY_STRING'
p3250
asbag69
(g90
g71
NtRp3251
(dp3252
g74
(dp3253
g101
g102
ssg83
g3242
sg76
(lp3254
S':'
asbag69
(g90
g71
NtRp3255
(dp3256
g74
(dp3257
sg83
g3242
sg76
(lp3258
g69
(g70
g71
NtRp3259
(dp3260
g74
(dp3261
g82
I3
ssg83
g3255
sg76
(lp3262
S''
asbasbasbag69
(g85
g71
NtRp3263
(dp3264
g74
(dp3265
sg83
g3028
sg76
(lp3266
g69
(g90
g71
NtRp3267
(dp3268
g74
(dp3269
g94
g95
ssg83
g3263
sg76
(lp3270
S'REMOTE_ADDR'
p3271
asbag69
(g90
g71
NtRp3272
(dp3273
g74
(dp3274
g101
g102
ssg83
g3263
sg76
(lp3275
S':'
asbag69
(g90
g71
NtRp3276
(dp3277
g74
(dp3278
sg83
g3263
sg76
(lp3279
g69
(g70
g71
NtRp3280
(dp3281
g74
(dp3282
g82
I3
ssg83
g3276
sg76
(lp3283
g224
asbasbasbag69
(g85
g71
NtRp3284
(dp3285
g74
(dp3286
sg83
g3028
sg76
(lp3287
g69
(g90
g71
NtRp3288
(dp3289
g74
(dp3290
g94
g95
ssg83
g3284
sg76
(lp3291
S'REMOTE_PORT'
p3292
asbag69
(g90
g71
NtRp3293
(dp3294
g74
(dp3295
g101
g102
ssg83
g3284
sg76
(lp3296
S':'
asbag69
(g90
g71
NtRp3297
(dp3298
g74
(dp3299
sg83
g3284
sg76
(lp3300
g69
(g70
g71
NtRp3301
(dp3302
g74
(dp3303
g82
I3
ssg83
g3297
sg76
(lp3304
g1805
asbasbasbag69
(g85
g71
NtRp3305
(dp3306
g74
(dp3307
sg83
g3028
sg76
(lp3308
g69
(g90
g71
NtRp3309
(dp3310
g74
(dp3311
g94
g95
ssg83
g3305
sg76
(lp3312
S'REQUEST_METHOD'
p3313
asbag69
(g90
g71
NtRp3314
(dp3315
g74
(dp3316
g101
g102
ssg83
g3305
sg76
(lp3317
S':'
asbag69
(g90
g71
NtRp3318
(dp3319
g74
(dp3320
sg83
g3305
sg76
(lp3321
g69
(g70
g71
NtRp3322
(dp3323
g74
(dp3324
g82
I3
ssg83
g3318
sg76
(lp3325
g1827
asbasbasbag69
(g85
g71
NtRp3326
(dp3327
g74
(dp3328
sg83
g3028
sg76
(lp3329
g69
(g90
g71
NtRp3330
(dp3331
g74
(dp3332
g94
g95
ssg83
g3326
sg76
(lp3333
S'REQUEST_URI'
p3334
asbag69
(g90
g71
NtRp3335
(dp3336
g74
(dp3337
g101
g102
ssg83
g3326
sg76
(lp3338
S':'
asbag69
(g90
g71
NtRp3339
(dp3340
g74
(dp3341
sg83
g3326
sg76
(lp3342
g69
(g70
g71
NtRp3343
(dp3344
g74
(dp3345
g82
I3
ssg83
g3339
sg76
(lp3346
g1741
asbasbasbag69
(g85
g71
NtRp3347
(dp3348
g74
(dp3349
sg83
g3028
sg76
(lp3350
g69
(g90
g71
NtRp3351
(dp3352
g74
(dp3353
g94
g95
ssg83
g3347
sg76
(lp3354
S'SCRIPT_NAME'
p3355
asbag69
(g90
g71
NtRp3356
(dp3357
g74
(dp3358
g101
g102
ssg83
g3347
sg76
(lp3359
S':'
asbag69
(g90
g71
NtRp3360
(dp3361
g74
(dp3362
sg83
g3347
sg76
(lp3363
g69
(g70
g71
NtRp3364
(dp3365
g74
(dp3366
g82
I3
ssg83
g3360
sg76
(lp3367
S''
asbasbasbag69
(g85
g71
NtRp3368
(dp3369
g74
(dp3370
sg83
g3028
sg76
(lp3371
g69
(g90
g71
NtRp3372
(dp3373
g74
(dp3374
g94
g95
ssg83
g3368
sg76
(lp3375
S'SERVER_NAME'
p3376
asbag69
(g90
g71
NtRp3377
(dp3378
g74
(dp3379
g101
g102
ssg83
g3368
sg76
(lp3380
S':'
asbag69
(g90
g71
NtRp3381
(dp3382
g74
(dp3383
sg83
g3368
sg76
(lp3384
g69
(g70
g71
NtRp3385
(dp3386
g74
(dp3387
g82
I3
ssg83
g3381
sg76
(lp3388
g1891
asbasbasbag69
(g85
g71
NtRp3389
(dp3390
g74
(dp3391
sg83
g3028
sg76
(lp3392
g69
(g90
g71
NtRp3393
(dp3394
g74
(dp3395
g94
g95
ssg83
g3389
sg76
(lp3396
S'SERVER_PORT'
p3397
asbag69
(g90
g71
NtRp3398
(dp3399
g74
(dp3400
g101
g102
ssg83
g3389
sg76
(lp3401
S':'
asbag69
(g90
g71
NtRp3402
(dp3403
g74
(dp3404
sg83
g3389
sg76
(lp3405
g69
(g70
g71
NtRp3406
(dp3407
g74
(dp3408
g82
I3
ssg83
g3402
sg76
(lp3409
g1913
asbasbasbag69
(g85
g71
NtRp3410
(dp3411
g74
(dp3412
sg83
g3028
sg76
(lp3413
g69
(g90
g71
NtRp3414
(dp3415
g74
(dp3416
g94
g95
ssg83
g3410
sg76
(lp3417
S'SERVER_PROTOCOL'
p3418
asbag69
(g90
g71
NtRp3419
(dp3420
g74
(dp3421
g101
g102
ssg83
g3410
sg76
(lp3422
S':'
asbag69
(g90
g71
NtRp3423
(dp3424
g74
(dp3425
sg83
g3410
sg76
(lp3426
g69
(g70
g71
NtRp3427
(dp3428
g74
(dp3429
g82
I3
ssg83
g3423
sg76
(lp3430
g1935
asbasbasbag69
(g85
g71
NtRp3431
(dp3432
g74
(dp3433
sg83
g3028
sg76
(lp3434
g69
(g90
g71
NtRp3435
(dp3436
g74
(dp3437
g94
g95
ssg83
g3431
sg76
(lp3438
S'SERVER_SOFTWARE'
p3439
asbag69
(g90
g71
NtRp3440
(dp3441
g74
(dp3442
g101
g102
ssg83
g3431
sg76
(lp3443
S':'
asbag69
(g90
g71
NtRp3444
(dp3445
g74
(dp3446
sg83
g3431
sg76
(lp3447
g69
(g70
g71
NtRp3448
(dp3449
g74
(dp3450
g82
I3
ssg83
g3444
sg76
(lp3451
g1957
asbasbasbag69
(g85
g71
NtRp3452
(dp3453
g74
(dp3454
sg83
g3028
sg76
(lp3455
g69
(g90
g71
NtRp3456
(dp3457
g74
(dp3458
g94
g95
ssg83
g3452
sg76
(lp3459
S'wsgi.errors'
p3460
asbag69
(g90
g71
NtRp3461
(dp3462
g74
(dp3463
g101
g102
ssg83
g3452
sg76
(lp3464
S':'
asbag69
(g90
g71
NtRp3465
(dp3466
g74
(dp3467
sg83
g3452
sg76
(lp3468
g69
(g70
g71
NtRp3469
(dp3470
g74
(dp3471
g82
I3
ssg83
g3465
sg76
(lp3472
S"<open file '<stderr>', mode 'w' at 0x7f92c1bb41e0>"
p3473
asbasbasbag69
(g85
g71
NtRp3474
(dp3475
g74
(dp3476
sg83
g3028
sg76
(lp3477
g69
(g90
g71
NtRp3478
(dp3479
g74
(dp3480
g94
g95
ssg83
g3474
sg76
(lp3481
S'wsgi.file_wrapper'
p3482
asbag69
(g90
g71
NtRp3483
(dp3484
g74
(dp3485
g101
g102
ssg83
g3474
sg76
(lp3486
S':'
asbag69
(g90
g71
NtRp3487
(dp3488
g74
(dp3489
sg83
g3474
sg76
(lp3490
g69
(g70
g71
NtRp3491
(dp3492
g74
(dp3493
g82
I3
ssg83
g3487
sg76
(lp3494
S'<class wsgiref.util.FileWrapper at 0x7f92bab98808>'
p3495
asbasbasbag69
(g85
g71
NtRp3496
(dp3497
g74
(dp3498
sg83
g3028
sg76
(lp3499
g69
(g90
g71
NtRp3500
(dp3501
g74
(dp3502
g94
g95
ssg83
g3496
sg76
(lp3503
S'wsgi.input'
p3504
asbag69
(g90
g71
NtRp3505
(dp3506
g74
(dp3507
g101
g102
ssg83
g3496
sg76
(lp3508
S':'
asbag69
(g90
g71
NtRp3509
(dp3510
g74
(dp3511
sg83
g3496
sg76
(lp3512
g69
(g70
g71
NtRp3513
(dp3514
g74
(dp3515
g82
I3
ssg83
g3509
sg76
(lp3516
S'<cStringIO.StringO object at 0x7f92a83f0dc0>'
p3517
asbasbasbag69
(g85
g71
NtRp3518
(dp3519
g74
(dp3520
sg83
g3028
sg76
(lp3521
g69
(g90
g71
NtRp3522
(dp3523
g74
(dp3524
g94
g95
ssg83
g3518
sg76
(lp3525
S'wsgi.multiprocess'
p3526
asbag69
(g90
g71
NtRp3527
(dp3528
g74
(dp3529
g101
g102
ssg83
g3518
sg76
(lp3530
S':'
asbag69
(g90
g71
NtRp3531
(dp3532
g74
(dp3533
sg83
g3518
sg76
(lp3534
g69
(g70
g71
NtRp3535
(dp3536
g74
(dp3537
g82
I3
ssg83
g3531
sg76
(lp3538
g112
asbasbasbag69
(g85
g71
NtRp3539
(dp3540
g74
(dp3541
sg83
g3028
sg76
(lp3542
g69
(g90
g71
NtRp3543
(dp3544
g74
(dp3545
g94
g95
ssg83
g3539
sg76
(lp3546
S'wsgi.multithread'
p3547
asbag69
(g90
g71
NtRp3548
(dp3549
g74
(dp3550
g101
g102
ssg83
g3539
sg76
(lp3551
S':'
asbag69
(g90
g71
NtRp3552
(dp3553
g74
(dp3554
sg83
g3539
sg76
(lp3555
g69
(g70
g71
NtRp3556
(dp3557
g74
(dp3558
g82
I3
ssg83
g3552
sg76
(lp3559
g2174
asbasbasbag69
(g85
g71
NtRp3560
(dp3561
g74
(dp3562
sg83
g3028
sg76
(lp3563
g69
(g90
g71
NtRp3564
(dp3565
g74
(dp3566
g94
g95
ssg83
g3560
sg76
(lp3567
S'wsgi.run_once'
p3568
asbag69
(g90
g71
NtRp3569
(dp3570
g74
(dp3571
g101
g102
ssg83
g3560
sg76
(lp3572
S':'
asbag69
(g90
g71
NtRp3573
(dp3574
g74
(dp3575
sg83
g3560
sg76
(lp3576
g69
(g70
g71
NtRp3577
(dp3578
g74
(dp3579
g82
I3
ssg83
g3573
sg76
(lp3580
g112
asbasbasbag69
(g85
g71
NtRp3581
(dp3582
g74
(dp3583
sg83
g3028
sg76
(lp3584
g69
(g90
g71
NtRp3585
(dp3586
g74
(dp3587
g94
g95
ssg83
g3581
sg76
(lp3588
S'wsgi.url_scheme'
p3589
asbag69
(g90
g71
NtRp3590
(dp3591
g74
(dp3592
g101
g102
ssg83
g3581
sg76
(lp3593
S':'
asbag69
(g90
g71
NtRp3594
(dp3595
g74
(dp3596
sg83
g3581
sg76
(lp3597
g69
(g70
g71
NtRp3598
(dp3599
g74
(dp3600
g82
I3
ssg83
g3594
sg76
(lp3601
g2217
asbasbasbag69
(g85
g71
NtRp3602
(dp3603
g74
(dp3604
sg83
g3028
sg76
(lp3605
g69
(g90
g71
NtRp3606
(dp3607
g74
(dp3608
g94
g95
ssg83
g3602
sg76
(lp3609
S'wsgi.version'
p3610
asbag69
(g90
g71
NtRp3611
(dp3612
g74
(dp3613
g101
g102
ssg83
g3602
sg76
(lp3614
S':'
asbag69
(g90
g71
NtRp3615
(dp3616
g74
(dp3617
sg83
g3602
sg76
(lp3618
g69
(g70
g71
NtRp3619
(dp3620
g74
(dp3621
g82
I3
ssg83
g3615
sg76
(lp3622
S'1'
asbasbasbasbasbasbasbasbasbasbasbasbasbsS'frames'
p3623
(lp3624
(dp3625
S'file'
p3626
S'/home/darshan/web2py/gluon/restricted.py'
p3627
sS'dump'
p3628
(dp3629
S'environment'
p3630
S"{'A': <class 'gluon.html.A'>, 'Auth': <class 'gluon.tools.Auth'>, 'B': <class 'gluon.html.B'>, 'BEAUTIFY': <class 'gluon.html.BEAUTIFY'>, 'BODY': <class 'gluon.html.BODY'>, 'BR': <class 'gluon.html.BR'>, 'BUTTON': <class 'gluon.html.BUTTON'>, 'CAT': <class 'gluon.html.CAT'>, 'CENTER': <class 'gluon.html.CENTER'>, 'CLEANUP': <class 'gluon.validators.CLEANUP'>, ...}"
p3631
sS'ccode'
p3632
S'<code object <module> at 0x7f92a8412030, file "/...pplications/Garbage_Truck/models/db.py", line 12>'
p3633
ssS'lnum'
p3634
I212
sS'lines'
p3635
(dp3636
I207
S'    try:'
p3637
sI208
S'        if isinstance(code, types.CodeType):'
p3638
sI209
S'            ccode = code'
p3639
sI210
S'        else:'
p3640
sI211
S'            ccode = compile2(code, layer)'
p3641
sI212
S'        exec ccode in environment'
p3642
sI213
S'    except HTTP:'
p3643
sI214
S'        raise'
p3644
sI215
S'    except RestrictedError:'
p3645
sI216
S'        # do not encapsulate (obfuscate) the original RestrictedError'
p3646
ssS'call'
p3647
S'(code="# -*- coding: utf-8 -*-\\n\\n#######################...eld(\'area\',\'string\'),\\n   Field(\'name\',\'string\'))\\n", environment={\'A\': <class \'gluon.html.A\'>, \'Auth\': <class \'gluon.tools.Auth\'>, \'B\': <class \'gluon.html.B\'>, \'BEAUTIFY\': <class \'gluon.html.BEAUTIFY\'>, \'BODY\': <class \'gluon.html.BODY\'>, \'BR\': <class \'gluon.html.BR\'>, \'BUTTON\': <class \'gluon.html.BUTTON\'>, \'CAT\': <class \'gluon.html.CAT\'>, \'CENTER\': <class \'gluon.html.CENTER\'>, \'CLEANUP\': <class \'gluon.validators.CLEANUP\'>, ...}, layer=\'/home/darshan/web2py/applications/Garbage_Truck/models/db.py\')'
p3648
sS'func'
p3649
S'restricted'
p3650
sa(dp3651
g3626
S'/home/darshan/web2py/applications/Garbage_Truck/models/db.py'
p3652
sg3628
(dp3653
S'IS_NOT_EMPTY'
p3654
S"<class 'gluon.validators.IS_NOT_EMPTY'>"
p3655
sS'Field'
p3656
S"<class 'gluon.dal.Field'>"
p3657
sS'requires'
p3658
S'undefined'
p3659
ssg3634
I95
sg3635
(dp3660
I96
S''
sI97
S"db.define_table('report_present',"
p3661
sI98
S"   Field('user_id',db.auth_user,requires=IS_IN_DB(db,'auth_user.id','auth_user.first_name')),"
p3662
sI99
S"   #Field('status',requires=IS_IN_SET(['1','2','3','4','5'])),"
p3663
sI90
S"    Field('house_no','string',requires=IS_NOT_EMPTY()),"
p3664
sI91
S"    Field('street','string'),"
p3665
sI92
S"    Field('location','string',requires=IS_NOT_EMPTY()),"
p3666
sI93
S"    Field('state','string',default='Telangana',requires=IS_NOT_EMPTY()),"
p3667
sI94
S"    Field('pin','integer',requires=IS_NOT_EMPTY()),"
p3668
sI95
S"    Field('phone','integer',requires=IS_NOT_EMPTY()))"
p3669
ssg3647
S'()'
p3670
sg3649
S'<module>'
p3671
sa(dp3672
g3626
S'/home/darshan/web2py/gluon/dal.py'
p3673
sg3628
(dp3674
S'fields'
p3675
S'(<gluon.dal.Field object>, <gluon.dal.Field object>, <gluon.dal.Field object>, <gluon.dal.Field object>, <gluon.dal.Field object>, <gluon.dal.Field object>, <gluon.dal.Field object>, <gluon.dal.Field object>, <gluon.dal.Field object>, <gluon.dal.Field object>)'
p3676
sS'self'
p3677
S'<DAL uri="sqlite://storage.sqlite">'
p3678
sS'args'
p3679
g21
sS'tablename'
p3680
S"'consumer'"
p3681
sS'table'
p3682
g3659
sS'self.lazy_define_table'
p3683
S'<bound method DAL.lazy_define_table of <DAL uri="sqlite://storage.sqlite">>'
p3684
ssg3634
I7186
sg3635
(dp3685
I7181
S'                    % (tablename,invalid_args))'
p3686
sI7182
S'        if self._lazy_tables and not tablename in self._LAZY_TABLES:'
p3687
sI7183
S'            self._LAZY_TABLES[tablename] = (tablename,fields,args)'
p3688
sI7184
S'            table = None'
p3689
sI7185
S'        else:'
p3690
sI7186
S'            table = self.lazy_define_table(tablename,*fields,**args)'
p3691
sI7187
S'        if not tablename in self.tables:'
p3692
sI7188
S'            self.tables.append(tablename)'
p3693
sI7189
S'        return table'
p3694
sI7190
S''
ssg3647
S'(self=<DAL uri="sqlite://storage.sqlite">, tablename=\'consumer\', *fields=(<gluon.dal.Field object>, <gluon.dal.Field object>, <gluon.dal.Field object>, <gluon.dal.Field object>, <gluon.dal.Field object>, <gluon.dal.Field object>, <gluon.dal.Field object>, <gluon.dal.Field object>, <gluon.dal.Field object>, <gluon.dal.Field object>), **args={})'
p3695
sg3649
S'define_table'
p3696
sa(dp3697
g3626
S'/home/darshan/web2py/gluon/dal.py'
p3698
sg3628
(dp3699
S'fields'
p3700
S'(<gluon.dal.Field object>, <gluon.dal.Field object>, <gluon.dal.Field object>, <gluon.dal.Field object>, <gluon.dal.Field object>, <gluon.dal.Field object>, <gluon.dal.Field object>, <gluon.dal.Field object>, <gluon.dal.Field object>, <gluon.dal.Field object>)'
p3701
sS'self'
p3702
S'<DAL uri="sqlite://storage.sqlite">'
p3703
sS'args'
p3704
g21
sS'tablename'
p3705
S"'consumer'"
p3706
sS'table_class'
p3707
S"<class 'gluon.dal.Table'>"
p3708
sS'table'
p3709
g3659
ssg3634
I7203
sg3635
(dp3710
I7200
S'            fields = list(fields) + list(common_fields)'
p3711
sI7201
S''
sI7202
S"        table_class = args_get('table_class',Table)"
p3712
sI7203
S'        table = table_class(self, tablename, *fields, **args)'
p3713
sI7204
S'        table._actual = True'
p3714
sI7205
S'        self[tablename] = table'
p3715
sI7206
S'        # must follow above line to handle self references'
p3716
sI7207
S'        table._create_references()'
p3717
sI7198
S'        common_fields = self._common_fields'
p3718
sI7199
S'        if common_fields:'
p3719
ssg3647
S'(self=<DAL uri="sqlite://storage.sqlite">, tablename=\'consumer\', *fields=(<gluon.dal.Field object>, <gluon.dal.Field object>, <gluon.dal.Field object>, <gluon.dal.Field object>, <gluon.dal.Field object>, <gluon.dal.Field object>, <gluon.dal.Field object>, <gluon.dal.Field object>, <gluon.dal.Field object>, <gluon.dal.Field object>), **args={})'
p3720
sg3649
S'lazy_define_table'
p3721
sa(dp3722
g3626
S'/home/darshan/web2py/gluon/dal.py'
p3723
sg3628
(dp3724
S'field_name'
p3725
S"'location'"
p3726
sS'db.check_reserved_keyword'
p3727
S'<bound method DAL.check_reserved_keyword of <DAL uri="sqlite://storage.sqlite">>'
p3728
sS'db'
p3729
S'<DAL uri="sqlite://storage.sqlite">'
p3730
ssg3634
I7609
sg3635
(dp3731
I7604
S'        lower_fieldnames = set()'
p3732
sI7605
S"        reserved = dir(Table) + ['fields']"
p3733
sI7606
S'        for field in fields:'
p3734
sI7607
S'            field_name = field.name'
p3735
sI7608
S'            if db and db.check_reserved:'
p3736
sI7609
S'                db.check_reserved_keyword(field_name)'
p3737
sI7610
S'            elif field_name in reserved:'
p3738
sI7611
S'                raise SyntaxError("field name %s not allowed" % field_name)'
p3739
sI7612
S''
sI7613
S'            if field_name.lower() in lower_fieldnames:'
p3740
ssg3647
S'(self=<Table consumer (id,user_id,dob,gender,occupation,house_no,street)>, db=<DAL uri="sqlite://storage.sqlite">, tablename=\'consumer\', *fields=[<gluon.dal.Field object>, <gluon.dal.Field object>, <gluon.dal.Field object>, <gluon.dal.Field object>, <gluon.dal.Field object>, <gluon.dal.Field object>, <gluon.dal.Field object>, <gluon.dal.Field object>, <gluon.dal.Field object>, <gluon.dal.Field object>, <gluon.dal.Field object>], **args={})'
p3741
sg3649
g24
sa(dp3742
g3626
S'/home/darshan/web2py/gluon/dal.py'
p3743
sg3628
(dp3744
S'backend.upper'
p3745
S'<built-in method upper of str object>'
p3746
sS'name'
p3747
S"'location'"
p3748
sS'backend'
p3749
S"'all'"
p3750
ssg3634
I6930
sg3635
(dp3751
I6925
S"        ['all']"
p3752
sI6926
S'        """'
p3753
sI6927
S'        for backend in self.check_reserved:'
p3754
sI6928
S'            if name.upper() in self.RSK[backend]:'
p3755
sI6929
S'                raise SyntaxError('
p3756
sI6930
S'                    \'invalid table/column name "%s" is a "%s" reserved SQL keyword\' % (name, backend.upper()))'
p3757
sI6931
S''
sI6932
S'    def parse_as_rest(self,patterns,args,vars,queries=None,nested_select=True):'
p3758
sI6933
S'        """'
p3759
sI6934
S'        EXAMPLE:'
p3760
ssg3647
S'(self=<DAL uri="sqlite://storage.sqlite">, name=\'location\')'
p3761
sg3649
S'check_reserved_keyword'
p3762
sasS'pyver'
p3763
S'Python 2.7.6: /usr/bin/python'
p3764
sS'session'
p3765
g69
(g70
g71
NtRp3766
(dp3767
g74
(dp3768
sg76
(lp3769
g69
(g78
g71
NtRp3770
(dp3771
g74
(dp3772
g82
I5
ssg83
Nsg76
(lp3773
sbasbsS'etype'
p3774
S"<type 'exceptions.SyntaxError'>"
p3775
sS'date'
p3776
S'Sun Sep 28 00:38:28 2014'
p3777
sS'response'
p3778
g69
(g70
g71
NtRp3779
(dp3780
g74
(dp3781
sg76
(lp3782
g69
(g78
g71
NtRp3783
(dp3784
g74
(dp3785
g82
I5
ssg83
Nsg76
(lp3786
g69
(g85
g71
NtRp3787
(dp3788
g74
(dp3789
sg83
g3783
sg76
(lp3790
g69
(g90
g71
NtRp3791
(dp3792
g74
(dp3793
g94
g95
ssg83
g3787
sg76
(lp3794
g167
asbag69
(g90
g71
NtRp3795
(dp3796
g74
(dp3797
g101
g102
ssg83
g3787
sg76
(lp3798
S':'
asbag69
(g90
g71
NtRp3799
(dp3800
g74
(dp3801
sg83
g3787
sg76
(lp3802
g69
(g70
g71
NtRp3803
(dp3804
g74
(dp3805
g82
I5
ssg83
g3799
sg76
(lp3806
S'<cStringIO.StringO object at 0x7f92a83f0c70>'
p3807
asbasbasbag69
(g85
g71
NtRp3808
(dp3809
g74
(dp3810
sg83
g3783
sg76
(lp3811
g69
(g90
g71
NtRp3812
(dp3813
g74
(dp3814
g94
g95
ssg83
g3808
sg76
(lp3815
g255
asbag69
(g90
g71
NtRp3816
(dp3817
g74
(dp3818
g101
g102
ssg83
g3808
sg76
(lp3819
S':'
asbag69
(g90
g71
NtRp3820
(dp3821
g74
(dp3822
sg83
g3808
sg76
(lp3823
g69
(g70
g71
NtRp3824
(dp3825
g74
(dp3826
g82
I5
ssg83
g3820
sg76
(lp3827
g69
(g78
g71
NtRp3828
(dp3829
g74
(dp3830
g82
I4
ssg83
Nsg76
(lp3831
g69
(g85
g71
NtRp3832
(dp3833
g74
(dp3834
sg83
g3828
sg76
(lp3835
g69
(g90
g71
NtRp3836
(dp3837
g74
(dp3838
g94
g95
ssg83
g3832
sg76
(lp3839
S'session_id_garbage_truck'
p3840
asbag69
(g90
g71
NtRp3841
(dp3842
g74
(dp3843
g101
g102
ssg83
g3832
sg76
(lp3844
S':'
asbag69
(g90
g71
NtRp3845
(dp3846
g74
(dp3847
sg83
g3832
sg76
(lp3848
g69
(g70
g71
NtRp3849
(dp3850
g74
(dp3851
g82
I4
ssg83
g3845
sg76
(lp3852
S'127.0.0.1-200d3246-3873-4fa7-833a-9a0ab2b327d9'
p3853
ag69
(g78
g71
NtRp3854
(dp3855
g74
(dp3856
g82
I3
ssg83
Nsg76
(lp3857
g69
(g85
g71
NtRp3858
(dp3859
g74
(dp3860
sg83
g3854
sg76
(lp3861
g69
(g90
g71
NtRp3862
(dp3863
g74
(dp3864
g94
g95
ssg83
g3858
sg76
(lp3865
g306
asbag69
(g90
g71
NtRp3866
(dp3867
g74
(dp3868
g101
g102
ssg83
g3858
sg76
(lp3869
S':'
asbag69
(g90
g71
NtRp3870
(dp3871
g74
(dp3872
sg83
g3858
sg76
(lp3873
g69
(g70
g71
NtRp3874
(dp3875
g74
(dp3876
g82
I3
ssg83
g3870
sg76
(lp3877
S''
asbasbasbag69
(g85
g71
NtRp3878
(dp3879
g74
(dp3880
sg83
g3854
sg76
(lp3881
g69
(g90
g71
NtRp3882
(dp3883
g74
(dp3884
g94
g95
ssg83
g3878
sg76
(lp3885
g327
asbag69
(g90
g71
NtRp3886
(dp3887
g74
(dp3888
g101
g102
ssg83
g3878
sg76
(lp3889
S':'
asbag69
(g90
g71
NtRp3890
(dp3891
g74
(dp3892
sg83
g3878
sg76
(lp3893
g69
(g70
g71
NtRp3894
(dp3895
g74
(dp3896
g82
I3
ssg83
g3890
sg76
(lp3897
S''
asbasbasbag69
(g85
g71
NtRp3898
(dp3899
g74
(dp3900
sg83
g3854
sg76
(lp3901
g69
(g90
g71
NtRp3902
(dp3903
g74
(dp3904
g94
g95
ssg83
g3898
sg76
(lp3905
g348
asbag69
(g90
g71
NtRp3906
(dp3907
g74
(dp3908
g101
g102
ssg83
g3898
sg76
(lp3909
S':'
asbag69
(g90
g71
NtRp3910
(dp3911
g74
(dp3912
sg83
g3898
sg76
(lp3913
g69
(g70
g71
NtRp3914
(dp3915
g74
(dp3916
g82
I3
ssg83
g3910
sg76
(lp3917
S''
asbasbasbag69
(g85
g71
NtRp3918
(dp3919
g74
(dp3920
sg83
g3854
sg76
(lp3921
g69
(g90
g71
NtRp3922
(dp3923
g74
(dp3924
g94
g95
ssg83
g3918
sg76
(lp3925
g369
asbag69
(g90
g71
NtRp3926
(dp3927
g74
(dp3928
g101
g102
ssg83
g3918
sg76
(lp3929
S':'
asbag69
(g90
g71
NtRp3930
(dp3931
g74
(dp3932
sg83
g3918
sg76
(lp3933
g69
(g70
g71
NtRp3934
(dp3935
g74
(dp3936
g82
I3
ssg83
g3930
sg76
(lp3937
S''
asbasbasbag69
(g85
g71
NtRp3938
(dp3939
g74
(dp3940
sg83
g3854
sg76
(lp3941
g69
(g90
g71
NtRp3942
(dp3943
g74
(dp3944
g94
g95
ssg83
g3938
sg76
(lp3945
g390
asbag69
(g90
g71
NtRp3946
(dp3947
g74
(dp3948
g101
g102
ssg83
g3938
sg76
(lp3949
S':'
asbag69
(g90
g71
NtRp3950
(dp3951
g74
(dp3952
sg83
g3938
sg76
(lp3953
g69
(g70
g71
NtRp3954
(dp3955
g74
(dp3956
g82
I3
ssg83
g3950
sg76
(lp3957
S''
asbasbasbag69
(g85
g71
NtRp3958
(dp3959
g74
(dp3960
sg83
g3854
sg76
(lp3961
g69
(g90
g71
NtRp3962
(dp3963
g74
(dp3964
g94
g95
ssg83
g3958
sg76
(lp3965
g411
asbag69
(g90
g71
NtRp3966
(dp3967
g74
(dp3968
g101
g102
ssg83
g3958
sg76
(lp3969
S':'
asbag69
(g90
g71
NtRp3970
(dp3971
g74
(dp3972
sg83
g3958
sg76
(lp3973
g69
(g70
g71
NtRp3974
(dp3975
g74
(dp3976
g82
I3
ssg83
g3970
sg76
(lp3977
S'/'
asbasbasbag69
(g85
g71
NtRp3978
(dp3979
g74
(dp3980
sg83
g3854
sg76
(lp3981
g69
(g90
g71
NtRp3982
(dp3983
g74
(dp3984
g94
g95
ssg83
g3978
sg76
(lp3985
g432
asbag69
(g90
g71
NtRp3986
(dp3987
g74
(dp3988
g101
g102
ssg83
g3978
sg76
(lp3989
S':'
asbag69
(g90
g71
NtRp3990
(dp3991
g74
(dp3992
sg83
g3978
sg76
(lp3993
g69
(g70
g71
NtRp3994
(dp3995
g74
(dp3996
g82
I3
ssg83
g3990
sg76
(lp3997
S''
asbasbasbag69
(g85
g71
NtRp3998
(dp3999
g74
(dp4000
sg83
g3854
sg76
(lp4001
g69
(g90
g71
NtRp4002
(dp4003
g74
(dp4004
g94
g95
ssg83
g3998
sg76
(lp4005
g453
asbag69
(g90
g71
NtRp4006
(dp4007
g74
(dp4008
g101
g102
ssg83
g3998
sg76
(lp4009
S':'
asbag69
(g90
g71
NtRp4010
(dp4011
g74
(dp4012
sg83
g3998
sg76
(lp4013
g69
(g70
g71
NtRp4014
(dp4015
g74
(dp4016
g82
I3
ssg83
g4010
sg76
(lp4017
S''
asbasbasbasbasbasbasbasbasbasbasbag69
(g85
g71
NtRp4018
(dp4019
g74
(dp4020
sg83
g3783
sg76
(lp4021
g69
(g90
g71
NtRp4022
(dp4023
g74
(dp4024
g94
g95
ssg83
g4018
sg76
(lp4025
S'delimiters'
p4026
asbag69
(g90
g71
NtRp4027
(dp4028
g74
(dp4029
g101
g102
ssg83
g4018
sg76
(lp4030
S':'
asbag69
(g90
g71
NtRp4031
(dp4032
g74
(dp4033
sg83
g4018
sg76
(lp4034
g69
(g70
g71
NtRp4035
(dp4036
g74
(dp4037
g82
I5
ssg83
g4031
sg76
(lp4038
g69
(g78
g71
NtRp4039
(dp4040
g74
(dp4041
g82
I4
ssg83
Nsg76
(lp4042
g69
(g85
g71
NtRp4043
(dp4044
g74
(dp4045
sg83
g4039
sg76
(lp4046
g69
(g90
g71
NtRp4047
(dp4048
g74
(dp4049
sg83
g4043
sg76
(lp4050
g69
(g70
g71
NtRp4051
(dp4052
g74
(dp4053
g82
I4
ssg83
g4047
sg76
(lp4054
S'{{'
p4055
asbasbasbag69
(g85
g71
NtRp4056
(dp4057
g74
(dp4058
sg83
g4039
sg76
(lp4059
g69
(g90
g71
NtRp4060
(dp4061
g74
(dp4062
sg83
g4056
sg76
(lp4063
g69
(g70
g71
NtRp4064
(dp4065
g74
(dp4066
g82
I4
ssg83
g4060
sg76
(lp4067
S'}}'
p4068
asbasbasbasbasbasbasbag69
(g85
g71
NtRp4069
(dp4070
g74
(dp4071
sg83
g3783
sg76
(lp4072
g69
(g90
g71
NtRp4073
(dp4074
g74
(dp4075
g94
g95
ssg83
g4069
sg76
(lp4076
S'files'
p4077
asbag69
(g90
g71
NtRp4078
(dp4079
g74
(dp4080
g101
g102
ssg83
g4069
sg76
(lp4081
S':'
asbag69
(g90
g71
NtRp4082
(dp4083
g74
(dp4084
sg83
g4069
sg76
(lp4085
g69
(g70
g71
NtRp4086
(dp4087
g74
(dp4088
g82
I5
ssg83
g4082
sg76
(lp4089
g69
(g78
g71
NtRp4090
(dp4091
g74
(dp4092
g82
I4
ssg83
Nsg76
(lp4093
sbasbasbasbag69
(g85
g71
NtRp4094
(dp4095
g74
(dp4096
sg83
g3783
sg76
(lp4097
g69
(g90
g71
NtRp4098
(dp4099
g74
(dp4100
g94
g95
ssg83
g4094
sg76
(lp4101
S'flash'
p4102
asbag69
(g90
g71
NtRp4103
(dp4104
g74
(dp4105
g101
g102
ssg83
g4094
sg76
(lp4106
S':'
asbag69
(g90
g71
NtRp4107
(dp4108
g74
(dp4109
sg83
g4094
sg76
(lp4110
g69
(g70
g71
NtRp4111
(dp4112
g74
(dp4113
g82
I5
ssg83
g4107
sg76
(lp4114
S''
asbasbasbag69
(g85
g71
NtRp4115
(dp4116
g74
(dp4117
sg83
g3783
sg76
(lp4118
g69
(g90
g71
NtRp4119
(dp4120
g74
(dp4121
g94
g95
ssg83
g4115
sg76
(lp4122
S'generic_patterns'
p4123
asbag69
(g90
g71
NtRp4124
(dp4125
g74
(dp4126
g101
g102
ssg83
g4115
sg76
(lp4127
S':'
asbag69
(g90
g71
NtRp4128
(dp4129
g74
(dp4130
sg83
g4115
sg76
(lp4131
g69
(g70
g71
NtRp4132
(dp4133
g74
(dp4134
g82
I5
ssg83
g4128
sg76
(lp4135
g69
(g78
g71
NtRp4136
(dp4137
g74
(dp4138
g82
I4
ssg83
Nsg76
(lp4139
g69
(g85
g71
NtRp4140
(dp4141
g74
(dp4142
sg83
g4136
sg76
(lp4143
g69
(g90
g71
NtRp4144
(dp4145
g74
(dp4146
sg83
g4140
sg76
(lp4147
g69
(g70
g71
NtRp4148
(dp4149
g74
(dp4150
g82
I4
ssg83
g4144
sg76
(lp4151
S'*'
asbasbasbasbasbasbasbag69
(g85
g71
NtRp4152
(dp4153
g74
(dp4154
sg83
g3783
sg76
(lp4155
g69
(g90
g71
NtRp4156
(dp4157
g74
(dp4158
g94
g95
ssg83
g4152
sg76
(lp4159
S'headers'
p4160
asbag69
(g90
g71
NtRp4161
(dp4162
g74
(dp4163
g101
g102
ssg83
g4152
sg76
(lp4164
S':'
asbag69
(g90
g71
NtRp4165
(dp4166
g74
(dp4167
sg83
g4152
sg76
(lp4168
g69
(g70
g71
NtRp4169
(dp4170
g74
(dp4171
g82
I5
ssg83
g4165
sg76
(lp4172
g69
(g78
g71
NtRp4173
(dp4174
g74
(dp4175
g82
I4
ssg83
Nsg76
(lp4176
g69
(g85
g71
NtRp4177
(dp4178
g74
(dp4179
sg83
g4173
sg76
(lp4180
g69
(g90
g71
NtRp4181
(dp4182
g74
(dp4183
g94
g95
ssg83
g4177
sg76
(lp4184
S'X-Powered-By'
p4185
asbag69
(g90
g71
NtRp4186
(dp4187
g74
(dp4188
g101
g102
ssg83
g4177
sg76
(lp4189
S':'
asbag69
(g90
g71
NtRp4190
(dp4191
g74
(dp4192
sg83
g4177
sg76
(lp4193
g69
(g70
g71
NtRp4194
(dp4195
g74
(dp4196
g82
I4
ssg83
g4190
sg76
(lp4197
S'web2py'
p4198
asbasbasbasbasbasbasbag69
(g85
g71
NtRp4199
(dp4200
g74
(dp4201
sg83
g3783
sg76
(lp4202
g69
(g90
g71
NtRp4203
(dp4204
g74
(dp4205
g94
g95
ssg83
g4199
sg76
(lp4206
S'menu'
p4207
asbag69
(g90
g71
NtRp4208
(dp4209
g74
(dp4210
g101
g102
ssg83
g4199
sg76
(lp4211
S':'
asbag69
(g90
g71
NtRp4212
(dp4213
g74
(dp4214
sg83
g4199
sg76
(lp4215
g69
(g70
g71
NtRp4216
(dp4217
g74
(dp4218
g82
I5
ssg83
g4212
sg76
(lp4219
g69
(g78
g71
NtRp4220
(dp4221
g74
(dp4222
g82
I4
ssg83
Nsg76
(lp4223
sbasbasbasbag69
(g85
g71
NtRp4224
(dp4225
g74
(dp4226
sg83
g3783
sg76
(lp4227
g69
(g90
g71
NtRp4228
(dp4229
g74
(dp4230
g94
g95
ssg83
g4224
sg76
(lp4231
S'meta'
p4232
asbag69
(g90
g71
NtRp4233
(dp4234
g74
(dp4235
g101
g102
ssg83
g4224
sg76
(lp4236
S':'
asbag69
(g90
g71
NtRp4237
(dp4238
g74
(dp4239
sg83
g4224
sg76
(lp4240
g69
(g70
g71
NtRp4241
(dp4242
g74
(dp4243
g82
I5
ssg83
g4237
sg76
(lp4244
g69
(g78
g71
NtRp4245
(dp4246
g74
(dp4247
g82
I4
ssg83
Nsg76
(lp4248
sbasbasbasbag69
(g85
g71
NtRp4249
(dp4250
g74
(dp4251
sg83
g3783
sg76
(lp4252
g69
(g90
g71
NtRp4253
(dp4254
g74
(dp4255
g94
g95
ssg83
g4249
sg76
(lp4256
S'models_to_run'
p4257
asbag69
(g90
g71
NtRp4258
(dp4259
g74
(dp4260
g101
g102
ssg83
g4249
sg76
(lp4261
S':'
asbag69
(g90
g71
NtRp4262
(dp4263
g74
(dp4264
sg83
g4249
sg76
(lp4265
g69
(g70
g71
NtRp4266
(dp4267
g74
(dp4268
g82
I5
ssg83
g4262
sg76
(lp4269
g69
(g78
g71
NtRp4270
(dp4271
g74
(dp4272
g82
I4
ssg83
Nsg76
(lp4273
g69
(g85
g71
NtRp4274
(dp4275
g74
(dp4276
sg83
g4270
sg76
(lp4277
g69
(g90
g71
NtRp4278
(dp4279
g74
(dp4280
sg83
g4274
sg76
(lp4281
g69
(g70
g71
NtRp4282
(dp4283
g74
(dp4284
g82
I4
ssg83
g4278
sg76
(lp4285
S'^\\w+\\.py$'
p4286
asbasbasbag69
(g85
g71
NtRp4287
(dp4288
g74
(dp4289
sg83
g4270
sg76
(lp4290
g69
(g90
g71
NtRp4291
(dp4292
g74
(dp4293
sg83
g4287
sg76
(lp4294
g69
(g70
g71
NtRp4295
(dp4296
g74
(dp4297
g82
I4
ssg83
g4291
sg76
(lp4298
S'^appadmin/\\w+\\.py$'
p4299
asbasbasbag69
(g85
g71
NtRp4300
(dp4301
g74
(dp4302
sg83
g4270
sg76
(lp4303
g69
(g90
g71
NtRp4304
(dp4305
g74
(dp4306
sg83
g4300
sg76
(lp4307
g69
(g70
g71
NtRp4308
(dp4309
g74
(dp4310
g82
I4
ssg83
g4304
sg76
(lp4311
S'^appadmin/index/\\w+\\.py$'
p4312
asbasbasbasbasbasbasbag69
(g85
g71
NtRp4313
(dp4314
g74
(dp4315
sg83
g3783
sg76
(lp4316
g69
(g90
g71
NtRp4317
(dp4318
g74
(dp4319
g94
g95
ssg83
g4313
sg76
(lp4320
S'postprocessing'
p4321
asbag69
(g90
g71
NtRp4322
(dp4323
g74
(dp4324
g101
g102
ssg83
g4313
sg76
(lp4325
S':'
asbag69
(g90
g71
NtRp4326
(dp4327
g74
(dp4328
sg83
g4313
sg76
(lp4329
g69
(g70
g71
NtRp4330
(dp4331
g74
(dp4332
g82
I5
ssg83
g4326
sg76
(lp4333
g69
(g78
g71
NtRp4334
(dp4335
g74
(dp4336
g82
I4
ssg83
Nsg76
(lp4337
sbasbasbasbag69
(g85
g71
NtRp4338
(dp4339
g74
(dp4340
sg83
g3783
sg76
(lp4341
g69
(g90
g71
NtRp4342
(dp4343
g74
(dp4344
g94
g95
ssg83
g4338
sg76
(lp4345
S'session_cookie_expires'
p4346
asbag69
(g90
g71
NtRp4347
(dp4348
g74
(dp4349
g101
g102
ssg83
g4338
sg76
(lp4350
S':'
asbag69
(g90
g71
NtRp4351
(dp4352
g74
(dp4353
sg83
g4338
sg76
(lp4354
g69
(g70
g71
NtRp4355
(dp4356
g74
(dp4357
g82
I5
ssg83
g4351
sg76
(lp4358
S'None'
p4359
asbasbasbag69
(g85
g71
NtRp4360
(dp4361
g74
(dp4362
sg83
g3783
sg76
(lp4363
g69
(g90
g71
NtRp4364
(dp4365
g74
(dp4366
g94
g95
ssg83
g4360
sg76
(lp4367
S'session_data_name'
p4368
asbag69
(g90
g71
NtRp4369
(dp4370
g74
(dp4371
g101
g102
ssg83
g4360
sg76
(lp4372
S':'
asbag69
(g90
g71
NtRp4373
(dp4374
g74
(dp4375
sg83
g4360
sg76
(lp4376
g69
(g70
g71
NtRp4377
(dp4378
g74
(dp4379
g82
I5
ssg83
g4373
sg76
(lp4380
S'session_data_garbage_truck'
p4381
asbasbasbag69
(g85
g71
NtRp4382
(dp4383
g74
(dp4384
sg83
g3783
sg76
(lp4385
g69
(g90
g71
NtRp4386
(dp4387
g74
(dp4388
g94
g95
ssg83
g4382
sg76
(lp4389
S'session_filename'
p4390
asbag69
(g90
g71
NtRp4391
(dp4392
g74
(dp4393
g101
g102
ssg83
g4382
sg76
(lp4394
S':'
asbag69
(g90
g71
NtRp4395
(dp4396
g74
(dp4397
sg83
g4382
sg76
(lp4398
g69
(g70
g71
NtRp4399
(dp4400
g74
(dp4401
g82
I5
ssg83
g4395
sg76
(lp4402
S'/home/darshan/web2py/applications/Garbage_Truck/sessions/127.0.0.1-200d3246-3873-4fa7-833a-9a0ab2b327d9'
p4403
asbasbasbag69
(g85
g71
NtRp4404
(dp4405
g74
(dp4406
sg83
g3783
sg76
(lp4407
g69
(g90
g71
NtRp4408
(dp4409
g74
(dp4410
g94
g95
ssg83
g4404
sg76
(lp4411
S'session_id'
p4412
asbag69
(g90
g71
NtRp4413
(dp4414
g74
(dp4415
g101
g102
ssg83
g4404
sg76
(lp4416
S':'
asbag69
(g90
g71
NtRp4417
(dp4418
g74
(dp4419
sg83
g4404
sg76
(lp4420
g69
(g70
g71
NtRp4421
(dp4422
g74
(dp4423
g82
I5
ssg83
g4417
sg76
(lp4424
g3853
asbasbasbag69
(g85
g71
NtRp4425
(dp4426
g74
(dp4427
sg83
g3783
sg76
(lp4428
g69
(g90
g71
NtRp4429
(dp4430
g74
(dp4431
g94
g95
ssg83
g4425
sg76
(lp4432
S'session_id_name'
p4433
asbag69
(g90
g71
NtRp4434
(dp4435
g74
(dp4436
g101
g102
ssg83
g4425
sg76
(lp4437
S':'
asbag69
(g90
g71
NtRp4438
(dp4439
g74
(dp4440
sg83
g4425
sg76
(lp4441
g69
(g70
g71
NtRp4442
(dp4443
g74
(dp4444
g82
I5
ssg83
g4438
sg76
(lp4445
g3840
asbasbasbag69
(g85
g71
NtRp4446
(dp4447
g74
(dp4448
sg83
g3783
sg76
(lp4449
g69
(g90
g71
NtRp4450
(dp4451
g74
(dp4452
g94
g95
ssg83
g4446
sg76
(lp4453
S'session_new'
p4454
asbag69
(g90
g71
NtRp4455
(dp4456
g74
(dp4457
g101
g102
ssg83
g4446
sg76
(lp4458
S':'
asbag69
(g90
g71
NtRp4459
(dp4460
g74
(dp4461
sg83
g4446
sg76
(lp4462
g69
(g70
g71
NtRp4463
(dp4464
g74
(dp4465
g82
I5
ssg83
g4459
sg76
(lp4466
g2174
asbasbasbag69
(g85
g71
NtRp4467
(dp4468
g74
(dp4469
sg83
g3783
sg76
(lp4470
g69
(g90
g71
NtRp4471
(dp4472
g74
(dp4473
g94
g95
ssg83
g4467
sg76
(lp4474
S'session_storage_type'
p4475
asbag69
(g90
g71
NtRp4476
(dp4477
g74
(dp4478
g101
g102
ssg83
g4467
sg76
(lp4479
S':'
asbag69
(g90
g71
NtRp4480
(dp4481
g74
(dp4482
sg83
g4467
sg76
(lp4483
g69
(g70
g71
NtRp4484
(dp4485
g74
(dp4486
g82
I5
ssg83
g4480
sg76
(lp4487
g3626
asbasbasbag69
(g85
g71
NtRp4488
(dp4489
g74
(dp4490
sg83
g3783
sg76
(lp4491
g69
(g90
g71
NtRp4492
(dp4493
g74
(dp4494
g94
g95
ssg83
g4488
sg76
(lp4495
S'status'
p4496
asbag69
(g90
g71
NtRp4497
(dp4498
g74
(dp4499
g101
g102
ssg83
g4488
sg76
(lp4500
S':'
asbag69
(g90
g71
NtRp4501
(dp4502
g74
(dp4503
sg83
g4488
sg76
(lp4504
g69
(g70
g71
NtRp4505
(dp4506
g74
(dp4507
g82
I5
ssg83
g4501
sg76
(lp4508
S'200'
p4509
asbasbasbag69
(g85
g71
NtRp4510
(dp4511
g74
(dp4512
sg83
g3783
sg76
(lp4513
g69
(g90
g71
NtRp4514
(dp4515
g74
(dp4516
g94
g95
ssg83
g4510
sg76
(lp4517
S'view'
p4518
asbag69
(g90
g71
NtRp4519
(dp4520
g74
(dp4521
g101
g102
ssg83
g4510
sg76
(lp4522
S':'
asbag69
(g90
g71
NtRp4523
(dp4524
g74
(dp4525
sg83
g4510
sg76
(lp4526
g69
(g70
g71
NtRp4527
(dp4528
g74
(dp4529
g82
I5
ssg83
g4523
sg76
(lp4530
S'appadmin/index.html'
p4531
asbasbasbasbasbsS'locals'
p4532
(dp4533
S'self'
p4534
S'<DAL uri="sqlite://storage.sqlite">'
p4535
sS'name'
p4536
S"'location'"
p4537
sS'backend'
p4538
S"'all'"
p4539
sssS'traceback'
p4540
S'Traceback (most recent call last):\n  File "/home/darshan/web2py/gluon/restricted.py", line 212, in restricted\n    exec ccode in environment\n  File "/home/darshan/web2py/applications/Garbage_Truck/models/db.py", line 95, in <module>\n    Field(\'phone\',\'integer\',requires=IS_NOT_EMPTY()))\n  File "/home/darshan/web2py/gluon/dal.py", line 7186, in define_table\n    table = self.lazy_define_table(tablename,*fields,**args)\n  File "/home/darshan/web2py/gluon/dal.py", line 7203, in lazy_define_table\n    table = table_class(self, tablename, *fields, **args)\n  File "/home/darshan/web2py/gluon/dal.py", line 7609, in __init__\n    db.check_reserved_keyword(field_name)\n  File "/home/darshan/web2py/gluon/dal.py", line 6930, in check_reserved_keyword\n    \'invalid table/column name "%s" is a "%s" reserved SQL keyword\' % (name, backend.upper()))\nSyntaxError: invalid table/column name "location" is a "ALL" reserved SQL keyword\n'
p4541
s.