(dp1
S'output'
p2
S"<type 'exceptions.AttributeError'> 'list' object has no attribute 'request_collection'"
p3
sS'layer'
p4
S'/home/darshan/web2py/applications/Garbage_Truck/views/default/request_reservior_view.html'
p5
sS'code'
p6
S'response.write(\'<!DOCTYPE html PUBLIC "-//W3C//DTD XHTML 1.0 Strict//EN" "http://www.w3.org/TR/xhtml1/DTD/xhtml1-strict.dtd">\\n<!--\\n\\nDesign by Free CSS Templates\\nhttp://www.freecsstemplates.org\\nReleased for free under a Creative Commons Attribution 2.5 License\\n\\nTitle      : Interlude\\nVersion    : 1.0\\nReleased   : 20080903\\nDescription: A multi-column, fixed-width design for 800x600 resolutions.\\n\\n-->\\n<html xmlns="http://www.w3.org/1999/xhtml">\\n <head>\\n  <title>\\n   \', escape=False)\nresponse.write(response.title or request.application)\nresponse.write(\'\\n  </title>\\n  \', escape=False)\nresponse.files.append(URL(request.application,\'static\',\'plugin_layouts/layouts/Interlude/default.css\'))\nresponse.write(\'\\n  \', escape=False)\nresponse.files.append(URL(\'static\',\'plugin_layouts/superfish.js\'))\nresponse.write(\'\\n  \', escape=False)\nresponse.write(\'<script type="text/javascript"><!--\\n    // These variables are used by the web2py_ajax_init function in web2py_ajax.js (which is loaded below).\\n    var w2p_ajax_confirm_message = "\', escape=False)\nresponse.write(T(\'Are you sure you want to delete this object?\'))\nresponse.write(\'";\\n    var w2p_ajax_date_format = "\', escape=False)\nresponse.write(T(\'%Y-%m-%d\'))\nresponse.write(\'";\\n    var w2p_ajax_datetime_format = "\', escape=False)\nresponse.write(T(\'%Y-%m-%d %H:%M:%S\'))\nresponse.write(\'";\\n    //--></script>\\n\', escape=False)\nresponse.files.insert(0,URL(\'static\',\'js/jquery.js\'))\nresponse.files.insert(1,URL(\'static\',\'css/calendar.css\'))\nresponse.files.insert(2,URL(\'static\',\'js/calendar.js\'))\nresponse.files.insert(3,URL(\'static\',\'js/web2py.js\'))\nresponse.include_meta()\nresponse.include_files()\nresponse.write(\'\\n\', escape=False)\nresponse.write(\'\\n  <style>\\nul.web2py-menu-vertical { width: 150px; position: relative; top:1em; left:1em;  z-index:30; border:0; margin:0; padding: 0; list-style: none; text-decoration: none;}\\nul.web2py-menu-vertical li { margin:0; padding:0; border:0; width: 150px; background: black; text-align:left;}\\nul.web2py-menu-vertical li a { margin:0; padding: 1px 3px 1px 3px; border:0; width: 144px; color: white; font-size:12px;}\\ndiv.flash { position: fixed; float: right; padding: 10px; top: 10px; right: 30px; opacity: 0.75; margin: 10px 10px 10px 10px; text-align: center; clear: both; color: #fff; font-size: 11pt; text-align: center; vertical-align: middle; cursor: pointer; background: black; border: 2px solid #fff; -moz-border-radius: 5px; -webkit-border-radius: 5px; z-index: 2; }\\ndiv.error { background-color: red; color: white; padding: 3px; }\\n.auth_navbar { color: white; text-align:right; z-index:20; position: absolute; top: 20px; right:30px; border:0; padding:0; font-size:15px; }\\n  </style>\\n </head>\\n <body>\\n  <!-- start header -->\\n\\n  \', escape=False)\ntry:\n    response.write(auth.navbar(action=URL(\'default\',\'user\')))\nexcept:pass\nresponse.write(\'\\n\\n  <!-- start header -->\\n  <div id="header">\\n   <div id="logo">\\n    <h1>\\n     \', escape=False)\nresponse.write(response.title or request.application)\nresponse.write(\'\\n    </h1>\\n   <!-- <p>\\n     <a href="http://www.freecsstemplates.org/">\\n      Design by Free CSS Templates\\n     </a>\\n    </p>-->\\n   </div>\\n<!--   <div id="menu">\\n    \', escape=False)\nresponse.write(MENU(response.menu,_class=\'web2py-menu\'))\nresponse.write(\'\\n    <script>\\n      jQuery(document).ready(function(){jQuery(\\\'ul.web2py-menu\\\').superfish({delay:400});});\\n    </script>\\n   </div>-->\\n  </div>\\n  <hr />\\n  <!-- end header -->\\n  <!-- start page -->\\n  <div id="wrapper">\\n   <div id="page">\\n    <!-- start content -->\\n    <div id="content">\\n     <div class="flash">\', escape=False)\nresponse.write(response.flash or \'\')\nresponse.write(\'</div>\\n     \', escape=False)\nresponse.write(\'\\n\', escape=False)\nfor i in d:\n    response.write(\'\\n\', escape=False)\n    s=d[i]\n    response.write(\'\\n<h2>\', escape=False)\n    response.write(i)\n    response.write(\'</h2>\\n\', escape=False)\n    for j in s:\n        response.write(\'\\n\', escape=False)\n        nam=j.auth_user.first_name+\' \'+j.auth_user.last_name\n        response.write(\'<br>\\nRequest By :\', escape=False)\n        response.write(nam)\n        response.write(\'<br>\\nComments : \', escape=False)\n        response.write(j.request_collection.comment1)\n        response.write(\'<br>\\nLocation : \', escape=False)\n        response.write(j.request_collection.location1)\n        response.write(\'<br>\\n\', escape=False)\n        disp=\'\'\n        stat = j.request_collection.status\n        if stat==\'1\':\n            disp=\'Received\'\n        elif stat==\'2\':\n            disp=\'Observed\'\n        elif stat==\'3\':\n            disp=\'Verified\'\n        elif stat==\'4\':\n            disp=\'Processing\'\n        elif stat==\'5\':\n            disp=\'Completed\'\n            pass\n        response.write(\'\\nStatus : \', escape=False)\n        response.write(disp)\n        response.write(\' &nbsp;&nbsp;\\n<a href="\', escape=False)\n        response.write(URL(\'edit_status\',args=[d[i].request_collection.id]))\n        response.write(\'">Edit</a>\\n<br><br><br>\\n\', escape=False)\n        pass\n    response.write(\'\\n<br><br><br><br><br><br>\\n\', escape=False)\n    pass\nresponse.write(\'\\n\', escape=False)\nresponse.write(\'\\n<p><br/><br/><br/><br/><br/><br/><br/><br/><br/><br/><br/><br/><br/><br/></p>\\n    </div>\\n    <!-- end content -->\\n    <!-- start sidebar -->\\n    <div id="sidebar">\\n     <ul>\\n    <!--  <li id="categories">\\n       <h2>\\n        Categories\\n       </h2>\\n       <ul>\\n        <li>\\n         <a href="#">\\n          Lorem Ipsum\\n         </a>\\n         (1)\\n        </li>\\n        <li>\\n         <a href="#">\\n          Uncategorized\\n         </a>\\n         (4)\\n        </li>\\n        <li>\\n         <a href="#">\\n          Nulla luctus eleifend\\n         </a>\\n         (1)\\n        </li>\\n        <li>\\n         <a href="#">\\n          Pellentesque tempus\\n         </a>\\n         (4)\\n        </li>\\n        <li>\\n         <a href="#">\\n          Donec dictum metus\\n         </a>\\n         (1)\\n        </li>\\n        <li>\\n         <a href="#">\\n          Etiam posuere augue\\n         </a>\\n         (4)\\n        </li>\\n       </ul>\\n      </li>-->\\n      <li id="calendar">\\n       <h2>\\n        Calendar\\n       </h2>\\n       <div id="calendar_wrap">\\n        <table id="wp-calendar" summary="Calendar">\\n         <caption>\\n          September 2014\\n         </caption>\\n         <thead>\\n          <tr>\\n           <th abbr="Monday" scope="col" title="Monday">\\n            M\\n           </th>\\n           <th abbr="Tuesday" scope="col" title="Tuesday">\\n            T\\n           </th>\\n           <th abbr="Wednesday" scope="col" title="Wednesday">\\n            W\\n           </th>\\n           <th abbr="Thursday" scope="col" title="Thursday">\\n            T\\n           </th>\\n           <th abbr="Friday" scope="col" title="Friday">\\n            F\\n           </th>\\n           <th abbr="Saturday" scope="col" title="Saturday">\\n            S\\n           </th>\\n           <th abbr="Sunday" scope="col" title="Sunday">\\n            S\\n           </th>\\n          </tr>\\n         </thead>\\n         <tfoot>\\n          <tr>\\n           <td abbr="July" colspan="3" id="prev">\\n            <a href="#">\\n             &laquo; Jul\\n            </a>\\n           </td>\\n           <td class="pad">\\n            &nbsp;\\n           </td>\\n           <td abbr="September" colspan="3" id="next" class="pad">\\n            <a href="#">\\n             Sep &raquo;\\n            </a>\\n           </td>\\n          </tr>\\n         </tfoot>\\n         <tbody>\\n          <tr>\\n           <td colspan="2" class="pad">\\n            &nbsp;\\n           </td>\\n           <td>\\n            1\\n           </td>\\n           <td>\\n            2\\n           </td>\\n           <td>\\n            3\\n           </td>\\n           <td>\\n            4\\n           </td>\\n           <td>\\n            5\\n           </td>\\n          </tr>\\n          <tr>\\n           <td>\\n            6\\n           </td>\\n           <td>\\n            7\\n           </td>\\n           <td>\\n            8\\n           </td>\\n           <td>\\n            9\\n           </td>\\n           <td>\\n            10\\n           </td>\\n           <td>\\n            11\\n           </td>\\n           <td>\\n            12\\n           </td>\\n          </tr>\\n          <tr>\\n           <td>\\n            13\\n           </td>\\n           <td>\\n            14\\n           </td>\\n           <td>\\n            15\\n           </td>\\n           <td>\\n            16\\n           </td>\\n           <td>\\n            17\\n           </td>\\n           <td>\\n            18\\n           </td>\\n           <td>\\n            19\\n           </td>\\n          </tr>\\n          <tr>\\n           <td>\\n            20\\n           </td>\\n           <td>\\n            21\\n           </td>\\n           <td>\\n            22\\n           </td>\\n           <td>\\n            23\\n           </td>\\n           <td>\\n            24\\n           </td>\\n           <td>\\n            25\\n           </td>\\n           <td>\\n            26\\n           </td>\\n          </tr>\\n          <tr>\\n           <td>\\n            27\\n           </td>\\n           <td id="today">\\n            28\\n           </td>\\n           <td>\\n            29\\n           </td>\\n           <td>\\n            30\\n           </td>\\n           <td>\\n            31\\n           </td>\\n           <td class="pad" colspan="2">\\n            &nbsp;\\n           </td>\\n          </tr>\\n         </tbody>\\n        </table>\\n       </div>\\n      </li>\\n      <!--<li>\\n       <h2>\\n        Lorem Ipsum Dolor\\n       </h2>\\n       <ul>\\n        <li>\\n         <a href="#">\\n          Nulla luctus eleifend purus\\n         </a>\\n        </li>\\n        <li>\\n         <a href="#">\\n          Praesent scelerisque scelerisque erat\\n         </a>\\n        </li>\\n        <li>\\n         <a href="#">\\n          Ut nonummy rutrum sem\\n         </a>\\n        </li>\\n        <li>\\n         <a href="#">\\n          Pellentesque tempus quam quis nulla\\n         </a>\\n        </li>\\n        <li>\\n         <a href="#">\\n          Fusce ultrices fringilla metus\\n         </a>\\n        </li>\\n        <li>\\n         <a href="#">\\n          Praesent mattis condimentum nisl\\n         </a>\\n        </li>\\n       </ul>\\n      </li>-->\\n     </ul>\\n    </div>\\n    <!-- end sidebar -->\\n    <br style="clear: both;" />\\n   </div>\\n  </div>\\n  <!-- end page -->\\n  <!-- start footer -->\\n  <div id="wrapper2">\\n   <div id="footer">\\n    <ul>\\n     <li class="first">\\n      <h2>\\n       About us\\n      </h2>\\n      <ul>\\n       <li>\\n        <a href="#">\\n         GHMC Garbage management administration\\n        </a>\\n       </li>\\n      <!-- <li>\\n        <a href="#">\\n         Praesent scelerisque scelerisque erat\\n        </a>\\n       </li>\\n       <li>\\n        <a href="#">\\n         Ut nonummy rutrum sem\\n        </a>\\n       </li>\\n       <li>\\n        <a href="#">\\n         Pellentesque tempus quam quis nulla\\n        </a>\\n       </li>\\n       <li>\\n        <a href="#">\\n         Fusce ultrices fringilla metus\\n        </a>\\n       </li>\\n       <li>\\n        <a href="#">\\n         Praesent mattis condimentum nisl\\n        </a>\\n       </li>-->\\n      </ul>\\n     </li>\\n     <li>\\n      <h2>\\n       Contact us\\n      </h2>\\n      <ul>\\n       <li>\\n        <a href="http://www.ghmc.gov.in/">\\n         www.ghmc.gov.in/\\n        </a>\\n       </li>\\n       <!--<li>\\n        <a href="#">\\n         Praesent scelerisque scelerisque erat\\n        </a>\\n       </li>\\n       <li>\\n        <a href="#">\\n         Ut nonummy rutrum sem\\n        </a>\\n       </li>\\n       <li>\\n        <a href="#">\\n         Pellentesque tempus quam quis nulla\\n        </a>\\n       </li>\\n       <li>\\n        <a href="#">\\n         Fusce ultrices fringilla metus\\n        </a>\\n       </li>\\n       <li>\\n        <a href="#">\\n         Praesent mattis condimentum nisl\\n        </a>\\n       </li>-->\\n      </ul>\\n     </li>\\n     <!--<li>\\n      <h2>\\n       Fusce ultrices fringilla\\n      </h2>\\n      <ul>\\n       <li>\\n        <a href="#">\\n         Nulla luctus eleifend purus\\n        </a>\\n       </li>\\n       <li>\\n        <a href="#">\\n         Praesent scelerisque scelerisque erat\\n        </a>\\n       </li>\\n       <li>\\n        <a href="#">\\n         Ut nonummy rutrum sem\\n        </a>\\n       </li>\\n       <li>\\n        <a href="#">\\n         Pellentesque tempus quam quis nulla\\n        </a>\\n       </li>\\n       <li>\\n        <a href="#">\\n         Fusce ultrices fringilla metus\\n        </a>\\n       </li>\\n       <li>\\n        <a href="#">\\n         Praesent mattis condimentum nisl\\n        </a>\\n       </li>\\n      </ul>\\n     </li>-->\\n    </ul>\\n   </div>\\n   <p id="legal">\\n    &copy;All Rights Reserved.\\n\\t\\t&nbsp;&nbsp;&bull;&nbsp;&nbsp;\\n\\t\\tDesign by\\n    <a href="#">\\n     Darshan, Darpan, Nazrul\\n    </a>\\n   <!-- &nbsp;&nbsp;&bull;&nbsp;&nbsp;\\n\\t\\tIcons by\\n    <a href="http://famfamfam.com/">\\n     FAMFAMFAM\\n    </a>\\n    .\\n    <a href="http://validator.w3.org/check/referer" class="xhtml" title="This page validates as XHTML">\\n     Valid\\n     <abbr title="eXtensible HyperText Markup Language">\\n      XHTML\\n     </abbr>\\n    </a>\\n    &nbsp;&nbsp;&bull;&nbsp;&nbsp;\\n    <a href="http://jigsaw.w3.org/css-validator/check/referer" class="css" title="This page validates as CSS">\\n     Valid\\n     <abbr title="Cascading Style Sheets">\\n      CSS\\n     </abbr>\\n    </a>-->\\n   </p>\\n  </div>\\n  <!-- end footer -->\\n </body>\\n</html>\\n\', escape=False)'
p7
sS'snapshot'
p8
(dp9
S'exception'
p10
(dp11
S'__hash__'
p12
S"<method-wrapper '__hash__' of exceptions.AttributeError object>"
p13
sS'__setattr__'
p14
S"<method-wrapper '__setattr__' of exceptions.AttributeError object>"
p15
sS'__reduce_ex__'
p16
S'<built-in method __reduce_ex__ of exceptions.AttributeError object>'
p17
sS'__getslice__'
p18
S"<method-wrapper '__getslice__' of exceptions.AttributeError object>"
p19
sS'__getitem__'
p20
S"<method-wrapper '__getitem__' of exceptions.AttributeError object>"
p21
sS'__setstate__'
p22
S'<built-in method __setstate__ of exceptions.AttributeError object>'
p23
sS'args'
p24
S'("\'list\' object has no attribute \'request_collection\'",)'
p25
sS'__reduce__'
p26
S'<built-in method __reduce__ of exceptions.AttributeError object>'
p27
sS'__str__'
p28
S"<method-wrapper '__str__' of exceptions.AttributeError object>"
p29
sS'__format__'
p30
S'<built-in method __format__ of exceptions.AttributeError object>'
p31
sS'__getattribute__'
p32
S"<method-wrapper '__getattribute__' of exceptions.AttributeError object>"
p33
sS'__class__'
p34
S"<type 'exceptions.AttributeError'>"
p35
sS'__unicode__'
p36
S'<built-in method __unicode__ of exceptions.AttributeError object>'
p37
sS'__delattr__'
p38
S"<method-wrapper '__delattr__' of exceptions.AttributeError object>"
p39
sS'__subclasshook__'
p40
S'<built-in method __subclasshook__ of type object>'
p41
sS'__repr__'
p42
S"<method-wrapper '__repr__' of exceptions.AttributeError object>"
p43
sS'__dict__'
p44
S'{}'
p45
sS'__sizeof__'
p46
S'<built-in method __sizeof__ of exceptions.AttributeError object>'
p47
sS'__doc__'
p48
S"'Attribute not found.'"
p49
sS'__init__'
p50
S"<method-wrapper '__init__' of exceptions.AttributeError object>"
p51
sS'__new__'
p52
S'<built-in method __new__ of type object>'
p53
ssS'evalue'
p54
S"'list' object has no attribute 'request_collection'"
p55
sS'request'
p56
ccopy_reg
_reconstructor
p57
(cgluon.html
BEAUTIFY
p58
c__builtin__
object
p59
NtRp60
(dp61
S'attributes'
p62
(dp63
sS'components'
p64
(lp65
g57
(cgluon.html
TABLE
p66
g59
NtRp67
(dp68
g62
(dp69
S'level'
p70
I5
ssS'parent'
p71
Nsg64
(lp72
g57
(cgluon.html
TR
p73
g59
NtRp74
(dp75
g62
(dp76
sg71
g67
sg64
(lp77
g57
(cgluon.html
TD
p78
g59
NtRp79
(dp80
g62
(dp81
S'_style'
p82
S'font-weight:bold;vertical-align:top'
p83
ssg71
g74
sg64
(lp84
S'ajax'
p85
asbag57
(g78
g59
NtRp86
(dp87
g62
(dp88
S'_valign'
p89
S'top'
p90
ssg71
g74
sg64
(lp91
S':'
asbag57
(g78
g59
NtRp92
(dp93
g62
(dp94
sg71
g74
sg64
(lp95
g57
(g58
g59
NtRp96
(dp97
g62
(dp98
g70
I5
ssg71
g92
sg64
(lp99
S'False'
p100
asbasbasbag57
(g73
g59
NtRp101
(dp102
g62
(dp103
sg71
g67
sg64
(lp104
g57
(g78
g59
NtRp105
(dp106
g62
(dp107
g82
g83
ssg71
g101
sg64
(lp108
S'application'
p109
asbag57
(g78
g59
NtRp110
(dp111
g62
(dp112
g89
g90
ssg71
g101
sg64
(lp113
S':'
asbag57
(g78
g59
NtRp114
(dp115
g62
(dp116
sg71
g101
sg64
(lp117
g57
(g58
g59
NtRp118
(dp119
g62
(dp120
g70
I5
ssg71
g114
sg64
(lp121
S'Garbage_Truck'
p122
asbasbasbag57
(g73
g59
NtRp123
(dp124
g62
(dp125
sg71
g67
sg64
(lp126
g57
(g78
g59
NtRp127
(dp128
g62
(dp129
g82
g83
ssg71
g123
sg64
(lp130
g24
asbag57
(g78
g59
NtRp131
(dp132
g62
(dp133
g89
g90
ssg71
g123
sg64
(lp134
S':'
asbag57
(g78
g59
NtRp135
(dp136
g62
(dp137
sg71
g123
sg64
(lp138
g57
(g58
g59
NtRp139
(dp140
g62
(dp141
g70
I5
ssg71
g135
sg64
(lp142
g57
(g66
g59
NtRp143
(dp144
g62
(dp145
g70
I4
ssg71
Nsg64
(lp146
sbasbasbasbag57
(g73
g59
NtRp147
(dp148
g62
(dp149
sg71
g67
sg64
(lp150
g57
(g78
g59
NtRp151
(dp152
g62
(dp153
g82
g83
ssg71
g147
sg64
(lp154
S'body'
p155
asbag57
(g78
g59
NtRp156
(dp157
g62
(dp158
g89
g90
ssg71
g147
sg64
(lp159
S':'
asbag57
(g78
g59
NtRp160
(dp161
g62
(dp162
sg71
g147
sg64
(lp163
g57
(g58
g59
NtRp164
(dp165
g62
(dp166
g70
I5
ssg71
g160
sg64
(lp167
S'<cStringIO.StringO object at 0x7f92a866dab0>'
p168
asbasbasbag57
(g73
g59
NtRp169
(dp170
g62
(dp171
sg71
g67
sg64
(lp172
g57
(g78
g59
NtRp173
(dp174
g62
(dp175
g82
g83
ssg71
g169
sg64
(lp176
S'cid'
p177
asbag57
(g78
g59
NtRp178
(dp179
g62
(dp180
g89
g90
ssg71
g169
sg64
(lp181
S':'
asbag57
(g78
g59
NtRp182
(dp183
g62
(dp184
sg71
g169
sg64
(lp185
g57
(g58
g59
NtRp186
(dp187
g62
(dp188
g70
I5
ssg71
g182
sg64
(lp189
S'None'
p190
asbasbasbag57
(g73
g59
NtRp191
(dp192
g62
(dp193
sg71
g67
sg64
(lp194
g57
(g78
g59
NtRp195
(dp196
g62
(dp197
g82
g83
ssg71
g191
sg64
(lp198
S'client'
p199
asbag57
(g78
g59
NtRp200
(dp201
g62
(dp202
g89
g90
ssg71
g191
sg64
(lp203
S':'
asbag57
(g78
g59
NtRp204
(dp205
g62
(dp206
sg71
g191
sg64
(lp207
g57
(g58
g59
NtRp208
(dp209
g62
(dp210
g70
I5
ssg71
g204
sg64
(lp211
S'127.0.0.1'
p212
asbasbasbag57
(g73
g59
NtRp213
(dp214
g62
(dp215
sg71
g67
sg64
(lp216
g57
(g78
g59
NtRp217
(dp218
g62
(dp219
g82
g83
ssg71
g213
sg64
(lp220
S'controller'
p221
asbag57
(g78
g59
NtRp222
(dp223
g62
(dp224
g89
g90
ssg71
g213
sg64
(lp225
S':'
asbag57
(g78
g59
NtRp226
(dp227
g62
(dp228
sg71
g213
sg64
(lp229
g57
(g58
g59
NtRp230
(dp231
g62
(dp232
g70
I5
ssg71
g226
sg64
(lp233
S'default'
p234
asbasbasbag57
(g73
g59
NtRp235
(dp236
g62
(dp237
sg71
g67
sg64
(lp238
g57
(g78
g59
NtRp239
(dp240
g62
(dp241
g82
g83
ssg71
g235
sg64
(lp242
S'cookies'
p243
asbag57
(g78
g59
NtRp244
(dp245
g62
(dp246
g89
g90
ssg71
g235
sg64
(lp247
S':'
asbag57
(g78
g59
NtRp248
(dp249
g62
(dp250
sg71
g235
sg64
(lp251
g57
(g58
g59
NtRp252
(dp253
g62
(dp254
g70
I5
ssg71
g248
sg64
(lp255
g57
(g66
g59
NtRp256
(dp257
g62
(dp258
g70
I4
ssg71
Nsg64
(lp259
g57
(g73
g59
NtRp260
(dp261
g62
(dp262
sg71
g256
sg64
(lp263
g57
(g78
g59
NtRp264
(dp265
g62
(dp266
g82
g83
ssg71
g260
sg64
(lp267
S'csrftoken'
p268
asbag57
(g78
g59
NtRp269
(dp270
g62
(dp271
g89
g90
ssg71
g260
sg64
(lp272
S':'
asbag57
(g78
g59
NtRp273
(dp274
g62
(dp275
sg71
g260
sg64
(lp276
g57
(g58
g59
NtRp277
(dp278
g62
(dp279
g70
I4
ssg71
g273
sg64
(lp280
S'a9lCt5w7Q4OG437IZNwjtNB3YEdWYXWm'
p281
ag57
(g66
g59
NtRp282
(dp283
g62
(dp284
g70
I3
ssg71
Nsg64
(lp285
g57
(g73
g59
NtRp286
(dp287
g62
(dp288
sg71
g282
sg64
(lp289
g57
(g78
g59
NtRp290
(dp291
g62
(dp292
g82
g83
ssg71
g286
sg64
(lp293
S'comment'
p294
asbag57
(g78
g59
NtRp295
(dp296
g62
(dp297
g89
g90
ssg71
g286
sg64
(lp298
S':'
asbag57
(g78
g59
NtRp299
(dp300
g62
(dp301
sg71
g286
sg64
(lp302
g57
(g58
g59
NtRp303
(dp304
g62
(dp305
g70
I3
ssg71
g299
sg64
(lp306
S''
asbasbasbag57
(g73
g59
NtRp307
(dp308
g62
(dp309
sg71
g282
sg64
(lp310
g57
(g78
g59
NtRp311
(dp312
g62
(dp313
g82
g83
ssg71
g307
sg64
(lp314
S'domain'
p315
asbag57
(g78
g59
NtRp316
(dp317
g62
(dp318
g89
g90
ssg71
g307
sg64
(lp319
S':'
asbag57
(g78
g59
NtRp320
(dp321
g62
(dp322
sg71
g307
sg64
(lp323
g57
(g58
g59
NtRp324
(dp325
g62
(dp326
g70
I3
ssg71
g320
sg64
(lp327
S''
asbasbasbag57
(g73
g59
NtRp328
(dp329
g62
(dp330
sg71
g282
sg64
(lp331
g57
(g78
g59
NtRp332
(dp333
g62
(dp334
g82
g83
ssg71
g328
sg64
(lp335
S'expires'
p336
asbag57
(g78
g59
NtRp337
(dp338
g62
(dp339
g89
g90
ssg71
g328
sg64
(lp340
S':'
asbag57
(g78
g59
NtRp341
(dp342
g62
(dp343
sg71
g328
sg64
(lp344
g57
(g58
g59
NtRp345
(dp346
g62
(dp347
g70
I3
ssg71
g341
sg64
(lp348
S''
asbasbasbag57
(g73
g59
NtRp349
(dp350
g62
(dp351
sg71
g282
sg64
(lp352
g57
(g78
g59
NtRp353
(dp354
g62
(dp355
g82
g83
ssg71
g349
sg64
(lp356
S'httponly'
p357
asbag57
(g78
g59
NtRp358
(dp359
g62
(dp360
g89
g90
ssg71
g349
sg64
(lp361
S':'
asbag57
(g78
g59
NtRp362
(dp363
g62
(dp364
sg71
g349
sg64
(lp365
g57
(g58
g59
NtRp366
(dp367
g62
(dp368
g70
I3
ssg71
g362
sg64
(lp369
S''
asbasbasbag57
(g73
g59
NtRp370
(dp371
g62
(dp372
sg71
g282
sg64
(lp373
g57
(g78
g59
NtRp374
(dp375
g62
(dp376
g82
g83
ssg71
g370
sg64
(lp377
S'max-age'
p378
asbag57
(g78
g59
NtRp379
(dp380
g62
(dp381
g89
g90
ssg71
g370
sg64
(lp382
S':'
asbag57
(g78
g59
NtRp383
(dp384
g62
(dp385
sg71
g370
sg64
(lp386
g57
(g58
g59
NtRp387
(dp388
g62
(dp389
g70
I3
ssg71
g383
sg64
(lp390
S''
asbasbasbag57
(g73
g59
NtRp391
(dp392
g62
(dp393
sg71
g282
sg64
(lp394
g57
(g78
g59
NtRp395
(dp396
g62
(dp397
g82
g83
ssg71
g391
sg64
(lp398
S'path'
p399
asbag57
(g78
g59
NtRp400
(dp401
g62
(dp402
g89
g90
ssg71
g391
sg64
(lp403
S':'
asbag57
(g78
g59
NtRp404
(dp405
g62
(dp406
sg71
g391
sg64
(lp407
g57
(g58
g59
NtRp408
(dp409
g62
(dp410
g70
I3
ssg71
g404
sg64
(lp411
S''
asbasbasbag57
(g73
g59
NtRp412
(dp413
g62
(dp414
sg71
g282
sg64
(lp415
g57
(g78
g59
NtRp416
(dp417
g62
(dp418
g82
g83
ssg71
g412
sg64
(lp419
S'secure'
p420
asbag57
(g78
g59
NtRp421
(dp422
g62
(dp423
g89
g90
ssg71
g412
sg64
(lp424
S':'
asbag57
(g78
g59
NtRp425
(dp426
g62
(dp427
sg71
g412
sg64
(lp428
g57
(g58
g59
NtRp429
(dp430
g62
(dp431
g70
I3
ssg71
g425
sg64
(lp432
S''
asbasbasbag57
(g73
g59
NtRp433
(dp434
g62
(dp435
sg71
g282
sg64
(lp436
g57
(g78
g59
NtRp437
(dp438
g62
(dp439
g82
g83
ssg71
g433
sg64
(lp440
S'version'
p441
asbag57
(g78
g59
NtRp442
(dp443
g62
(dp444
g89
g90
ssg71
g433
sg64
(lp445
S':'
asbag57
(g78
g59
NtRp446
(dp447
g62
(dp448
sg71
g433
sg64
(lp449
g57
(g58
g59
NtRp450
(dp451
g62
(dp452
g70
I3
ssg71
g446
sg64
(lp453
S''
asbasbasbasbasbasbasbag57
(g73
g59
NtRp454
(dp455
g62
(dp456
sg71
g256
sg64
(lp457
g57
(g78
g59
NtRp458
(dp459
g62
(dp460
g82
g83
ssg71
g454
sg64
(lp461
S'session_id_admin'
p462
asbag57
(g78
g59
NtRp463
(dp464
g62
(dp465
g89
g90
ssg71
g454
sg64
(lp466
S':'
asbag57
(g78
g59
NtRp467
(dp468
g62
(dp469
sg71
g454
sg64
(lp470
g57
(g58
g59
NtRp471
(dp472
g62
(dp473
g70
I4
ssg71
g467
sg64
(lp474
S'127.0.0.1-e6c203e9-d008-4610-8523-5a0e93da9abb'
p475
ag57
(g66
g59
NtRp476
(dp477
g62
(dp478
g70
I3
ssg71
Nsg64
(lp479
g57
(g73
g59
NtRp480
(dp481
g62
(dp482
sg71
g476
sg64
(lp483
g57
(g78
g59
NtRp484
(dp485
g62
(dp486
g82
g83
ssg71
g480
sg64
(lp487
g294
asbag57
(g78
g59
NtRp488
(dp489
g62
(dp490
g89
g90
ssg71
g480
sg64
(lp491
S':'
asbag57
(g78
g59
NtRp492
(dp493
g62
(dp494
sg71
g480
sg64
(lp495
g57
(g58
g59
NtRp496
(dp497
g62
(dp498
g70
I3
ssg71
g492
sg64
(lp499
S''
asbasbasbag57
(g73
g59
NtRp500
(dp501
g62
(dp502
sg71
g476
sg64
(lp503
g57
(g78
g59
NtRp504
(dp505
g62
(dp506
g82
g83
ssg71
g500
sg64
(lp507
g315
asbag57
(g78
g59
NtRp508
(dp509
g62
(dp510
g89
g90
ssg71
g500
sg64
(lp511
S':'
asbag57
(g78
g59
NtRp512
(dp513
g62
(dp514
sg71
g500
sg64
(lp515
g57
(g58
g59
NtRp516
(dp517
g62
(dp518
g70
I3
ssg71
g512
sg64
(lp519
S''
asbasbasbag57
(g73
g59
NtRp520
(dp521
g62
(dp522
sg71
g476
sg64
(lp523
g57
(g78
g59
NtRp524
(dp525
g62
(dp526
g82
g83
ssg71
g520
sg64
(lp527
g336
asbag57
(g78
g59
NtRp528
(dp529
g62
(dp530
g89
g90
ssg71
g520
sg64
(lp531
S':'
asbag57
(g78
g59
NtRp532
(dp533
g62
(dp534
sg71
g520
sg64
(lp535
g57
(g58
g59
NtRp536
(dp537
g62
(dp538
g70
I3
ssg71
g532
sg64
(lp539
S''
asbasbasbag57
(g73
g59
NtRp540
(dp541
g62
(dp542
sg71
g476
sg64
(lp543
g57
(g78
g59
NtRp544
(dp545
g62
(dp546
g82
g83
ssg71
g540
sg64
(lp547
g357
asbag57
(g78
g59
NtRp548
(dp549
g62
(dp550
g89
g90
ssg71
g540
sg64
(lp551
S':'
asbag57
(g78
g59
NtRp552
(dp553
g62
(dp554
sg71
g540
sg64
(lp555
g57
(g58
g59
NtRp556
(dp557
g62
(dp558
g70
I3
ssg71
g552
sg64
(lp559
S''
asbasbasbag57
(g73
g59
NtRp560
(dp561
g62
(dp562
sg71
g476
sg64
(lp563
g57
(g78
g59
NtRp564
(dp565
g62
(dp566
g82
g83
ssg71
g560
sg64
(lp567
g378
asbag57
(g78
g59
NtRp568
(dp569
g62
(dp570
g89
g90
ssg71
g560
sg64
(lp571
S':'
asbag57
(g78
g59
NtRp572
(dp573
g62
(dp574
sg71
g560
sg64
(lp575
g57
(g58
g59
NtRp576
(dp577
g62
(dp578
g70
I3
ssg71
g572
sg64
(lp579
S''
asbasbasbag57
(g73
g59
NtRp580
(dp581
g62
(dp582
sg71
g476
sg64
(lp583
g57
(g78
g59
NtRp584
(dp585
g62
(dp586
g82
g83
ssg71
g580
sg64
(lp587
g399
asbag57
(g78
g59
NtRp588
(dp589
g62
(dp590
g89
g90
ssg71
g580
sg64
(lp591
S':'
asbag57
(g78
g59
NtRp592
(dp593
g62
(dp594
sg71
g580
sg64
(lp595
g57
(g58
g59
NtRp596
(dp597
g62
(dp598
g70
I3
ssg71
g592
sg64
(lp599
S''
asbasbasbag57
(g73
g59
NtRp600
(dp601
g62
(dp602
sg71
g476
sg64
(lp603
g57
(g78
g59
NtRp604
(dp605
g62
(dp606
g82
g83
ssg71
g600
sg64
(lp607
g420
asbag57
(g78
g59
NtRp608
(dp609
g62
(dp610
g89
g90
ssg71
g600
sg64
(lp611
S':'
asbag57
(g78
g59
NtRp612
(dp613
g62
(dp614
sg71
g600
sg64
(lp615
g57
(g58
g59
NtRp616
(dp617
g62
(dp618
g70
I3
ssg71
g612
sg64
(lp619
S''
asbasbasbag57
(g73
g59
NtRp620
(dp621
g62
(dp622
sg71
g476
sg64
(lp623
g57
(g78
g59
NtRp624
(dp625
g62
(dp626
g82
g83
ssg71
g620
sg64
(lp627
g441
asbag57
(g78
g59
NtRp628
(dp629
g62
(dp630
g89
g90
ssg71
g620
sg64
(lp631
S':'
asbag57
(g78
g59
NtRp632
(dp633
g62
(dp634
sg71
g620
sg64
(lp635
g57
(g58
g59
NtRp636
(dp637
g62
(dp638
g70
I3
ssg71
g632
sg64
(lp639
S''
asbasbasbasbasbasbasbag57
(g73
g59
NtRp640
(dp641
g62
(dp642
sg71
g256
sg64
(lp643
g57
(g78
g59
NtRp644
(dp645
g62
(dp646
g82
g83
ssg71
g640
sg64
(lp647
S'session_id_garbage_truck'
p648
asbag57
(g78
g59
NtRp649
(dp650
g62
(dp651
g89
g90
ssg71
g640
sg64
(lp652
S':'
asbag57
(g78
g59
NtRp653
(dp654
g62
(dp655
sg71
g640
sg64
(lp656
g57
(g58
g59
NtRp657
(dp658
g62
(dp659
g70
I4
ssg71
g653
sg64
(lp660
S'127.0.0.1-eb5e8630-3789-44cf-90c0-4c0a37fc535a'
p661
ag57
(g66
g59
NtRp662
(dp663
g62
(dp664
g70
I3
ssg71
Nsg64
(lp665
g57
(g73
g59
NtRp666
(dp667
g62
(dp668
sg71
g662
sg64
(lp669
g57
(g78
g59
NtRp670
(dp671
g62
(dp672
g82
g83
ssg71
g666
sg64
(lp673
g294
asbag57
(g78
g59
NtRp674
(dp675
g62
(dp676
g89
g90
ssg71
g666
sg64
(lp677
S':'
asbag57
(g78
g59
NtRp678
(dp679
g62
(dp680
sg71
g666
sg64
(lp681
g57
(g58
g59
NtRp682
(dp683
g62
(dp684
g70
I3
ssg71
g678
sg64
(lp685
S''
asbasbasbag57
(g73
g59
NtRp686
(dp687
g62
(dp688
sg71
g662
sg64
(lp689
g57
(g78
g59
NtRp690
(dp691
g62
(dp692
g82
g83
ssg71
g686
sg64
(lp693
g315
asbag57
(g78
g59
NtRp694
(dp695
g62
(dp696
g89
g90
ssg71
g686
sg64
(lp697
S':'
asbag57
(g78
g59
NtRp698
(dp699
g62
(dp700
sg71
g686
sg64
(lp701
g57
(g58
g59
NtRp702
(dp703
g62
(dp704
g70
I3
ssg71
g698
sg64
(lp705
S''
asbasbasbag57
(g73
g59
NtRp706
(dp707
g62
(dp708
sg71
g662
sg64
(lp709
g57
(g78
g59
NtRp710
(dp711
g62
(dp712
g82
g83
ssg71
g706
sg64
(lp713
g336
asbag57
(g78
g59
NtRp714
(dp715
g62
(dp716
g89
g90
ssg71
g706
sg64
(lp717
S':'
asbag57
(g78
g59
NtRp718
(dp719
g62
(dp720
sg71
g706
sg64
(lp721
g57
(g58
g59
NtRp722
(dp723
g62
(dp724
g70
I3
ssg71
g718
sg64
(lp725
S''
asbasbasbag57
(g73
g59
NtRp726
(dp727
g62
(dp728
sg71
g662
sg64
(lp729
g57
(g78
g59
NtRp730
(dp731
g62
(dp732
g82
g83
ssg71
g726
sg64
(lp733
g357
asbag57
(g78
g59
NtRp734
(dp735
g62
(dp736
g89
g90
ssg71
g726
sg64
(lp737
S':'
asbag57
(g78
g59
NtRp738
(dp739
g62
(dp740
sg71
g726
sg64
(lp741
g57
(g58
g59
NtRp742
(dp743
g62
(dp744
g70
I3
ssg71
g738
sg64
(lp745
S''
asbasbasbag57
(g73
g59
NtRp746
(dp747
g62
(dp748
sg71
g662
sg64
(lp749
g57
(g78
g59
NtRp750
(dp751
g62
(dp752
g82
g83
ssg71
g746
sg64
(lp753
g378
asbag57
(g78
g59
NtRp754
(dp755
g62
(dp756
g89
g90
ssg71
g746
sg64
(lp757
S':'
asbag57
(g78
g59
NtRp758
(dp759
g62
(dp760
sg71
g746
sg64
(lp761
g57
(g58
g59
NtRp762
(dp763
g62
(dp764
g70
I3
ssg71
g758
sg64
(lp765
S''
asbasbasbag57
(g73
g59
NtRp766
(dp767
g62
(dp768
sg71
g662
sg64
(lp769
g57
(g78
g59
NtRp770
(dp771
g62
(dp772
g82
g83
ssg71
g766
sg64
(lp773
g399
asbag57
(g78
g59
NtRp774
(dp775
g62
(dp776
g89
g90
ssg71
g766
sg64
(lp777
S':'
asbag57
(g78
g59
NtRp778
(dp779
g62
(dp780
sg71
g766
sg64
(lp781
g57
(g58
g59
NtRp782
(dp783
g62
(dp784
g70
I3
ssg71
g778
sg64
(lp785
S''
asbasbasbag57
(g73
g59
NtRp786
(dp787
g62
(dp788
sg71
g662
sg64
(lp789
g57
(g78
g59
NtRp790
(dp791
g62
(dp792
g82
g83
ssg71
g786
sg64
(lp793
g420
asbag57
(g78
g59
NtRp794
(dp795
g62
(dp796
g89
g90
ssg71
g786
sg64
(lp797
S':'
asbag57
(g78
g59
NtRp798
(dp799
g62
(dp800
sg71
g786
sg64
(lp801
g57
(g58
g59
NtRp802
(dp803
g62
(dp804
g70
I3
ssg71
g798
sg64
(lp805
S''
asbasbasbag57
(g73
g59
NtRp806
(dp807
g62
(dp808
sg71
g662
sg64
(lp809
g57
(g78
g59
NtRp810
(dp811
g62
(dp812
g82
g83
ssg71
g806
sg64
(lp813
g441
asbag57
(g78
g59
NtRp814
(dp815
g62
(dp816
g89
g90
ssg71
g806
sg64
(lp817
S':'
asbag57
(g78
g59
NtRp818
(dp819
g62
(dp820
sg71
g806
sg64
(lp821
g57
(g58
g59
NtRp822
(dp823
g62
(dp824
g70
I3
ssg71
g818
sg64
(lp825
S''
asbasbasbasbasbasbasbag57
(g73
g59
NtRp826
(dp827
g62
(dp828
sg71
g256
sg64
(lp829
g57
(g78
g59
NtRp830
(dp831
g62
(dp832
g82
g83
ssg71
g826
sg64
(lp833
S'session_id_isas'
p834
asbag57
(g78
g59
NtRp835
(dp836
g62
(dp837
g89
g90
ssg71
g826
sg64
(lp838
S':'
asbag57
(g78
g59
NtRp839
(dp840
g62
(dp841
sg71
g826
sg64
(lp842
g57
(g58
g59
NtRp843
(dp844
g62
(dp845
g70
I4
ssg71
g839
sg64
(lp846
S'127.0.0.1-46261fb6-868f-4eb5-ae61-7251ec9ac039'
p847
ag57
(g66
g59
NtRp848
(dp849
g62
(dp850
g70
I3
ssg71
Nsg64
(lp851
g57
(g73
g59
NtRp852
(dp853
g62
(dp854
sg71
g848
sg64
(lp855
g57
(g78
g59
NtRp856
(dp857
g62
(dp858
g82
g83
ssg71
g852
sg64
(lp859
g294
asbag57
(g78
g59
NtRp860
(dp861
g62
(dp862
g89
g90
ssg71
g852
sg64
(lp863
S':'
asbag57
(g78
g59
NtRp864
(dp865
g62
(dp866
sg71
g852
sg64
(lp867
g57
(g58
g59
NtRp868
(dp869
g62
(dp870
g70
I3
ssg71
g864
sg64
(lp871
S''
asbasbasbag57
(g73
g59
NtRp872
(dp873
g62
(dp874
sg71
g848
sg64
(lp875
g57
(g78
g59
NtRp876
(dp877
g62
(dp878
g82
g83
ssg71
g872
sg64
(lp879
g315
asbag57
(g78
g59
NtRp880
(dp881
g62
(dp882
g89
g90
ssg71
g872
sg64
(lp883
S':'
asbag57
(g78
g59
NtRp884
(dp885
g62
(dp886
sg71
g872
sg64
(lp887
g57
(g58
g59
NtRp888
(dp889
g62
(dp890
g70
I3
ssg71
g884
sg64
(lp891
S''
asbasbasbag57
(g73
g59
NtRp892
(dp893
g62
(dp894
sg71
g848
sg64
(lp895
g57
(g78
g59
NtRp896
(dp897
g62
(dp898
g82
g83
ssg71
g892
sg64
(lp899
g336
asbag57
(g78
g59
NtRp900
(dp901
g62
(dp902
g89
g90
ssg71
g892
sg64
(lp903
S':'
asbag57
(g78
g59
NtRp904
(dp905
g62
(dp906
sg71
g892
sg64
(lp907
g57
(g58
g59
NtRp908
(dp909
g62
(dp910
g70
I3
ssg71
g904
sg64
(lp911
S''
asbasbasbag57
(g73
g59
NtRp912
(dp913
g62
(dp914
sg71
g848
sg64
(lp915
g57
(g78
g59
NtRp916
(dp917
g62
(dp918
g82
g83
ssg71
g912
sg64
(lp919
g357
asbag57
(g78
g59
NtRp920
(dp921
g62
(dp922
g89
g90
ssg71
g912
sg64
(lp923
S':'
asbag57
(g78
g59
NtRp924
(dp925
g62
(dp926
sg71
g912
sg64
(lp927
g57
(g58
g59
NtRp928
(dp929
g62
(dp930
g70
I3
ssg71
g924
sg64
(lp931
S''
asbasbasbag57
(g73
g59
NtRp932
(dp933
g62
(dp934
sg71
g848
sg64
(lp935
g57
(g78
g59
NtRp936
(dp937
g62
(dp938
g82
g83
ssg71
g932
sg64
(lp939
g378
asbag57
(g78
g59
NtRp940
(dp941
g62
(dp942
g89
g90
ssg71
g932
sg64
(lp943
S':'
asbag57
(g78
g59
NtRp944
(dp945
g62
(dp946
sg71
g932
sg64
(lp947
g57
(g58
g59
NtRp948
(dp949
g62
(dp950
g70
I3
ssg71
g944
sg64
(lp951
S''
asbasbasbag57
(g73
g59
NtRp952
(dp953
g62
(dp954
sg71
g848
sg64
(lp955
g57
(g78
g59
NtRp956
(dp957
g62
(dp958
g82
g83
ssg71
g952
sg64
(lp959
g399
asbag57
(g78
g59
NtRp960
(dp961
g62
(dp962
g89
g90
ssg71
g952
sg64
(lp963
S':'
asbag57
(g78
g59
NtRp964
(dp965
g62
(dp966
sg71
g952
sg64
(lp967
g57
(g58
g59
NtRp968
(dp969
g62
(dp970
g70
I3
ssg71
g964
sg64
(lp971
S''
asbasbasbag57
(g73
g59
NtRp972
(dp973
g62
(dp974
sg71
g848
sg64
(lp975
g57
(g78
g59
NtRp976
(dp977
g62
(dp978
g82
g83
ssg71
g972
sg64
(lp979
g420
asbag57
(g78
g59
NtRp980
(dp981
g62
(dp982
g89
g90
ssg71
g972
sg64
(lp983
S':'
asbag57
(g78
g59
NtRp984
(dp985
g62
(dp986
sg71
g972
sg64
(lp987
g57
(g58
g59
NtRp988
(dp989
g62
(dp990
g70
I3
ssg71
g984
sg64
(lp991
S''
asbasbasbag57
(g73
g59
NtRp992
(dp993
g62
(dp994
sg71
g848
sg64
(lp995
g57
(g78
g59
NtRp996
(dp997
g62
(dp998
g82
g83
ssg71
g992
sg64
(lp999
g441
asbag57
(g78
g59
NtRp1000
(dp1001
g62
(dp1002
g89
g90
ssg71
g992
sg64
(lp1003
S':'
asbag57
(g78
g59
NtRp1004
(dp1005
g62
(dp1006
sg71
g992
sg64
(lp1007
g57
(g58
g59
NtRp1008
(dp1009
g62
(dp1010
g70
I3
ssg71
g1004
sg64
(lp1011
S''
asbasbasbasbasbasbasbag57
(g73
g59
NtRp1012
(dp1013
g62
(dp1014
sg71
g256
sg64
(lp1015
g57
(g78
g59
NtRp1016
(dp1017
g62
(dp1018
g82
g83
ssg71
g1012
sg64
(lp1019
S'session_id_readit'
p1020
asbag57
(g78
g59
NtRp1021
(dp1022
g62
(dp1023
g89
g90
ssg71
g1012
sg64
(lp1024
S':'
asbag57
(g78
g59
NtRp1025
(dp1026
g62
(dp1027
sg71
g1012
sg64
(lp1028
g57
(g58
g59
NtRp1029
(dp1030
g62
(dp1031
g70
I4
ssg71
g1025
sg64
(lp1032
S'127.0.0.1-e391c20a-8d22-4e6d-a1c8-f85c00f99b3d'
p1033
ag57
(g66
g59
NtRp1034
(dp1035
g62
(dp1036
g70
I3
ssg71
Nsg64
(lp1037
g57
(g73
g59
NtRp1038
(dp1039
g62
(dp1040
sg71
g1034
sg64
(lp1041
g57
(g78
g59
NtRp1042
(dp1043
g62
(dp1044
g82
g83
ssg71
g1038
sg64
(lp1045
g294
asbag57
(g78
g59
NtRp1046
(dp1047
g62
(dp1048
g89
g90
ssg71
g1038
sg64
(lp1049
S':'
asbag57
(g78
g59
NtRp1050
(dp1051
g62
(dp1052
sg71
g1038
sg64
(lp1053
g57
(g58
g59
NtRp1054
(dp1055
g62
(dp1056
g70
I3
ssg71
g1050
sg64
(lp1057
S''
asbasbasbag57
(g73
g59
NtRp1058
(dp1059
g62
(dp1060
sg71
g1034
sg64
(lp1061
g57
(g78
g59
NtRp1062
(dp1063
g62
(dp1064
g82
g83
ssg71
g1058
sg64
(lp1065
g315
asbag57
(g78
g59
NtRp1066
(dp1067
g62
(dp1068
g89
g90
ssg71
g1058
sg64
(lp1069
S':'
asbag57
(g78
g59
NtRp1070
(dp1071
g62
(dp1072
sg71
g1058
sg64
(lp1073
g57
(g58
g59
NtRp1074
(dp1075
g62
(dp1076
g70
I3
ssg71
g1070
sg64
(lp1077
S''
asbasbasbag57
(g73
g59
NtRp1078
(dp1079
g62
(dp1080
sg71
g1034
sg64
(lp1081
g57
(g78
g59
NtRp1082
(dp1083
g62
(dp1084
g82
g83
ssg71
g1078
sg64
(lp1085
g336
asbag57
(g78
g59
NtRp1086
(dp1087
g62
(dp1088
g89
g90
ssg71
g1078
sg64
(lp1089
S':'
asbag57
(g78
g59
NtRp1090
(dp1091
g62
(dp1092
sg71
g1078
sg64
(lp1093
g57
(g58
g59
NtRp1094
(dp1095
g62
(dp1096
g70
I3
ssg71
g1090
sg64
(lp1097
S''
asbasbasbag57
(g73
g59
NtRp1098
(dp1099
g62
(dp1100
sg71
g1034
sg64
(lp1101
g57
(g78
g59
NtRp1102
(dp1103
g62
(dp1104
g82
g83
ssg71
g1098
sg64
(lp1105
g357
asbag57
(g78
g59
NtRp1106
(dp1107
g62
(dp1108
g89
g90
ssg71
g1098
sg64
(lp1109
S':'
asbag57
(g78
g59
NtRp1110
(dp1111
g62
(dp1112
sg71
g1098
sg64
(lp1113
g57
(g58
g59
NtRp1114
(dp1115
g62
(dp1116
g70
I3
ssg71
g1110
sg64
(lp1117
S''
asbasbasbag57
(g73
g59
NtRp1118
(dp1119
g62
(dp1120
sg71
g1034
sg64
(lp1121
g57
(g78
g59
NtRp1122
(dp1123
g62
(dp1124
g82
g83
ssg71
g1118
sg64
(lp1125
g378
asbag57
(g78
g59
NtRp1126
(dp1127
g62
(dp1128
g89
g90
ssg71
g1118
sg64
(lp1129
S':'
asbag57
(g78
g59
NtRp1130
(dp1131
g62
(dp1132
sg71
g1118
sg64
(lp1133
g57
(g58
g59
NtRp1134
(dp1135
g62
(dp1136
g70
I3
ssg71
g1130
sg64
(lp1137
S''
asbasbasbag57
(g73
g59
NtRp1138
(dp1139
g62
(dp1140
sg71
g1034
sg64
(lp1141
g57
(g78
g59
NtRp1142
(dp1143
g62
(dp1144
g82
g83
ssg71
g1138
sg64
(lp1145
g399
asbag57
(g78
g59
NtRp1146
(dp1147
g62
(dp1148
g89
g90
ssg71
g1138
sg64
(lp1149
S':'
asbag57
(g78
g59
NtRp1150
(dp1151
g62
(dp1152
sg71
g1138
sg64
(lp1153
g57
(g58
g59
NtRp1154
(dp1155
g62
(dp1156
g70
I3
ssg71
g1150
sg64
(lp1157
S''
asbasbasbag57
(g73
g59
NtRp1158
(dp1159
g62
(dp1160
sg71
g1034
sg64
(lp1161
g57
(g78
g59
NtRp1162
(dp1163
g62
(dp1164
g82
g83
ssg71
g1158
sg64
(lp1165
g420
asbag57
(g78
g59
NtRp1166
(dp1167
g62
(dp1168
g89
g90
ssg71
g1158
sg64
(lp1169
S':'
asbag57
(g78
g59
NtRp1170
(dp1171
g62
(dp1172
sg71
g1158
sg64
(lp1173
g57
(g58
g59
NtRp1174
(dp1175
g62
(dp1176
g70
I3
ssg71
g1170
sg64
(lp1177
S''
asbasbasbag57
(g73
g59
NtRp1178
(dp1179
g62
(dp1180
sg71
g1034
sg64
(lp1181
g57
(g78
g59
NtRp1182
(dp1183
g62
(dp1184
g82
g83
ssg71
g1178
sg64
(lp1185
g441
asbag57
(g78
g59
NtRp1186
(dp1187
g62
(dp1188
g89
g90
ssg71
g1178
sg64
(lp1189
S':'
asbag57
(g78
g59
NtRp1190
(dp1191
g62
(dp1192
sg71
g1178
sg64
(lp1193
g57
(g58
g59
NtRp1194
(dp1195
g62
(dp1196
g70
I3
ssg71
g1190
sg64
(lp1197
S''
asbasbasbasbasbasbasbag57
(g73
g59
NtRp1198
(dp1199
g62
(dp1200
sg71
g256
sg64
(lp1201
g57
(g78
g59
NtRp1202
(dp1203
g62
(dp1204
g82
g83
ssg71
g1198
sg64
(lp1205
S'session_id_welcome'
p1206
asbag57
(g78
g59
NtRp1207
(dp1208
g62
(dp1209
g89
g90
ssg71
g1198
sg64
(lp1210
S':'
asbag57
(g78
g59
NtRp1211
(dp1212
g62
(dp1213
sg71
g1198
sg64
(lp1214
g57
(g58
g59
NtRp1215
(dp1216
g62
(dp1217
g70
I4
ssg71
g1211
sg64
(lp1218
S'127.0.0.1-2837c0cc-fb0c-4598-b75f-5727d328e2ad'
p1219
ag57
(g66
g59
NtRp1220
(dp1221
g62
(dp1222
g70
I3
ssg71
Nsg64
(lp1223
g57
(g73
g59
NtRp1224
(dp1225
g62
(dp1226
sg71
g1220
sg64
(lp1227
g57
(g78
g59
NtRp1228
(dp1229
g62
(dp1230
g82
g83
ssg71
g1224
sg64
(lp1231
g294
asbag57
(g78
g59
NtRp1232
(dp1233
g62
(dp1234
g89
g90
ssg71
g1224
sg64
(lp1235
S':'
asbag57
(g78
g59
NtRp1236
(dp1237
g62
(dp1238
sg71
g1224
sg64
(lp1239
g57
(g58
g59
NtRp1240
(dp1241
g62
(dp1242
g70
I3
ssg71
g1236
sg64
(lp1243
S''
asbasbasbag57
(g73
g59
NtRp1244
(dp1245
g62
(dp1246
sg71
g1220
sg64
(lp1247
g57
(g78
g59
NtRp1248
(dp1249
g62
(dp1250
g82
g83
ssg71
g1244
sg64
(lp1251
g315
asbag57
(g78
g59
NtRp1252
(dp1253
g62
(dp1254
g89
g90
ssg71
g1244
sg64
(lp1255
S':'
asbag57
(g78
g59
NtRp1256
(dp1257
g62
(dp1258
sg71
g1244
sg64
(lp1259
g57
(g58
g59
NtRp1260
(dp1261
g62
(dp1262
g70
I3
ssg71
g1256
sg64
(lp1263
S''
asbasbasbag57
(g73
g59
NtRp1264
(dp1265
g62
(dp1266
sg71
g1220
sg64
(lp1267
g57
(g78
g59
NtRp1268
(dp1269
g62
(dp1270
g82
g83
ssg71
g1264
sg64
(lp1271
g336
asbag57
(g78
g59
NtRp1272
(dp1273
g62
(dp1274
g89
g90
ssg71
g1264
sg64
(lp1275
S':'
asbag57
(g78
g59
NtRp1276
(dp1277
g62
(dp1278
sg71
g1264
sg64
(lp1279
g57
(g58
g59
NtRp1280
(dp1281
g62
(dp1282
g70
I3
ssg71
g1276
sg64
(lp1283
S''
asbasbasbag57
(g73
g59
NtRp1284
(dp1285
g62
(dp1286
sg71
g1220
sg64
(lp1287
g57
(g78
g59
NtRp1288
(dp1289
g62
(dp1290
g82
g83
ssg71
g1284
sg64
(lp1291
g357
asbag57
(g78
g59
NtRp1292
(dp1293
g62
(dp1294
g89
g90
ssg71
g1284
sg64
(lp1295
S':'
asbag57
(g78
g59
NtRp1296
(dp1297
g62
(dp1298
sg71
g1284
sg64
(lp1299
g57
(g58
g59
NtRp1300
(dp1301
g62
(dp1302
g70
I3
ssg71
g1296
sg64
(lp1303
S''
asbasbasbag57
(g73
g59
NtRp1304
(dp1305
g62
(dp1306
sg71
g1220
sg64
(lp1307
g57
(g78
g59
NtRp1308
(dp1309
g62
(dp1310
g82
g83
ssg71
g1304
sg64
(lp1311
g378
asbag57
(g78
g59
NtRp1312
(dp1313
g62
(dp1314
g89
g90
ssg71
g1304
sg64
(lp1315
S':'
asbag57
(g78
g59
NtRp1316
(dp1317
g62
(dp1318
sg71
g1304
sg64
(lp1319
g57
(g58
g59
NtRp1320
(dp1321
g62
(dp1322
g70
I3
ssg71
g1316
sg64
(lp1323
S''
asbasbasbag57
(g73
g59
NtRp1324
(dp1325
g62
(dp1326
sg71
g1220
sg64
(lp1327
g57
(g78
g59
NtRp1328
(dp1329
g62
(dp1330
g82
g83
ssg71
g1324
sg64
(lp1331
g399
asbag57
(g78
g59
NtRp1332
(dp1333
g62
(dp1334
g89
g90
ssg71
g1324
sg64
(lp1335
S':'
asbag57
(g78
g59
NtRp1336
(dp1337
g62
(dp1338
sg71
g1324
sg64
(lp1339
g57
(g58
g59
NtRp1340
(dp1341
g62
(dp1342
g70
I3
ssg71
g1336
sg64
(lp1343
S''
asbasbasbag57
(g73
g59
NtRp1344
(dp1345
g62
(dp1346
sg71
g1220
sg64
(lp1347
g57
(g78
g59
NtRp1348
(dp1349
g62
(dp1350
g82
g83
ssg71
g1344
sg64
(lp1351
g420
asbag57
(g78
g59
NtRp1352
(dp1353
g62
(dp1354
g89
g90
ssg71
g1344
sg64
(lp1355
S':'
asbag57
(g78
g59
NtRp1356
(dp1357
g62
(dp1358
sg71
g1344
sg64
(lp1359
g57
(g58
g59
NtRp1360
(dp1361
g62
(dp1362
g70
I3
ssg71
g1356
sg64
(lp1363
S''
asbasbasbag57
(g73
g59
NtRp1364
(dp1365
g62
(dp1366
sg71
g1220
sg64
(lp1367
g57
(g78
g59
NtRp1368
(dp1369
g62
(dp1370
g82
g83
ssg71
g1364
sg64
(lp1371
g441
asbag57
(g78
g59
NtRp1372
(dp1373
g62
(dp1374
g89
g90
ssg71
g1364
sg64
(lp1375
S':'
asbag57
(g78
g59
NtRp1376
(dp1377
g62
(dp1378
sg71
g1364
sg64
(lp1379
g57
(g58
g59
NtRp1380
(dp1381
g62
(dp1382
g70
I3
ssg71
g1376
sg64
(lp1383
S''
asbasbasbasbasbasbasbasbasbasbasbag57
(g73
g59
NtRp1384
(dp1385
g62
(dp1386
sg71
g67
sg64
(lp1387
g57
(g78
g59
NtRp1388
(dp1389
g62
(dp1390
g82
g83
ssg71
g1384
sg64
(lp1391
S'env'
p1392
asbag57
(g78
g59
NtRp1393
(dp1394
g62
(dp1395
g89
g90
ssg71
g1384
sg64
(lp1396
S':'
asbag57
(g78
g59
NtRp1397
(dp1398
g62
(dp1399
sg71
g1384
sg64
(lp1400
g57
(g58
g59
NtRp1401
(dp1402
g62
(dp1403
g70
I5
ssg71
g1397
sg64
(lp1404
g57
(g66
g59
NtRp1405
(dp1406
g62
(dp1407
g70
I4
ssg71
Nsg64
(lp1408
g57
(g73
g59
NtRp1409
(dp1410
g62
(dp1411
sg71
g1405
sg64
(lp1412
g57
(g78
g59
NtRp1413
(dp1414
g62
(dp1415
g82
g83
ssg71
g1409
sg64
(lp1416
S'app_folders'
p1417
asbag57
(g78
g59
NtRp1418
(dp1419
g62
(dp1420
g89
g90
ssg71
g1409
sg64
(lp1421
S':'
asbag57
(g78
g59
NtRp1422
(dp1423
g62
(dp1424
sg71
g1409
sg64
(lp1425
g57
(g58
g59
NtRp1426
(dp1427
g62
(dp1428
g70
I4
ssg71
g1422
sg64
(lp1429
S"set(['/home/darshan/web2py/applications/Isas/', '/home/darshan/web2py/applications/examples/', '/home/darshan/web2py/applications/readit/', '/home/darshan/web2py/applications/admin/', '/home/darshan/web2py/applications/Garbage_Truck/', '/home/darshan/web2py/applications/welcome/', '/home/darshan/web2py/applications/isas/'])"
p1430
asbasbasbag57
(g73
g59
NtRp1431
(dp1432
g62
(dp1433
sg71
g1405
sg64
(lp1434
g57
(g78
g59
NtRp1435
(dp1436
g62
(dp1437
g82
g83
ssg71
g1431
sg64
(lp1438
S'applications_parent'
p1439
asbag57
(g78
g59
NtRp1440
(dp1441
g62
(dp1442
g89
g90
ssg71
g1431
sg64
(lp1443
S':'
asbag57
(g78
g59
NtRp1444
(dp1445
g62
(dp1446
sg71
g1431
sg64
(lp1447
g57
(g58
g59
NtRp1448
(dp1449
g62
(dp1450
g70
I4
ssg71
g1444
sg64
(lp1451
S'/home/darshan/web2py'
p1452
asbasbasbag57
(g73
g59
NtRp1453
(dp1454
g62
(dp1455
sg71
g1405
sg64
(lp1456
g57
(g78
g59
NtRp1457
(dp1458
g62
(dp1459
g82
g83
ssg71
g1453
sg64
(lp1460
S'cmd_args'
p1461
asbag57
(g78
g59
NtRp1462
(dp1463
g62
(dp1464
g89
g90
ssg71
g1453
sg64
(lp1465
S':'
asbag57
(g78
g59
NtRp1466
(dp1467
g62
(dp1468
sg71
g1453
sg64
(lp1469
g57
(g58
g59
NtRp1470
(dp1471
g62
(dp1472
g70
I4
ssg71
g1466
sg64
(lp1473
g57
(g66
g59
NtRp1474
(dp1475
g62
(dp1476
g70
I3
ssg71
Nsg64
(lp1477
sbasbasbasbag57
(g73
g59
NtRp1478
(dp1479
g62
(dp1480
sg71
g1405
sg64
(lp1481
g57
(g78
g59
NtRp1482
(dp1483
g62
(dp1484
g82
g83
ssg71
g1478
sg64
(lp1485
S'cmd_options'
p1486
asbag57
(g78
g59
NtRp1487
(dp1488
g62
(dp1489
g89
g90
ssg71
g1478
sg64
(lp1490
S':'
asbag57
(g78
g59
NtRp1491
(dp1492
g62
(dp1493
sg71
g1478
sg64
(lp1494
g57
(g58
g59
NtRp1495
(dp1496
g62
(dp1497
g70
I4
ssg71
g1491
sg64
(lp1498
S"<Values at 0x7f92baaf7f80: {'verbose': False, 'ip': '127.0.0.1', 'with_scheduler': False, 'ips': [], 'shutdown_timeout': 5, 'taskbar': False, 'port': 8000, 'maxthreads': None, 'softcron': False, 'server_name': 'darshan-Inspiron-5520', 'bpython': False, 'nogui': False, 'pid_filename': 'httpserver.pid', 'extcron': False, 'runcron': False, 'run_system_tests': False, 'test': None, 'folder': '/home/darshan/web2py', 'config': '', 'minthreads': None, 'winservice': '', 'shell': None, 'run': '', 'log_filename': 'httpserver.log', 'debuglevel': 30, 'args': [''], 'socket_timeout': 5, 'ssl_ca_certificate': None, 'scheduler': None, 'profiler_filename': None, 'ssl_private_key': '', 'scheduler_groups': None, 'password': '<ask>', 'request_queue_size': 5, 'ssl_certificate': '', 'cronjob': False, 'numthreads': None, 'quiet': False, 'interfaces': None, 'import_models': False, 'timeout': 10, 'plain': False, 'nobanner': False}>"
p1499
asbasbasbag57
(g73
g59
NtRp1500
(dp1501
g62
(dp1502
sg71
g1405
sg64
(lp1503
g57
(g78
g59
NtRp1504
(dp1505
g62
(dp1506
g82
g83
ssg71
g1500
sg64
(lp1507
S'db_sessions'
p1508
asbag57
(g78
g59
NtRp1509
(dp1510
g62
(dp1511
g89
g90
ssg71
g1500
sg64
(lp1512
S':'
asbag57
(g78
g59
NtRp1513
(dp1514
g62
(dp1515
sg71
g1500
sg64
(lp1516
g57
(g58
g59
NtRp1517
(dp1518
g62
(dp1519
g70
I4
ssg71
g1513
sg64
(lp1520
S'set([])'
p1521
asbasbasbag57
(g73
g59
NtRp1522
(dp1523
g62
(dp1524
sg71
g1405
sg64
(lp1525
g57
(g78
g59
NtRp1526
(dp1527
g62
(dp1528
g82
g83
ssg71
g1522
sg64
(lp1529
S'debugging'
p1530
asbag57
(g78
g59
NtRp1531
(dp1532
g62
(dp1533
g89
g90
ssg71
g1522
sg64
(lp1534
S':'
asbag57
(g78
g59
NtRp1535
(dp1536
g62
(dp1537
sg71
g1522
sg64
(lp1538
g57
(g58
g59
NtRp1539
(dp1540
g62
(dp1541
g70
I4
ssg71
g1535
sg64
(lp1542
g100
asbasbasbag57
(g73
g59
NtRp1543
(dp1544
g62
(dp1545
sg71
g1405
sg64
(lp1546
g57
(g78
g59
NtRp1547
(dp1548
g62
(dp1549
g82
g83
ssg71
g1543
sg64
(lp1550
S'gluon_parent'
p1551
asbag57
(g78
g59
NtRp1552
(dp1553
g62
(dp1554
g89
g90
ssg71
g1543
sg64
(lp1555
S':'
asbag57
(g78
g59
NtRp1556
(dp1557
g62
(dp1558
sg71
g1543
sg64
(lp1559
g57
(g58
g59
NtRp1560
(dp1561
g62
(dp1562
g70
I4
ssg71
g1556
sg64
(lp1563
S'/home/darshan/web2py'
p1564
asbasbasbag57
(g73
g59
NtRp1565
(dp1566
g62
(dp1567
sg71
g1405
sg64
(lp1568
g57
(g78
g59
NtRp1569
(dp1570
g62
(dp1571
g82
g83
ssg71
g1565
sg64
(lp1572
S'http_accept'
p1573
asbag57
(g78
g59
NtRp1574
(dp1575
g62
(dp1576
g89
g90
ssg71
g1565
sg64
(lp1577
S':'
asbag57
(g78
g59
NtRp1578
(dp1579
g62
(dp1580
sg71
g1565
sg64
(lp1581
g57
(g58
g59
NtRp1582
(dp1583
g62
(dp1584
g70
I4
ssg71
g1578
sg64
(lp1585
S'text/html,application/xhtml+xml,application/xml;q=0.9,*/*;q=0.8'
p1586
asbasbasbag57
(g73
g59
NtRp1587
(dp1588
g62
(dp1589
sg71
g1405
sg64
(lp1590
g57
(g78
g59
NtRp1591
(dp1592
g62
(dp1593
g82
g83
ssg71
g1587
sg64
(lp1594
S'http_accept_encoding'
p1595
asbag57
(g78
g59
NtRp1596
(dp1597
g62
(dp1598
g89
g90
ssg71
g1587
sg64
(lp1599
S':'
asbag57
(g78
g59
NtRp1600
(dp1601
g62
(dp1602
sg71
g1587
sg64
(lp1603
g57
(g58
g59
NtRp1604
(dp1605
g62
(dp1606
g70
I4
ssg71
g1600
sg64
(lp1607
S'gzip, deflate'
p1608
asbasbasbag57
(g73
g59
NtRp1609
(dp1610
g62
(dp1611
sg71
g1405
sg64
(lp1612
g57
(g78
g59
NtRp1613
(dp1614
g62
(dp1615
g82
g83
ssg71
g1609
sg64
(lp1616
S'http_accept_language'
p1617
asbag57
(g78
g59
NtRp1618
(dp1619
g62
(dp1620
g89
g90
ssg71
g1609
sg64
(lp1621
S':'
asbag57
(g78
g59
NtRp1622
(dp1623
g62
(dp1624
sg71
g1609
sg64
(lp1625
g57
(g58
g59
NtRp1626
(dp1627
g62
(dp1628
g70
I4
ssg71
g1622
sg64
(lp1629
S'en-US,en;q=0.5'
p1630
asbasbasbag57
(g73
g59
NtRp1631
(dp1632
g62
(dp1633
sg71
g1405
sg64
(lp1634
g57
(g78
g59
NtRp1635
(dp1636
g62
(dp1637
g82
g83
ssg71
g1631
sg64
(lp1638
S'http_cache_control'
p1639
asbag57
(g78
g59
NtRp1640
(dp1641
g62
(dp1642
g89
g90
ssg71
g1631
sg64
(lp1643
S':'
asbag57
(g78
g59
NtRp1644
(dp1645
g62
(dp1646
sg71
g1631
sg64
(lp1647
g57
(g58
g59
NtRp1648
(dp1649
g62
(dp1650
g70
I4
ssg71
g1644
sg64
(lp1651
S'max-age=0'
p1652
asbasbasbag57
(g73
g59
NtRp1653
(dp1654
g62
(dp1655
sg71
g1405
sg64
(lp1656
g57
(g78
g59
NtRp1657
(dp1658
g62
(dp1659
g82
g83
ssg71
g1653
sg64
(lp1660
S'http_connection'
p1661
asbag57
(g78
g59
NtRp1662
(dp1663
g62
(dp1664
g89
g90
ssg71
g1653
sg64
(lp1665
S':'
asbag57
(g78
g59
NtRp1666
(dp1667
g62
(dp1668
sg71
g1653
sg64
(lp1669
g57
(g58
g59
NtRp1670
(dp1671
g62
(dp1672
g70
I4
ssg71
g1666
sg64
(lp1673
S'keep-alive'
p1674
asbasbasbag57
(g73
g59
NtRp1675
(dp1676
g62
(dp1677
sg71
g1405
sg64
(lp1678
g57
(g78
g59
NtRp1679
(dp1680
g62
(dp1681
g82
g83
ssg71
g1675
sg64
(lp1682
S'http_cookie'
p1683
asbag57
(g78
g59
NtRp1684
(dp1685
g62
(dp1686
g89
g90
ssg71
g1675
sg64
(lp1687
S':'
asbag57
(g78
g59
NtRp1688
(dp1689
g62
(dp1690
sg71
g1675
sg64
(lp1691
g57
(g58
g59
NtRp1692
(dp1693
g62
(dp1694
g70
I4
ssg71
g1688
sg64
(lp1695
S'csrftoken=a9lCt5w7Q4OG437IZNwjtNB3YEdWYXWm; session_id_admin=127.0.0.1-e6c203e9-d008-4610-8523-5a0e93da9abb; session_id_welcome=127.0.0.1-2837c0cc-fb0c-4598-b75f-5727d328e2ad; session_id_readit=127.0.0.1-e391c20a-8d22-4e6d-a1c8-f85c00f99b3d; session_id_isas=127.0.0.1-46261fb6-868f-4eb5-ae61-7251ec9ac039; session_id_garbage_truck=127.0.0.1-eb5e8630-3789-44cf-90c0-4c0a37fc535a'
p1696
asbasbasbag57
(g73
g59
NtRp1697
(dp1698
g62
(dp1699
sg71
g1405
sg64
(lp1700
g57
(g78
g59
NtRp1701
(dp1702
g62
(dp1703
g82
g83
ssg71
g1697
sg64
(lp1704
S'http_dnt'
p1705
asbag57
(g78
g59
NtRp1706
(dp1707
g62
(dp1708
g89
g90
ssg71
g1697
sg64
(lp1709
S':'
asbag57
(g78
g59
NtRp1710
(dp1711
g62
(dp1712
sg71
g1697
sg64
(lp1713
g57
(g58
g59
NtRp1714
(dp1715
g62
(dp1716
g70
I4
ssg71
g1710
sg64
(lp1717
S'1'
asbasbasbag57
(g73
g59
NtRp1718
(dp1719
g62
(dp1720
sg71
g1405
sg64
(lp1721
g57
(g78
g59
NtRp1722
(dp1723
g62
(dp1724
g82
g83
ssg71
g1718
sg64
(lp1725
S'http_host'
p1726
asbag57
(g78
g59
NtRp1727
(dp1728
g62
(dp1729
g89
g90
ssg71
g1718
sg64
(lp1730
S':'
asbag57
(g78
g59
NtRp1731
(dp1732
g62
(dp1733
sg71
g1718
sg64
(lp1734
g57
(g58
g59
NtRp1735
(dp1736
g62
(dp1737
g70
I4
ssg71
g1731
sg64
(lp1738
S'127.0.0.1:8000'
p1739
asbasbasbag57
(g73
g59
NtRp1740
(dp1741
g62
(dp1742
sg71
g1405
sg64
(lp1743
g57
(g78
g59
NtRp1744
(dp1745
g62
(dp1746
g82
g83
ssg71
g1740
sg64
(lp1747
S'http_referer'
p1748
asbag57
(g78
g59
NtRp1749
(dp1750
g62
(dp1751
g89
g90
ssg71
g1740
sg64
(lp1752
S':'
asbag57
(g78
g59
NtRp1753
(dp1754
g62
(dp1755
sg71
g1740
sg64
(lp1756
g57
(g58
g59
NtRp1757
(dp1758
g62
(dp1759
g70
I4
ssg71
g1753
sg64
(lp1760
S'http://127.0.0.1:8000/Garbage_Truck/default/ghmc_official'
p1761
asbasbasbag57
(g73
g59
NtRp1762
(dp1763
g62
(dp1764
sg71
g1405
sg64
(lp1765
g57
(g78
g59
NtRp1766
(dp1767
g62
(dp1768
g82
g83
ssg71
g1762
sg64
(lp1769
S'http_user_agent'
p1770
asbag57
(g78
g59
NtRp1771
(dp1772
g62
(dp1773
g89
g90
ssg71
g1762
sg64
(lp1774
S':'
asbag57
(g78
g59
NtRp1775
(dp1776
g62
(dp1777
sg71
g1762
sg64
(lp1778
g57
(g58
g59
NtRp1779
(dp1780
g62
(dp1781
g70
I4
ssg71
g1775
sg64
(lp1782
S'Mozilla/5.0 (X11; Ubuntu; Linux x86_64; rv:32.0) Gecko/20100101 Firefox/32.0'
p1783
asbasbasbag57
(g73
g59
NtRp1784
(dp1785
g62
(dp1786
sg71
g1405
sg64
(lp1787
g57
(g78
g59
NtRp1788
(dp1789
g62
(dp1790
g82
g83
ssg71
g1784
sg64
(lp1791
S'is_jython'
p1792
asbag57
(g78
g59
NtRp1793
(dp1794
g62
(dp1795
g89
g90
ssg71
g1784
sg64
(lp1796
S':'
asbag57
(g78
g59
NtRp1797
(dp1798
g62
(dp1799
sg71
g1784
sg64
(lp1800
g57
(g58
g59
NtRp1801
(dp1802
g62
(dp1803
g70
I4
ssg71
g1797
sg64
(lp1804
g100
asbasbasbag57
(g73
g59
NtRp1805
(dp1806
g62
(dp1807
sg71
g1405
sg64
(lp1808
g57
(g78
g59
NtRp1809
(dp1810
g62
(dp1811
g82
g83
ssg71
g1805
sg64
(lp1812
S'is_pypy'
p1813
asbag57
(g78
g59
NtRp1814
(dp1815
g62
(dp1816
g89
g90
ssg71
g1805
sg64
(lp1817
S':'
asbag57
(g78
g59
NtRp1818
(dp1819
g62
(dp1820
sg71
g1805
sg64
(lp1821
g57
(g58
g59
NtRp1822
(dp1823
g62
(dp1824
g70
I4
ssg71
g1818
sg64
(lp1825
g100
asbasbasbag57
(g73
g59
NtRp1826
(dp1827
g62
(dp1828
sg71
g1405
sg64
(lp1829
g57
(g78
g59
NtRp1830
(dp1831
g62
(dp1832
g82
g83
ssg71
g1826
sg64
(lp1833
S'local_hosts'
p1834
asbag57
(g78
g59
NtRp1835
(dp1836
g62
(dp1837
g89
g90
ssg71
g1826
sg64
(lp1838
S':'
asbag57
(g78
g59
NtRp1839
(dp1840
g62
(dp1841
sg71
g1826
sg64
(lp1842
g57
(g58
g59
NtRp1843
(dp1844
g62
(dp1845
g70
I4
ssg71
g1839
sg64
(lp1846
g57
(g66
g59
NtRp1847
(dp1848
g62
(dp1849
g70
I3
ssg71
Nsg64
(lp1850
g57
(g73
g59
NtRp1851
(dp1852
g62
(dp1853
sg71
g1847
sg64
(lp1854
g57
(g78
g59
NtRp1855
(dp1856
g62
(dp1857
sg71
g1851
sg64
(lp1858
g57
(g58
g59
NtRp1859
(dp1860
g62
(dp1861
g70
I3
ssg71
g1855
sg64
(lp1862
S'::1'
p1863
asbasbasbag57
(g73
g59
NtRp1864
(dp1865
g62
(dp1866
sg71
g1847
sg64
(lp1867
g57
(g78
g59
NtRp1868
(dp1869
g62
(dp1870
sg71
g1864
sg64
(lp1871
g57
(g58
g59
NtRp1872
(dp1873
g62
(dp1874
g70
I3
ssg71
g1868
sg64
(lp1875
S'127.0.1.1'
p1876
asbasbasbag57
(g73
g59
NtRp1877
(dp1878
g62
(dp1879
sg71
g1847
sg64
(lp1880
g57
(g78
g59
NtRp1881
(dp1882
g62
(dp1883
sg71
g1877
sg64
(lp1884
g57
(g58
g59
NtRp1885
(dp1886
g62
(dp1887
g70
I3
ssg71
g1881
sg64
(lp1888
S'darshan-Inspiron-5520'
p1889
asbasbasbag57
(g73
g59
NtRp1890
(dp1891
g62
(dp1892
sg71
g1847
sg64
(lp1893
g57
(g78
g59
NtRp1894
(dp1895
g62
(dp1896
sg71
g1890
sg64
(lp1897
g57
(g58
g59
NtRp1898
(dp1899
g62
(dp1900
g70
I3
ssg71
g1894
sg64
(lp1901
S'::ffff:127.0.0.1'
p1902
asbasbasbag57
(g73
g59
NtRp1903
(dp1904
g62
(dp1905
sg71
g1847
sg64
(lp1906
g57
(g78
g59
NtRp1907
(dp1908
g62
(dp1909
sg71
g1903
sg64
(lp1910
g57
(g58
g59
NtRp1911
(dp1912
g62
(dp1913
g70
I3
ssg71
g1907
sg64
(lp1914
S'127.0.0.1'
p1915
asbasbasbasbasbasbasbag57
(g73
g59
NtRp1916
(dp1917
g62
(dp1918
sg71
g1405
sg64
(lp1919
g57
(g78
g59
NtRp1920
(dp1921
g62
(dp1922
g82
g83
ssg71
g1916
sg64
(lp1923
S'path_info'
p1924
asbag57
(g78
g59
NtRp1925
(dp1926
g62
(dp1927
g89
g90
ssg71
g1916
sg64
(lp1928
S':'
asbag57
(g78
g59
NtRp1929
(dp1930
g62
(dp1931
sg71
g1916
sg64
(lp1932
g57
(g58
g59
NtRp1933
(dp1934
g62
(dp1935
g70
I4
ssg71
g1929
sg64
(lp1936
S'/Garbage_Truck/default/request_reservior_view'
p1937
asbasbasbag57
(g73
g59
NtRp1938
(dp1939
g62
(dp1940
sg71
g1405
sg64
(lp1941
g57
(g78
g59
NtRp1942
(dp1943
g62
(dp1944
g82
g83
ssg71
g1938
sg64
(lp1945
S'query_string'
p1946
asbag57
(g78
g59
NtRp1947
(dp1948
g62
(dp1949
g89
g90
ssg71
g1938
sg64
(lp1950
S':'
asbag57
(g78
g59
NtRp1951
(dp1952
g62
(dp1953
sg71
g1938
sg64
(lp1954
g57
(g58
g59
NtRp1955
(dp1956
g62
(dp1957
g70
I4
ssg71
g1951
sg64
(lp1958
S''
asbasbasbag57
(g73
g59
NtRp1959
(dp1960
g62
(dp1961
sg71
g1405
sg64
(lp1962
g57
(g78
g59
NtRp1963
(dp1964
g62
(dp1965
g82
g83
ssg71
g1959
sg64
(lp1966
S'remote_addr'
p1967
asbag57
(g78
g59
NtRp1968
(dp1969
g62
(dp1970
g89
g90
ssg71
g1959
sg64
(lp1971
S':'
asbag57
(g78
g59
NtRp1972
(dp1973
g62
(dp1974
sg71
g1959
sg64
(lp1975
g57
(g58
g59
NtRp1976
(dp1977
g62
(dp1978
g70
I4
ssg71
g1972
sg64
(lp1979
g212
asbasbasbag57
(g73
g59
NtRp1980
(dp1981
g62
(dp1982
sg71
g1405
sg64
(lp1983
g57
(g78
g59
NtRp1984
(dp1985
g62
(dp1986
g82
g83
ssg71
g1980
sg64
(lp1987
S'remote_port'
p1988
asbag57
(g78
g59
NtRp1989
(dp1990
g62
(dp1991
g89
g90
ssg71
g1980
sg64
(lp1992
S':'
asbag57
(g78
g59
NtRp1993
(dp1994
g62
(dp1995
sg71
g1980
sg64
(lp1996
g57
(g58
g59
NtRp1997
(dp1998
g62
(dp1999
g70
I4
ssg71
g1993
sg64
(lp2000
S'34723'
p2001
asbasbasbag57
(g73
g59
NtRp2002
(dp2003
g62
(dp2004
sg71
g1405
sg64
(lp2005
g57
(g78
g59
NtRp2006
(dp2007
g62
(dp2008
g82
g83
ssg71
g2002
sg64
(lp2009
S'request_method'
p2010
asbag57
(g78
g59
NtRp2011
(dp2012
g62
(dp2013
g89
g90
ssg71
g2002
sg64
(lp2014
S':'
asbag57
(g78
g59
NtRp2015
(dp2016
g62
(dp2017
sg71
g2002
sg64
(lp2018
g57
(g58
g59
NtRp2019
(dp2020
g62
(dp2021
g70
I4
ssg71
g2015
sg64
(lp2022
S'GET'
p2023
asbasbasbag57
(g73
g59
NtRp2024
(dp2025
g62
(dp2026
sg71
g1405
sg64
(lp2027
g57
(g78
g59
NtRp2028
(dp2029
g62
(dp2030
g82
g83
ssg71
g2024
sg64
(lp2031
S'request_uri'
p2032
asbag57
(g78
g59
NtRp2033
(dp2034
g62
(dp2035
g89
g90
ssg71
g2024
sg64
(lp2036
S':'
asbag57
(g78
g59
NtRp2037
(dp2038
g62
(dp2039
sg71
g2024
sg64
(lp2040
g57
(g58
g59
NtRp2041
(dp2042
g62
(dp2043
g70
I4
ssg71
g2037
sg64
(lp2044
g1937
asbasbasbag57
(g73
g59
NtRp2045
(dp2046
g62
(dp2047
sg71
g1405
sg64
(lp2048
g57
(g78
g59
NtRp2049
(dp2050
g62
(dp2051
g82
g83
ssg71
g2045
sg64
(lp2052
S'script_name'
p2053
asbag57
(g78
g59
NtRp2054
(dp2055
g62
(dp2056
g89
g90
ssg71
g2045
sg64
(lp2057
S':'
asbag57
(g78
g59
NtRp2058
(dp2059
g62
(dp2060
sg71
g2045
sg64
(lp2061
g57
(g58
g59
NtRp2062
(dp2063
g62
(dp2064
g70
I4
ssg71
g2058
sg64
(lp2065
S''
asbasbasbag57
(g73
g59
NtRp2066
(dp2067
g62
(dp2068
sg71
g1405
sg64
(lp2069
g57
(g78
g59
NtRp2070
(dp2071
g62
(dp2072
g82
g83
ssg71
g2066
sg64
(lp2073
S'server_name'
p2074
asbag57
(g78
g59
NtRp2075
(dp2076
g62
(dp2077
g89
g90
ssg71
g2066
sg64
(lp2078
S':'
asbag57
(g78
g59
NtRp2079
(dp2080
g62
(dp2081
sg71
g2066
sg64
(lp2082
g57
(g58
g59
NtRp2083
(dp2084
g62
(dp2085
g70
I4
ssg71
g2079
sg64
(lp2086
S'darshan-Inspiron-5520'
p2087
asbasbasbag57
(g73
g59
NtRp2088
(dp2089
g62
(dp2090
sg71
g1405
sg64
(lp2091
g57
(g78
g59
NtRp2092
(dp2093
g62
(dp2094
g82
g83
ssg71
g2088
sg64
(lp2095
S'server_port'
p2096
asbag57
(g78
g59
NtRp2097
(dp2098
g62
(dp2099
g89
g90
ssg71
g2088
sg64
(lp2100
S':'
asbag57
(g78
g59
NtRp2101
(dp2102
g62
(dp2103
sg71
g2088
sg64
(lp2104
g57
(g58
g59
NtRp2105
(dp2106
g62
(dp2107
g70
I4
ssg71
g2101
sg64
(lp2108
S'8000'
p2109
asbasbasbag57
(g73
g59
NtRp2110
(dp2111
g62
(dp2112
sg71
g1405
sg64
(lp2113
g57
(g78
g59
NtRp2114
(dp2115
g62
(dp2116
g82
g83
ssg71
g2110
sg64
(lp2117
S'server_protocol'
p2118
asbag57
(g78
g59
NtRp2119
(dp2120
g62
(dp2121
g89
g90
ssg71
g2110
sg64
(lp2122
S':'
asbag57
(g78
g59
NtRp2123
(dp2124
g62
(dp2125
sg71
g2110
sg64
(lp2126
g57
(g58
g59
NtRp2127
(dp2128
g62
(dp2129
g70
I4
ssg71
g2123
sg64
(lp2130
S'HTTP/1.1'
p2131
asbasbasbag57
(g73
g59
NtRp2132
(dp2133
g62
(dp2134
sg71
g1405
sg64
(lp2135
g57
(g78
g59
NtRp2136
(dp2137
g62
(dp2138
g82
g83
ssg71
g2132
sg64
(lp2139
S'server_software'
p2140
asbag57
(g78
g59
NtRp2141
(dp2142
g62
(dp2143
g89
g90
ssg71
g2132
sg64
(lp2144
S':'
asbag57
(g78
g59
NtRp2145
(dp2146
g62
(dp2147
sg71
g2132
sg64
(lp2148
g57
(g58
g59
NtRp2149
(dp2150
g62
(dp2151
g70
I4
ssg71
g2145
sg64
(lp2152
S'Rocket 1.2.6'
p2153
asbasbasbag57
(g73
g59
NtRp2154
(dp2155
g62
(dp2156
sg71
g1405
sg64
(lp2157
g57
(g78
g59
NtRp2158
(dp2159
g62
(dp2160
g82
g83
ssg71
g2154
sg64
(lp2161
S'web2py_path'
p2162
asbag57
(g78
g59
NtRp2163
(dp2164
g62
(dp2165
g89
g90
ssg71
g2154
sg64
(lp2166
S':'
asbag57
(g78
g59
NtRp2167
(dp2168
g62
(dp2169
sg71
g2154
sg64
(lp2170
g57
(g58
g59
NtRp2171
(dp2172
g62
(dp2173
g70
I4
ssg71
g2167
sg64
(lp2174
g1452
asbasbasbag57
(g73
g59
NtRp2175
(dp2176
g62
(dp2177
sg71
g1405
sg64
(lp2178
g57
(g78
g59
NtRp2179
(dp2180
g62
(dp2181
g82
g83
ssg71
g2175
sg64
(lp2182
S'web2py_version'
p2183
asbag57
(g78
g59
NtRp2184
(dp2185
g62
(dp2186
g89
g90
ssg71
g2175
sg64
(lp2187
S':'
asbag57
(g78
g59
NtRp2188
(dp2189
g62
(dp2190
sg71
g2175
sg64
(lp2191
g57
(g58
g59
NtRp2192
(dp2193
g62
(dp2194
g70
I4
ssg71
g2188
sg64
(lp2195
g57
(g66
g59
NtRp2196
(dp2197
g62
(dp2198
g70
I3
ssg71
Nsg64
(lp2199
g57
(g73
g59
NtRp2200
(dp2201
g62
(dp2202
sg71
g2196
sg64
(lp2203
g57
(g78
g59
NtRp2204
(dp2205
g62
(dp2206
sg71
g2200
sg64
(lp2207
g57
(g58
g59
NtRp2208
(dp2209
g62
(dp2210
g70
I3
ssg71
g2204
sg64
(lp2211
S'2'
asbasbasbag57
(g73
g59
NtRp2212
(dp2213
g62
(dp2214
sg71
g2196
sg64
(lp2215
g57
(g78
g59
NtRp2216
(dp2217
g62
(dp2218
sg71
g2212
sg64
(lp2219
g57
(g58
g59
NtRp2220
(dp2221
g62
(dp2222
g70
I3
ssg71
g2216
sg64
(lp2223
S'3'
asbasbasbag57
(g73
g59
NtRp2224
(dp2225
g62
(dp2226
sg71
g2196
sg64
(lp2227
g57
(g78
g59
NtRp2228
(dp2229
g62
(dp2230
sg71
g2224
sg64
(lp2231
g57
(g58
g59
NtRp2232
(dp2233
g62
(dp2234
g70
I3
ssg71
g2228
sg64
(lp2235
S'2'
asbasbasbag57
(g73
g59
NtRp2236
(dp2237
g62
(dp2238
sg71
g2196
sg64
(lp2239
g57
(g78
g59
NtRp2240
(dp2241
g62
(dp2242
sg71
g2236
sg64
(lp2243
g57
(g58
g59
NtRp2244
(dp2245
g62
(dp2246
g70
I3
ssg71
g2240
sg64
(lp2247
S'datetime.datetime(2012, 12, 17, 15, 3, 30)'
p2248
asbasbasbag57
(g73
g59
NtRp2249
(dp2250
g62
(dp2251
sg71
g2196
sg64
(lp2252
g57
(g78
g59
NtRp2253
(dp2254
g62
(dp2255
sg71
g2249
sg64
(lp2256
g57
(g58
g59
NtRp2257
(dp2258
g62
(dp2259
g70
I3
ssg71
g2253
sg64
(lp2260
S'stable'
p2261
asbasbasbasbasbasbasbag57
(g73
g59
NtRp2262
(dp2263
g62
(dp2264
sg71
g1405
sg64
(lp2265
g57
(g78
g59
NtRp2266
(dp2267
g62
(dp2268
g82
g83
ssg71
g2262
sg64
(lp2269
S'wsgi_errors'
p2270
asbag57
(g78
g59
NtRp2271
(dp2272
g62
(dp2273
g89
g90
ssg71
g2262
sg64
(lp2274
S':'
asbag57
(g78
g59
NtRp2275
(dp2276
g62
(dp2277
sg71
g2262
sg64
(lp2278
g57
(g58
g59
NtRp2279
(dp2280
g62
(dp2281
g70
I4
ssg71
g2275
sg64
(lp2282
S"<open file '<stderr>', mode 'w' at 0x7f92c1bb41e0>"
p2283
asbasbasbag57
(g73
g59
NtRp2284
(dp2285
g62
(dp2286
sg71
g1405
sg64
(lp2287
g57
(g78
g59
NtRp2288
(dp2289
g62
(dp2290
g82
g83
ssg71
g2284
sg64
(lp2291
S'wsgi_file_wrapper'
p2292
asbag57
(g78
g59
NtRp2293
(dp2294
g62
(dp2295
g89
g90
ssg71
g2284
sg64
(lp2296
S':'
asbag57
(g78
g59
NtRp2297
(dp2298
g62
(dp2299
sg71
g2284
sg64
(lp2300
g57
(g58
g59
NtRp2301
(dp2302
g62
(dp2303
g70
I4
ssg71
g2297
sg64
(lp2304
S'<class wsgiref.util.FileWrapper at 0x7f92bab98808>'
p2305
asbasbasbag57
(g73
g59
NtRp2306
(dp2307
g62
(dp2308
sg71
g1405
sg64
(lp2309
g57
(g78
g59
NtRp2310
(dp2311
g62
(dp2312
g82
g83
ssg71
g2306
sg64
(lp2313
S'wsgi_input'
p2314
asbag57
(g78
g59
NtRp2315
(dp2316
g62
(dp2317
g89
g90
ssg71
g2306
sg64
(lp2318
S':'
asbag57
(g78
g59
NtRp2319
(dp2320
g62
(dp2321
sg71
g2306
sg64
(lp2322
g57
(g58
g59
NtRp2323
(dp2324
g62
(dp2325
g70
I4
ssg71
g2319
sg64
(lp2326
S'<socket._fileobject object at 0x7f9289b32250>'
p2327
asbasbasbag57
(g73
g59
NtRp2328
(dp2329
g62
(dp2330
sg71
g1405
sg64
(lp2331
g57
(g78
g59
NtRp2332
(dp2333
g62
(dp2334
g82
g83
ssg71
g2328
sg64
(lp2335
S'wsgi_multiprocess'
p2336
asbag57
(g78
g59
NtRp2337
(dp2338
g62
(dp2339
g89
g90
ssg71
g2328
sg64
(lp2340
S':'
asbag57
(g78
g59
NtRp2341
(dp2342
g62
(dp2343
sg71
g2328
sg64
(lp2344
g57
(g58
g59
NtRp2345
(dp2346
g62
(dp2347
g70
I4
ssg71
g2341
sg64
(lp2348
g100
asbasbasbag57
(g73
g59
NtRp2349
(dp2350
g62
(dp2351
sg71
g1405
sg64
(lp2352
g57
(g78
g59
NtRp2353
(dp2354
g62
(dp2355
g82
g83
ssg71
g2349
sg64
(lp2356
S'wsgi_multithread'
p2357
asbag57
(g78
g59
NtRp2358
(dp2359
g62
(dp2360
g89
g90
ssg71
g2349
sg64
(lp2361
S':'
asbag57
(g78
g59
NtRp2362
(dp2363
g62
(dp2364
sg71
g2349
sg64
(lp2365
g57
(g58
g59
NtRp2366
(dp2367
g62
(dp2368
g70
I4
ssg71
g2362
sg64
(lp2369
S'True'
p2370
asbasbasbag57
(g73
g59
NtRp2371
(dp2372
g62
(dp2373
sg71
g1405
sg64
(lp2374
g57
(g78
g59
NtRp2375
(dp2376
g62
(dp2377
g82
g83
ssg71
g2371
sg64
(lp2378
S'wsgi_run_once'
p2379
asbag57
(g78
g59
NtRp2380
(dp2381
g62
(dp2382
g89
g90
ssg71
g2371
sg64
(lp2383
S':'
asbag57
(g78
g59
NtRp2384
(dp2385
g62
(dp2386
sg71
g2371
sg64
(lp2387
g57
(g58
g59
NtRp2388
(dp2389
g62
(dp2390
g70
I4
ssg71
g2384
sg64
(lp2391
g100
asbasbasbag57
(g73
g59
NtRp2392
(dp2393
g62
(dp2394
sg71
g1405
sg64
(lp2395
g57
(g78
g59
NtRp2396
(dp2397
g62
(dp2398
g82
g83
ssg71
g2392
sg64
(lp2399
S'wsgi_url_scheme'
p2400
asbag57
(g78
g59
NtRp2401
(dp2402
g62
(dp2403
g89
g90
ssg71
g2392
sg64
(lp2404
S':'
asbag57
(g78
g59
NtRp2405
(dp2406
g62
(dp2407
sg71
g2392
sg64
(lp2408
g57
(g58
g59
NtRp2409
(dp2410
g62
(dp2411
g70
I4
ssg71
g2405
sg64
(lp2412
S'http'
p2413
asbasbasbag57
(g73
g59
NtRp2414
(dp2415
g62
(dp2416
sg71
g1405
sg64
(lp2417
g57
(g78
g59
NtRp2418
(dp2419
g62
(dp2420
g82
g83
ssg71
g2414
sg64
(lp2421
S'wsgi_version'
p2422
asbag57
(g78
g59
NtRp2423
(dp2424
g62
(dp2425
g89
g90
ssg71
g2414
sg64
(lp2426
S':'
asbag57
(g78
g59
NtRp2427
(dp2428
g62
(dp2429
sg71
g2414
sg64
(lp2430
g57
(g58
g59
NtRp2431
(dp2432
g62
(dp2433
g70
I4
ssg71
g2427
sg64
(lp2434
g57
(g66
g59
NtRp2435
(dp2436
g62
(dp2437
g70
I3
ssg71
Nsg64
(lp2438
g57
(g73
g59
NtRp2439
(dp2440
g62
(dp2441
sg71
g2435
sg64
(lp2442
g57
(g78
g59
NtRp2443
(dp2444
g62
(dp2445
sg71
g2439
sg64
(lp2446
g57
(g58
g59
NtRp2447
(dp2448
g62
(dp2449
g70
I3
ssg71
g2443
sg64
(lp2450
S'1'
asbasbasbag57
(g73
g59
NtRp2451
(dp2452
g62
(dp2453
sg71
g2435
sg64
(lp2454
g57
(g78
g59
NtRp2455
(dp2456
g62
(dp2457
sg71
g2451
sg64
(lp2458
g57
(g58
g59
NtRp2459
(dp2460
g62
(dp2461
g70
I3
ssg71
g2455
sg64
(lp2462
S'0'
asbasbasbasbasbasbasbasbasbasbasbag57
(g73
g59
NtRp2463
(dp2464
g62
(dp2465
sg71
g67
sg64
(lp2466
g57
(g78
g59
NtRp2467
(dp2468
g62
(dp2469
g82
g83
ssg71
g2463
sg64
(lp2470
S'extension'
p2471
asbag57
(g78
g59
NtRp2472
(dp2473
g62
(dp2474
g89
g90
ssg71
g2463
sg64
(lp2475
S':'
asbag57
(g78
g59
NtRp2476
(dp2477
g62
(dp2478
sg71
g2463
sg64
(lp2479
g57
(g58
g59
NtRp2480
(dp2481
g62
(dp2482
g70
I5
ssg71
g2476
sg64
(lp2483
S'html'
p2484
asbasbasbag57
(g73
g59
NtRp2485
(dp2486
g62
(dp2487
sg71
g67
sg64
(lp2488
g57
(g78
g59
NtRp2489
(dp2490
g62
(dp2491
g82
g83
ssg71
g2485
sg64
(lp2492
S'folder'
p2493
asbag57
(g78
g59
NtRp2494
(dp2495
g62
(dp2496
g89
g90
ssg71
g2485
sg64
(lp2497
S':'
asbag57
(g78
g59
NtRp2498
(dp2499
g62
(dp2500
sg71
g2485
sg64
(lp2501
g57
(g58
g59
NtRp2502
(dp2503
g62
(dp2504
g70
I5
ssg71
g2498
sg64
(lp2505
S'/home/darshan/web2py/applications/Garbage_Truck/'
p2506
asbasbasbag57
(g73
g59
NtRp2507
(dp2508
g62
(dp2509
sg71
g67
sg64
(lp2510
g57
(g78
g59
NtRp2511
(dp2512
g62
(dp2513
g82
g83
ssg71
g2507
sg64
(lp2514
S'function'
p2515
asbag57
(g78
g59
NtRp2516
(dp2517
g62
(dp2518
g89
g90
ssg71
g2507
sg64
(lp2519
S':'
asbag57
(g78
g59
NtRp2520
(dp2521
g62
(dp2522
sg71
g2507
sg64
(lp2523
g57
(g58
g59
NtRp2524
(dp2525
g62
(dp2526
g70
I5
ssg71
g2520
sg64
(lp2527
S'request_reservior_view'
p2528
asbasbasbag57
(g73
g59
NtRp2529
(dp2530
g62
(dp2531
sg71
g67
sg64
(lp2532
g57
(g78
g59
NtRp2533
(dp2534
g62
(dp2535
g82
g83
ssg71
g2529
sg64
(lp2536
S'get_vars'
p2537
asbag57
(g78
g59
NtRp2538
(dp2539
g62
(dp2540
g89
g90
ssg71
g2529
sg64
(lp2541
S':'
asbag57
(g78
g59
NtRp2542
(dp2543
g62
(dp2544
sg71
g2529
sg64
(lp2545
g57
(g58
g59
NtRp2546
(dp2547
g62
(dp2548
g70
I5
ssg71
g2542
sg64
(lp2549
g57
(g66
g59
NtRp2550
(dp2551
g62
(dp2552
g70
I4
ssg71
Nsg64
(lp2553
sbasbasbasbag57
(g73
g59
NtRp2554
(dp2555
g62
(dp2556
sg71
g67
sg64
(lp2557
g57
(g78
g59
NtRp2558
(dp2559
g62
(dp2560
g82
g83
ssg71
g2554
sg64
(lp2561
S'global_settings'
p2562
asbag57
(g78
g59
NtRp2563
(dp2564
g62
(dp2565
g89
g90
ssg71
g2554
sg64
(lp2566
S':'
asbag57
(g78
g59
NtRp2567
(dp2568
g62
(dp2569
sg71
g2554
sg64
(lp2570
g57
(g58
g59
NtRp2571
(dp2572
g62
(dp2573
g70
I5
ssg71
g2567
sg64
(lp2574
g57
(g66
g59
NtRp2575
(dp2576
g62
(dp2577
g70
I4
ssg71
Nsg64
(lp2578
g57
(g73
g59
NtRp2579
(dp2580
g62
(dp2581
sg71
g2575
sg64
(lp2582
g57
(g78
g59
NtRp2583
(dp2584
g62
(dp2585
g82
g83
ssg71
g2579
sg64
(lp2586
g1417
asbag57
(g78
g59
NtRp2587
(dp2588
g62
(dp2589
g89
g90
ssg71
g2579
sg64
(lp2590
S':'
asbag57
(g78
g59
NtRp2591
(dp2592
g62
(dp2593
sg71
g2579
sg64
(lp2594
g57
(g58
g59
NtRp2595
(dp2596
g62
(dp2597
g70
I4
ssg71
g2591
sg64
(lp2598
S"set(['/home/darshan/web2py/applications/Isas/', '/home/darshan/web2py/applications/examples/', '/home/darshan/web2py/applications/readit/', '/home/darshan/web2py/applications/admin/', '/home/darshan/web2py/applications/Garbage_Truck/', '/home/darshan/web2py/applications/welcome/', '/home/darshan/web2py/applications/isas/'])"
p2599
asbasbasbag57
(g73
g59
NtRp2600
(dp2601
g62
(dp2602
sg71
g2575
sg64
(lp2603
g57
(g78
g59
NtRp2604
(dp2605
g62
(dp2606
g82
g83
ssg71
g2600
sg64
(lp2607
g1439
asbag57
(g78
g59
NtRp2608
(dp2609
g62
(dp2610
g89
g90
ssg71
g2600
sg64
(lp2611
S':'
asbag57
(g78
g59
NtRp2612
(dp2613
g62
(dp2614
sg71
g2600
sg64
(lp2615
g57
(g58
g59
NtRp2616
(dp2617
g62
(dp2618
g70
I4
ssg71
g2612
sg64
(lp2619
g1452
asbasbasbag57
(g73
g59
NtRp2620
(dp2621
g62
(dp2622
sg71
g2575
sg64
(lp2623
g57
(g78
g59
NtRp2624
(dp2625
g62
(dp2626
g82
g83
ssg71
g2620
sg64
(lp2627
g1461
asbag57
(g78
g59
NtRp2628
(dp2629
g62
(dp2630
g89
g90
ssg71
g2620
sg64
(lp2631
S':'
asbag57
(g78
g59
NtRp2632
(dp2633
g62
(dp2634
sg71
g2620
sg64
(lp2635
g57
(g58
g59
NtRp2636
(dp2637
g62
(dp2638
g70
I4
ssg71
g2632
sg64
(lp2639
g57
(g66
g59
NtRp2640
(dp2641
g62
(dp2642
g70
I3
ssg71
Nsg64
(lp2643
sbasbasbasbag57
(g73
g59
NtRp2644
(dp2645
g62
(dp2646
sg71
g2575
sg64
(lp2647
g57
(g78
g59
NtRp2648
(dp2649
g62
(dp2650
g82
g83
ssg71
g2644
sg64
(lp2651
g1486
asbag57
(g78
g59
NtRp2652
(dp2653
g62
(dp2654
g89
g90
ssg71
g2644
sg64
(lp2655
S':'
asbag57
(g78
g59
NtRp2656
(dp2657
g62
(dp2658
sg71
g2644
sg64
(lp2659
g57
(g58
g59
NtRp2660
(dp2661
g62
(dp2662
g70
I4
ssg71
g2656
sg64
(lp2663
S"<Values at 0x7f92baaf7f80: {'verbose': False, 'ip': '127.0.0.1', 'with_scheduler': False, 'ips': [], 'shutdown_timeout': 5, 'taskbar': False, 'port': 8000, 'maxthreads': None, 'softcron': False, 'server_name': 'darshan-Inspiron-5520', 'bpython': False, 'nogui': False, 'pid_filename': 'httpserver.pid', 'extcron': False, 'runcron': False, 'run_system_tests': False, 'test': None, 'folder': '/home/darshan/web2py', 'config': '', 'minthreads': None, 'winservice': '', 'shell': None, 'run': '', 'log_filename': 'httpserver.log', 'debuglevel': 30, 'args': [''], 'socket_timeout': 5, 'ssl_ca_certificate': None, 'scheduler': None, 'profiler_filename': None, 'ssl_private_key': '', 'scheduler_groups': None, 'password': '<ask>', 'request_queue_size': 5, 'ssl_certificate': '', 'cronjob': False, 'numthreads': None, 'quiet': False, 'interfaces': None, 'import_models': False, 'timeout': 10, 'plain': False, 'nobanner': False}>"
p2664
asbasbasbag57
(g73
g59
NtRp2665
(dp2666
g62
(dp2667
sg71
g2575
sg64
(lp2668
g57
(g78
g59
NtRp2669
(dp2670
g62
(dp2671
g82
g83
ssg71
g2665
sg64
(lp2672
g1508
asbag57
(g78
g59
NtRp2673
(dp2674
g62
(dp2675
g89
g90
ssg71
g2665
sg64
(lp2676
S':'
asbag57
(g78
g59
NtRp2677
(dp2678
g62
(dp2679
sg71
g2665
sg64
(lp2680
g57
(g58
g59
NtRp2681
(dp2682
g62
(dp2683
g70
I4
ssg71
g2677
sg64
(lp2684
S'set([])'
p2685
asbasbasbag57
(g73
g59
NtRp2686
(dp2687
g62
(dp2688
sg71
g2575
sg64
(lp2689
g57
(g78
g59
NtRp2690
(dp2691
g62
(dp2692
g82
g83
ssg71
g2686
sg64
(lp2693
g1530
asbag57
(g78
g59
NtRp2694
(dp2695
g62
(dp2696
g89
g90
ssg71
g2686
sg64
(lp2697
S':'
asbag57
(g78
g59
NtRp2698
(dp2699
g62
(dp2700
sg71
g2686
sg64
(lp2701
g57
(g58
g59
NtRp2702
(dp2703
g62
(dp2704
g70
I4
ssg71
g2698
sg64
(lp2705
g100
asbasbasbag57
(g73
g59
NtRp2706
(dp2707
g62
(dp2708
sg71
g2575
sg64
(lp2709
g57
(g78
g59
NtRp2710
(dp2711
g62
(dp2712
g82
g83
ssg71
g2706
sg64
(lp2713
g1551
asbag57
(g78
g59
NtRp2714
(dp2715
g62
(dp2716
g89
g90
ssg71
g2706
sg64
(lp2717
S':'
asbag57
(g78
g59
NtRp2718
(dp2719
g62
(dp2720
sg71
g2706
sg64
(lp2721
g57
(g58
g59
NtRp2722
(dp2723
g62
(dp2724
g70
I4
ssg71
g2718
sg64
(lp2725
g1564
asbasbasbag57
(g73
g59
NtRp2726
(dp2727
g62
(dp2728
sg71
g2575
sg64
(lp2729
g57
(g78
g59
NtRp2730
(dp2731
g62
(dp2732
g82
g83
ssg71
g2726
sg64
(lp2733
g1792
asbag57
(g78
g59
NtRp2734
(dp2735
g62
(dp2736
g89
g90
ssg71
g2726
sg64
(lp2737
S':'
asbag57
(g78
g59
NtRp2738
(dp2739
g62
(dp2740
sg71
g2726
sg64
(lp2741
g57
(g58
g59
NtRp2742
(dp2743
g62
(dp2744
g70
I4
ssg71
g2738
sg64
(lp2745
g100
asbasbasbag57
(g73
g59
NtRp2746
(dp2747
g62
(dp2748
sg71
g2575
sg64
(lp2749
g57
(g78
g59
NtRp2750
(dp2751
g62
(dp2752
g82
g83
ssg71
g2746
sg64
(lp2753
g1813
asbag57
(g78
g59
NtRp2754
(dp2755
g62
(dp2756
g89
g90
ssg71
g2746
sg64
(lp2757
S':'
asbag57
(g78
g59
NtRp2758
(dp2759
g62
(dp2760
sg71
g2746
sg64
(lp2761
g57
(g58
g59
NtRp2762
(dp2763
g62
(dp2764
g70
I4
ssg71
g2758
sg64
(lp2765
g100
asbasbasbag57
(g73
g59
NtRp2766
(dp2767
g62
(dp2768
sg71
g2575
sg64
(lp2769
g57
(g78
g59
NtRp2770
(dp2771
g62
(dp2772
g82
g83
ssg71
g2766
sg64
(lp2773
g1834
asbag57
(g78
g59
NtRp2774
(dp2775
g62
(dp2776
g89
g90
ssg71
g2766
sg64
(lp2777
S':'
asbag57
(g78
g59
NtRp2778
(dp2779
g62
(dp2780
sg71
g2766
sg64
(lp2781
g57
(g58
g59
NtRp2782
(dp2783
g62
(dp2784
g70
I4
ssg71
g2778
sg64
(lp2785
g57
(g66
g59
NtRp2786
(dp2787
g62
(dp2788
g70
I3
ssg71
Nsg64
(lp2789
g57
(g73
g59
NtRp2790
(dp2791
g62
(dp2792
sg71
g2786
sg64
(lp2793
g57
(g78
g59
NtRp2794
(dp2795
g62
(dp2796
sg71
g2790
sg64
(lp2797
g57
(g58
g59
NtRp2798
(dp2799
g62
(dp2800
g70
I3
ssg71
g2794
sg64
(lp2801
g1863
asbasbasbag57
(g73
g59
NtRp2802
(dp2803
g62
(dp2804
sg71
g2786
sg64
(lp2805
g57
(g78
g59
NtRp2806
(dp2807
g62
(dp2808
sg71
g2802
sg64
(lp2809
g57
(g58
g59
NtRp2810
(dp2811
g62
(dp2812
g70
I3
ssg71
g2806
sg64
(lp2813
g1876
asbasbasbag57
(g73
g59
NtRp2814
(dp2815
g62
(dp2816
sg71
g2786
sg64
(lp2817
g57
(g78
g59
NtRp2818
(dp2819
g62
(dp2820
sg71
g2814
sg64
(lp2821
g57
(g58
g59
NtRp2822
(dp2823
g62
(dp2824
g70
I3
ssg71
g2818
sg64
(lp2825
g1889
asbasbasbag57
(g73
g59
NtRp2826
(dp2827
g62
(dp2828
sg71
g2786
sg64
(lp2829
g57
(g78
g59
NtRp2830
(dp2831
g62
(dp2832
sg71
g2826
sg64
(lp2833
g57
(g58
g59
NtRp2834
(dp2835
g62
(dp2836
g70
I3
ssg71
g2830
sg64
(lp2837
g1902
asbasbasbag57
(g73
g59
NtRp2838
(dp2839
g62
(dp2840
sg71
g2786
sg64
(lp2841
g57
(g78
g59
NtRp2842
(dp2843
g62
(dp2844
sg71
g2838
sg64
(lp2845
g57
(g58
g59
NtRp2846
(dp2847
g62
(dp2848
g70
I3
ssg71
g2842
sg64
(lp2849
g1915
asbasbasbasbasbasbasbag57
(g73
g59
NtRp2850
(dp2851
g62
(dp2852
sg71
g2575
sg64
(lp2853
g57
(g78
g59
NtRp2854
(dp2855
g62
(dp2856
g82
g83
ssg71
g2850
sg64
(lp2857
g2183
asbag57
(g78
g59
NtRp2858
(dp2859
g62
(dp2860
g89
g90
ssg71
g2850
sg64
(lp2861
S':'
asbag57
(g78
g59
NtRp2862
(dp2863
g62
(dp2864
sg71
g2850
sg64
(lp2865
g57
(g58
g59
NtRp2866
(dp2867
g62
(dp2868
g70
I4
ssg71
g2862
sg64
(lp2869
g57
(g66
g59
NtRp2870
(dp2871
g62
(dp2872
g70
I3
ssg71
Nsg64
(lp2873
g57
(g73
g59
NtRp2874
(dp2875
g62
(dp2876
sg71
g2870
sg64
(lp2877
g57
(g78
g59
NtRp2878
(dp2879
g62
(dp2880
sg71
g2874
sg64
(lp2881
g57
(g58
g59
NtRp2882
(dp2883
g62
(dp2884
g70
I3
ssg71
g2878
sg64
(lp2885
S'2'
asbasbasbag57
(g73
g59
NtRp2886
(dp2887
g62
(dp2888
sg71
g2870
sg64
(lp2889
g57
(g78
g59
NtRp2890
(dp2891
g62
(dp2892
sg71
g2886
sg64
(lp2893
g57
(g58
g59
NtRp2894
(dp2895
g62
(dp2896
g70
I3
ssg71
g2890
sg64
(lp2897
S'3'
asbasbasbag57
(g73
g59
NtRp2898
(dp2899
g62
(dp2900
sg71
g2870
sg64
(lp2901
g57
(g78
g59
NtRp2902
(dp2903
g62
(dp2904
sg71
g2898
sg64
(lp2905
g57
(g58
g59
NtRp2906
(dp2907
g62
(dp2908
g70
I3
ssg71
g2902
sg64
(lp2909
S'2'
asbasbasbag57
(g73
g59
NtRp2910
(dp2911
g62
(dp2912
sg71
g2870
sg64
(lp2913
g57
(g78
g59
NtRp2914
(dp2915
g62
(dp2916
sg71
g2910
sg64
(lp2917
g57
(g58
g59
NtRp2918
(dp2919
g62
(dp2920
g70
I3
ssg71
g2914
sg64
(lp2921
S'datetime.datetime(2012, 12, 17, 15, 3, 30)'
p2922
asbasbasbag57
(g73
g59
NtRp2923
(dp2924
g62
(dp2925
sg71
g2870
sg64
(lp2926
g57
(g78
g59
NtRp2927
(dp2928
g62
(dp2929
sg71
g2923
sg64
(lp2930
g57
(g58
g59
NtRp2931
(dp2932
g62
(dp2933
g70
I3
ssg71
g2927
sg64
(lp2934
g2261
asbasbasbasbasbasbasbasbasbasbasbag57
(g73
g59
NtRp2935
(dp2936
g62
(dp2937
sg71
g67
sg64
(lp2938
g57
(g78
g59
NtRp2939
(dp2940
g62
(dp2941
g82
g83
ssg71
g2935
sg64
(lp2942
S'is_https'
p2943
asbag57
(g78
g59
NtRp2944
(dp2945
g62
(dp2946
g89
g90
ssg71
g2935
sg64
(lp2947
S':'
asbag57
(g78
g59
NtRp2948
(dp2949
g62
(dp2950
sg71
g2935
sg64
(lp2951
g57
(g58
g59
NtRp2952
(dp2953
g62
(dp2954
g70
I5
ssg71
g2948
sg64
(lp2955
g100
asbasbasbag57
(g73
g59
NtRp2956
(dp2957
g62
(dp2958
sg71
g67
sg64
(lp2959
g57
(g78
g59
NtRp2960
(dp2961
g62
(dp2962
g82
g83
ssg71
g2956
sg64
(lp2963
S'is_local'
p2964
asbag57
(g78
g59
NtRp2965
(dp2966
g62
(dp2967
g89
g90
ssg71
g2956
sg64
(lp2968
S':'
asbag57
(g78
g59
NtRp2969
(dp2970
g62
(dp2971
sg71
g2956
sg64
(lp2972
g57
(g58
g59
NtRp2973
(dp2974
g62
(dp2975
g70
I5
ssg71
g2969
sg64
(lp2976
g2370
asbasbasbag57
(g73
g59
NtRp2977
(dp2978
g62
(dp2979
sg71
g67
sg64
(lp2980
g57
(g78
g59
NtRp2981
(dp2982
g62
(dp2983
g82
g83
ssg71
g2977
sg64
(lp2984
S'is_restful'
p2985
asbag57
(g78
g59
NtRp2986
(dp2987
g62
(dp2988
g89
g90
ssg71
g2977
sg64
(lp2989
S':'
asbag57
(g78
g59
NtRp2990
(dp2991
g62
(dp2992
sg71
g2977
sg64
(lp2993
g57
(g58
g59
NtRp2994
(dp2995
g62
(dp2996
g70
I5
ssg71
g2990
sg64
(lp2997
g100
asbasbasbag57
(g73
g59
NtRp2998
(dp2999
g62
(dp3000
sg71
g67
sg64
(lp3001
g57
(g78
g59
NtRp3002
(dp3003
g62
(dp3004
g82
g83
ssg71
g2998
sg64
(lp3005
S'now'
p3006
asbag57
(g78
g59
NtRp3007
(dp3008
g62
(dp3009
g89
g90
ssg71
g2998
sg64
(lp3010
S':'
asbag57
(g78
g59
NtRp3011
(dp3012
g62
(dp3013
sg71
g2998
sg64
(lp3014
g57
(g58
g59
NtRp3015
(dp3016
g62
(dp3017
g70
I5
ssg71
g3011
sg64
(lp3018
S'datetime.datetime(2014, 9, 28, 13, 11, 0, 301482)'
p3019
asbasbasbag57
(g73
g59
NtRp3020
(dp3021
g62
(dp3022
sg71
g67
sg64
(lp3023
g57
(g78
g59
NtRp3024
(dp3025
g62
(dp3026
g82
g83
ssg71
g3020
sg64
(lp3027
S'post_vars'
p3028
asbag57
(g78
g59
NtRp3029
(dp3030
g62
(dp3031
g89
g90
ssg71
g3020
sg64
(lp3032
S':'
asbag57
(g78
g59
NtRp3033
(dp3034
g62
(dp3035
sg71
g3020
sg64
(lp3036
g57
(g58
g59
NtRp3037
(dp3038
g62
(dp3039
g70
I5
ssg71
g3033
sg64
(lp3040
g57
(g66
g59
NtRp3041
(dp3042
g62
(dp3043
g70
I4
ssg71
Nsg64
(lp3044
sbasbasbasbag57
(g73
g59
NtRp3045
(dp3046
g62
(dp3047
sg71
g67
sg64
(lp3048
g57
(g78
g59
NtRp3049
(dp3050
g62
(dp3051
g82
g83
ssg71
g3045
sg64
(lp3052
S'raw_args'
p3053
asbag57
(g78
g59
NtRp3054
(dp3055
g62
(dp3056
g89
g90
ssg71
g3045
sg64
(lp3057
S':'
asbag57
(g78
g59
NtRp3058
(dp3059
g62
(dp3060
sg71
g3045
sg64
(lp3061
g57
(g58
g59
NtRp3062
(dp3063
g62
(dp3064
g70
I5
ssg71
g3058
sg64
(lp3065
S''
asbasbasbag57
(g73
g59
NtRp3066
(dp3067
g62
(dp3068
sg71
g67
sg64
(lp3069
g57
(g78
g59
NtRp3070
(dp3071
g62
(dp3072
g82
g83
ssg71
g3066
sg64
(lp3073
S'raw_extension'
p3074
asbag57
(g78
g59
NtRp3075
(dp3076
g62
(dp3077
g89
g90
ssg71
g3066
sg64
(lp3078
S':'
asbag57
(g78
g59
NtRp3079
(dp3080
g62
(dp3081
sg71
g3066
sg64
(lp3082
g57
(g58
g59
NtRp3083
(dp3084
g62
(dp3085
g70
I5
ssg71
g3079
sg64
(lp3086
S'None'
p3087
asbasbasbag57
(g73
g59
NtRp3088
(dp3089
g62
(dp3090
sg71
g67
sg64
(lp3091
g57
(g78
g59
NtRp3092
(dp3093
g62
(dp3094
g82
g83
ssg71
g3088
sg64
(lp3095
S'url'
p3096
asbag57
(g78
g59
NtRp3097
(dp3098
g62
(dp3099
g89
g90
ssg71
g3088
sg64
(lp3100
S':'
asbag57
(g78
g59
NtRp3101
(dp3102
g62
(dp3103
sg71
g3088
sg64
(lp3104
g57
(g58
g59
NtRp3105
(dp3106
g62
(dp3107
g70
I5
ssg71
g3101
sg64
(lp3108
g1937
asbasbasbag57
(g73
g59
NtRp3109
(dp3110
g62
(dp3111
sg71
g67
sg64
(lp3112
g57
(g78
g59
NtRp3113
(dp3114
g62
(dp3115
g82
g83
ssg71
g3109
sg64
(lp3116
S'utcnow'
p3117
asbag57
(g78
g59
NtRp3118
(dp3119
g62
(dp3120
g89
g90
ssg71
g3109
sg64
(lp3121
S':'
asbag57
(g78
g59
NtRp3122
(dp3123
g62
(dp3124
sg71
g3109
sg64
(lp3125
g57
(g58
g59
NtRp3126
(dp3127
g62
(dp3128
g70
I5
ssg71
g3122
sg64
(lp3129
S'datetime.datetime(2014, 9, 28, 7, 41, 0, 301522)'
p3130
asbasbasbag57
(g73
g59
NtRp3131
(dp3132
g62
(dp3133
sg71
g67
sg64
(lp3134
g57
(g78
g59
NtRp3135
(dp3136
g62
(dp3137
g82
g83
ssg71
g3131
sg64
(lp3138
S'uuid'
p3139
asbag57
(g78
g59
NtRp3140
(dp3141
g62
(dp3142
g89
g90
ssg71
g3131
sg64
(lp3143
S':'
asbag57
(g78
g59
NtRp3144
(dp3145
g62
(dp3146
sg71
g3131
sg64
(lp3147
g57
(g58
g59
NtRp3148
(dp3149
g62
(dp3150
g70
I5
ssg71
g3144
sg64
(lp3151
S'Garbage_Truck/127.0.0.1.2014-09-28.13-11-00.1376a31a-944d-4c56-afd2-178db2d976ce'
p3152
asbasbasbag57
(g73
g59
NtRp3153
(dp3154
g62
(dp3155
sg71
g67
sg64
(lp3156
g57
(g78
g59
NtRp3157
(dp3158
g62
(dp3159
g82
g83
ssg71
g3153
sg64
(lp3160
S'vars'
p3161
asbag57
(g78
g59
NtRp3162
(dp3163
g62
(dp3164
g89
g90
ssg71
g3153
sg64
(lp3165
S':'
asbag57
(g78
g59
NtRp3166
(dp3167
g62
(dp3168
sg71
g3153
sg64
(lp3169
g57
(g58
g59
NtRp3170
(dp3171
g62
(dp3172
g70
I5
ssg71
g3166
sg64
(lp3173
g57
(g66
g59
NtRp3174
(dp3175
g62
(dp3176
g70
I4
ssg71
Nsg64
(lp3177
sbasbasbasbag57
(g73
g59
NtRp3178
(dp3179
g62
(dp3180
sg71
g67
sg64
(lp3181
g57
(g78
g59
NtRp3182
(dp3183
g62
(dp3184
g82
g83
ssg71
g3178
sg64
(lp3185
S'wsgi'
p3186
asbag57
(g78
g59
NtRp3187
(dp3188
g62
(dp3189
g89
g90
ssg71
g3178
sg64
(lp3190
S':'
asbag57
(g78
g59
NtRp3191
(dp3192
g62
(dp3193
sg71
g3178
sg64
(lp3194
g57
(g58
g59
NtRp3195
(dp3196
g62
(dp3197
g70
I5
ssg71
g3191
sg64
(lp3198
g57
(g66
g59
NtRp3199
(dp3200
g62
(dp3201
g70
I4
ssg71
Nsg64
(lp3202
g57
(g73
g59
NtRp3203
(dp3204
g62
(dp3205
sg71
g3199
sg64
(lp3206
g57
(g78
g59
NtRp3207
(dp3208
g62
(dp3209
g82
g83
ssg71
g3203
sg64
(lp3210
S'environ'
p3211
asbag57
(g78
g59
NtRp3212
(dp3213
g62
(dp3214
g89
g90
ssg71
g3203
sg64
(lp3215
S':'
asbag57
(g78
g59
NtRp3216
(dp3217
g62
(dp3218
sg71
g3203
sg64
(lp3219
g57
(g58
g59
NtRp3220
(dp3221
g62
(dp3222
g70
I4
ssg71
g3216
sg64
(lp3223
g57
(g66
g59
NtRp3224
(dp3225
g62
(dp3226
g70
I3
ssg71
Nsg64
(lp3227
g57
(g73
g59
NtRp3228
(dp3229
g62
(dp3230
sg71
g3224
sg64
(lp3231
g57
(g78
g59
NtRp3232
(dp3233
g62
(dp3234
g82
g83
ssg71
g3228
sg64
(lp3235
S'HTTP_ACCEPT'
p3236
asbag57
(g78
g59
NtRp3237
(dp3238
g62
(dp3239
g89
g90
ssg71
g3228
sg64
(lp3240
S':'
asbag57
(g78
g59
NtRp3241
(dp3242
g62
(dp3243
sg71
g3228
sg64
(lp3244
g57
(g58
g59
NtRp3245
(dp3246
g62
(dp3247
g70
I3
ssg71
g3241
sg64
(lp3248
g1586
asbasbasbag57
(g73
g59
NtRp3249
(dp3250
g62
(dp3251
sg71
g3224
sg64
(lp3252
g57
(g78
g59
NtRp3253
(dp3254
g62
(dp3255
g82
g83
ssg71
g3249
sg64
(lp3256
S'HTTP_ACCEPT_ENCODING'
p3257
asbag57
(g78
g59
NtRp3258
(dp3259
g62
(dp3260
g89
g90
ssg71
g3249
sg64
(lp3261
S':'
asbag57
(g78
g59
NtRp3262
(dp3263
g62
(dp3264
sg71
g3249
sg64
(lp3265
g57
(g58
g59
NtRp3266
(dp3267
g62
(dp3268
g70
I3
ssg71
g3262
sg64
(lp3269
g1608
asbasbasbag57
(g73
g59
NtRp3270
(dp3271
g62
(dp3272
sg71
g3224
sg64
(lp3273
g57
(g78
g59
NtRp3274
(dp3275
g62
(dp3276
g82
g83
ssg71
g3270
sg64
(lp3277
S'HTTP_ACCEPT_LANGUAGE'
p3278
asbag57
(g78
g59
NtRp3279
(dp3280
g62
(dp3281
g89
g90
ssg71
g3270
sg64
(lp3282
S':'
asbag57
(g78
g59
NtRp3283
(dp3284
g62
(dp3285
sg71
g3270
sg64
(lp3286
g57
(g58
g59
NtRp3287
(dp3288
g62
(dp3289
g70
I3
ssg71
g3283
sg64
(lp3290
g1630
asbasbasbag57
(g73
g59
NtRp3291
(dp3292
g62
(dp3293
sg71
g3224
sg64
(lp3294
g57
(g78
g59
NtRp3295
(dp3296
g62
(dp3297
g82
g83
ssg71
g3291
sg64
(lp3298
S'HTTP_CACHE_CONTROL'
p3299
asbag57
(g78
g59
NtRp3300
(dp3301
g62
(dp3302
g89
g90
ssg71
g3291
sg64
(lp3303
S':'
asbag57
(g78
g59
NtRp3304
(dp3305
g62
(dp3306
sg71
g3291
sg64
(lp3307
g57
(g58
g59
NtRp3308
(dp3309
g62
(dp3310
g70
I3
ssg71
g3304
sg64
(lp3311
g1652
asbasbasbag57
(g73
g59
NtRp3312
(dp3313
g62
(dp3314
sg71
g3224
sg64
(lp3315
g57
(g78
g59
NtRp3316
(dp3317
g62
(dp3318
g82
g83
ssg71
g3312
sg64
(lp3319
S'HTTP_CONNECTION'
p3320
asbag57
(g78
g59
NtRp3321
(dp3322
g62
(dp3323
g89
g90
ssg71
g3312
sg64
(lp3324
S':'
asbag57
(g78
g59
NtRp3325
(dp3326
g62
(dp3327
sg71
g3312
sg64
(lp3328
g57
(g58
g59
NtRp3329
(dp3330
g62
(dp3331
g70
I3
ssg71
g3325
sg64
(lp3332
g1674
asbasbasbag57
(g73
g59
NtRp3333
(dp3334
g62
(dp3335
sg71
g3224
sg64
(lp3336
g57
(g78
g59
NtRp3337
(dp3338
g62
(dp3339
g82
g83
ssg71
g3333
sg64
(lp3340
S'HTTP_COOKIE'
p3341
asbag57
(g78
g59
NtRp3342
(dp3343
g62
(dp3344
g89
g90
ssg71
g3333
sg64
(lp3345
S':'
asbag57
(g78
g59
NtRp3346
(dp3347
g62
(dp3348
sg71
g3333
sg64
(lp3349
g57
(g58
g59
NtRp3350
(dp3351
g62
(dp3352
g70
I3
ssg71
g3346
sg64
(lp3353
g1696
asbasbasbag57
(g73
g59
NtRp3354
(dp3355
g62
(dp3356
sg71
g3224
sg64
(lp3357
g57
(g78
g59
NtRp3358
(dp3359
g62
(dp3360
g82
g83
ssg71
g3354
sg64
(lp3361
S'HTTP_DNT'
p3362
asbag57
(g78
g59
NtRp3363
(dp3364
g62
(dp3365
g89
g90
ssg71
g3354
sg64
(lp3366
S':'
asbag57
(g78
g59
NtRp3367
(dp3368
g62
(dp3369
sg71
g3354
sg64
(lp3370
g57
(g58
g59
NtRp3371
(dp3372
g62
(dp3373
g70
I3
ssg71
g3367
sg64
(lp3374
S'1'
asbasbasbag57
(g73
g59
NtRp3375
(dp3376
g62
(dp3377
sg71
g3224
sg64
(lp3378
g57
(g78
g59
NtRp3379
(dp3380
g62
(dp3381
g82
g83
ssg71
g3375
sg64
(lp3382
S'HTTP_HOST'
p3383
asbag57
(g78
g59
NtRp3384
(dp3385
g62
(dp3386
g89
g90
ssg71
g3375
sg64
(lp3387
S':'
asbag57
(g78
g59
NtRp3388
(dp3389
g62
(dp3390
sg71
g3375
sg64
(lp3391
g57
(g58
g59
NtRp3392
(dp3393
g62
(dp3394
g70
I3
ssg71
g3388
sg64
(lp3395
g1739
asbasbasbag57
(g73
g59
NtRp3396
(dp3397
g62
(dp3398
sg71
g3224
sg64
(lp3399
g57
(g78
g59
NtRp3400
(dp3401
g62
(dp3402
g82
g83
ssg71
g3396
sg64
(lp3403
S'HTTP_REFERER'
p3404
asbag57
(g78
g59
NtRp3405
(dp3406
g62
(dp3407
g89
g90
ssg71
g3396
sg64
(lp3408
S':'
asbag57
(g78
g59
NtRp3409
(dp3410
g62
(dp3411
sg71
g3396
sg64
(lp3412
g57
(g58
g59
NtRp3413
(dp3414
g62
(dp3415
g70
I3
ssg71
g3409
sg64
(lp3416
g1761
asbasbasbag57
(g73
g59
NtRp3417
(dp3418
g62
(dp3419
sg71
g3224
sg64
(lp3420
g57
(g78
g59
NtRp3421
(dp3422
g62
(dp3423
g82
g83
ssg71
g3417
sg64
(lp3424
S'HTTP_USER_AGENT'
p3425
asbag57
(g78
g59
NtRp3426
(dp3427
g62
(dp3428
g89
g90
ssg71
g3417
sg64
(lp3429
S':'
asbag57
(g78
g59
NtRp3430
(dp3431
g62
(dp3432
sg71
g3417
sg64
(lp3433
g57
(g58
g59
NtRp3434
(dp3435
g62
(dp3436
g70
I3
ssg71
g3430
sg64
(lp3437
g1783
asbasbasbag57
(g73
g59
NtRp3438
(dp3439
g62
(dp3440
sg71
g3224
sg64
(lp3441
g57
(g78
g59
NtRp3442
(dp3443
g62
(dp3444
g82
g83
ssg71
g3438
sg64
(lp3445
S'PATH_INFO'
p3446
asbag57
(g78
g59
NtRp3447
(dp3448
g62
(dp3449
g89
g90
ssg71
g3438
sg64
(lp3450
S':'
asbag57
(g78
g59
NtRp3451
(dp3452
g62
(dp3453
sg71
g3438
sg64
(lp3454
g57
(g58
g59
NtRp3455
(dp3456
g62
(dp3457
g70
I3
ssg71
g3451
sg64
(lp3458
g1937
asbasbasbag57
(g73
g59
NtRp3459
(dp3460
g62
(dp3461
sg71
g3224
sg64
(lp3462
g57
(g78
g59
NtRp3463
(dp3464
g62
(dp3465
g82
g83
ssg71
g3459
sg64
(lp3466
S'QUERY_STRING'
p3467
asbag57
(g78
g59
NtRp3468
(dp3469
g62
(dp3470
g89
g90
ssg71
g3459
sg64
(lp3471
S':'
asbag57
(g78
g59
NtRp3472
(dp3473
g62
(dp3474
sg71
g3459
sg64
(lp3475
g57
(g58
g59
NtRp3476
(dp3477
g62
(dp3478
g70
I3
ssg71
g3472
sg64
(lp3479
S''
asbasbasbag57
(g73
g59
NtRp3480
(dp3481
g62
(dp3482
sg71
g3224
sg64
(lp3483
g57
(g78
g59
NtRp3484
(dp3485
g62
(dp3486
g82
g83
ssg71
g3480
sg64
(lp3487
S'REMOTE_ADDR'
p3488
asbag57
(g78
g59
NtRp3489
(dp3490
g62
(dp3491
g89
g90
ssg71
g3480
sg64
(lp3492
S':'
asbag57
(g78
g59
NtRp3493
(dp3494
g62
(dp3495
sg71
g3480
sg64
(lp3496
g57
(g58
g59
NtRp3497
(dp3498
g62
(dp3499
g70
I3
ssg71
g3493
sg64
(lp3500
g212
asbasbasbag57
(g73
g59
NtRp3501
(dp3502
g62
(dp3503
sg71
g3224
sg64
(lp3504
g57
(g78
g59
NtRp3505
(dp3506
g62
(dp3507
g82
g83
ssg71
g3501
sg64
(lp3508
S'REMOTE_PORT'
p3509
asbag57
(g78
g59
NtRp3510
(dp3511
g62
(dp3512
g89
g90
ssg71
g3501
sg64
(lp3513
S':'
asbag57
(g78
g59
NtRp3514
(dp3515
g62
(dp3516
sg71
g3501
sg64
(lp3517
g57
(g58
g59
NtRp3518
(dp3519
g62
(dp3520
g70
I3
ssg71
g3514
sg64
(lp3521
g2001
asbasbasbag57
(g73
g59
NtRp3522
(dp3523
g62
(dp3524
sg71
g3224
sg64
(lp3525
g57
(g78
g59
NtRp3526
(dp3527
g62
(dp3528
g82
g83
ssg71
g3522
sg64
(lp3529
S'REQUEST_METHOD'
p3530
asbag57
(g78
g59
NtRp3531
(dp3532
g62
(dp3533
g89
g90
ssg71
g3522
sg64
(lp3534
S':'
asbag57
(g78
g59
NtRp3535
(dp3536
g62
(dp3537
sg71
g3522
sg64
(lp3538
g57
(g58
g59
NtRp3539
(dp3540
g62
(dp3541
g70
I3
ssg71
g3535
sg64
(lp3542
g2023
asbasbasbag57
(g73
g59
NtRp3543
(dp3544
g62
(dp3545
sg71
g3224
sg64
(lp3546
g57
(g78
g59
NtRp3547
(dp3548
g62
(dp3549
g82
g83
ssg71
g3543
sg64
(lp3550
S'REQUEST_URI'
p3551
asbag57
(g78
g59
NtRp3552
(dp3553
g62
(dp3554
g89
g90
ssg71
g3543
sg64
(lp3555
S':'
asbag57
(g78
g59
NtRp3556
(dp3557
g62
(dp3558
sg71
g3543
sg64
(lp3559
g57
(g58
g59
NtRp3560
(dp3561
g62
(dp3562
g70
I3
ssg71
g3556
sg64
(lp3563
g1937
asbasbasbag57
(g73
g59
NtRp3564
(dp3565
g62
(dp3566
sg71
g3224
sg64
(lp3567
g57
(g78
g59
NtRp3568
(dp3569
g62
(dp3570
g82
g83
ssg71
g3564
sg64
(lp3571
S'SCRIPT_NAME'
p3572
asbag57
(g78
g59
NtRp3573
(dp3574
g62
(dp3575
g89
g90
ssg71
g3564
sg64
(lp3576
S':'
asbag57
(g78
g59
NtRp3577
(dp3578
g62
(dp3579
sg71
g3564
sg64
(lp3580
g57
(g58
g59
NtRp3581
(dp3582
g62
(dp3583
g70
I3
ssg71
g3577
sg64
(lp3584
S''
asbasbasbag57
(g73
g59
NtRp3585
(dp3586
g62
(dp3587
sg71
g3224
sg64
(lp3588
g57
(g78
g59
NtRp3589
(dp3590
g62
(dp3591
g82
g83
ssg71
g3585
sg64
(lp3592
S'SERVER_NAME'
p3593
asbag57
(g78
g59
NtRp3594
(dp3595
g62
(dp3596
g89
g90
ssg71
g3585
sg64
(lp3597
S':'
asbag57
(g78
g59
NtRp3598
(dp3599
g62
(dp3600
sg71
g3585
sg64
(lp3601
g57
(g58
g59
NtRp3602
(dp3603
g62
(dp3604
g70
I3
ssg71
g3598
sg64
(lp3605
g2087
asbasbasbag57
(g73
g59
NtRp3606
(dp3607
g62
(dp3608
sg71
g3224
sg64
(lp3609
g57
(g78
g59
NtRp3610
(dp3611
g62
(dp3612
g82
g83
ssg71
g3606
sg64
(lp3613
S'SERVER_PORT'
p3614
asbag57
(g78
g59
NtRp3615
(dp3616
g62
(dp3617
g89
g90
ssg71
g3606
sg64
(lp3618
S':'
asbag57
(g78
g59
NtRp3619
(dp3620
g62
(dp3621
sg71
g3606
sg64
(lp3622
g57
(g58
g59
NtRp3623
(dp3624
g62
(dp3625
g70
I3
ssg71
g3619
sg64
(lp3626
g2109
asbasbasbag57
(g73
g59
NtRp3627
(dp3628
g62
(dp3629
sg71
g3224
sg64
(lp3630
g57
(g78
g59
NtRp3631
(dp3632
g62
(dp3633
g82
g83
ssg71
g3627
sg64
(lp3634
S'SERVER_PROTOCOL'
p3635
asbag57
(g78
g59
NtRp3636
(dp3637
g62
(dp3638
g89
g90
ssg71
g3627
sg64
(lp3639
S':'
asbag57
(g78
g59
NtRp3640
(dp3641
g62
(dp3642
sg71
g3627
sg64
(lp3643
g57
(g58
g59
NtRp3644
(dp3645
g62
(dp3646
g70
I3
ssg71
g3640
sg64
(lp3647
g2131
asbasbasbag57
(g73
g59
NtRp3648
(dp3649
g62
(dp3650
sg71
g3224
sg64
(lp3651
g57
(g78
g59
NtRp3652
(dp3653
g62
(dp3654
g82
g83
ssg71
g3648
sg64
(lp3655
S'SERVER_SOFTWARE'
p3656
asbag57
(g78
g59
NtRp3657
(dp3658
g62
(dp3659
g89
g90
ssg71
g3648
sg64
(lp3660
S':'
asbag57
(g78
g59
NtRp3661
(dp3662
g62
(dp3663
sg71
g3648
sg64
(lp3664
g57
(g58
g59
NtRp3665
(dp3666
g62
(dp3667
g70
I3
ssg71
g3661
sg64
(lp3668
g2153
asbasbasbag57
(g73
g59
NtRp3669
(dp3670
g62
(dp3671
sg71
g3224
sg64
(lp3672
g57
(g78
g59
NtRp3673
(dp3674
g62
(dp3675
g82
g83
ssg71
g3669
sg64
(lp3676
S'wsgi.errors'
p3677
asbag57
(g78
g59
NtRp3678
(dp3679
g62
(dp3680
g89
g90
ssg71
g3669
sg64
(lp3681
S':'
asbag57
(g78
g59
NtRp3682
(dp3683
g62
(dp3684
sg71
g3669
sg64
(lp3685
g57
(g58
g59
NtRp3686
(dp3687
g62
(dp3688
g70
I3
ssg71
g3682
sg64
(lp3689
S"<open file '<stderr>', mode 'w' at 0x7f92c1bb41e0>"
p3690
asbasbasbag57
(g73
g59
NtRp3691
(dp3692
g62
(dp3693
sg71
g3224
sg64
(lp3694
g57
(g78
g59
NtRp3695
(dp3696
g62
(dp3697
g82
g83
ssg71
g3691
sg64
(lp3698
S'wsgi.file_wrapper'
p3699
asbag57
(g78
g59
NtRp3700
(dp3701
g62
(dp3702
g89
g90
ssg71
g3691
sg64
(lp3703
S':'
asbag57
(g78
g59
NtRp3704
(dp3705
g62
(dp3706
sg71
g3691
sg64
(lp3707
g57
(g58
g59
NtRp3708
(dp3709
g62
(dp3710
g70
I3
ssg71
g3704
sg64
(lp3711
S'<class wsgiref.util.FileWrapper at 0x7f92bab98808>'
p3712
asbasbasbag57
(g73
g59
NtRp3713
(dp3714
g62
(dp3715
sg71
g3224
sg64
(lp3716
g57
(g78
g59
NtRp3717
(dp3718
g62
(dp3719
g82
g83
ssg71
g3713
sg64
(lp3720
S'wsgi.input'
p3721
asbag57
(g78
g59
NtRp3722
(dp3723
g62
(dp3724
g89
g90
ssg71
g3713
sg64
(lp3725
S':'
asbag57
(g78
g59
NtRp3726
(dp3727
g62
(dp3728
sg71
g3713
sg64
(lp3729
g57
(g58
g59
NtRp3730
(dp3731
g62
(dp3732
g70
I3
ssg71
g3726
sg64
(lp3733
S'<cStringIO.StringO object at 0x7f92a866dab0>'
p3734
asbasbasbag57
(g73
g59
NtRp3735
(dp3736
g62
(dp3737
sg71
g3224
sg64
(lp3738
g57
(g78
g59
NtRp3739
(dp3740
g62
(dp3741
g82
g83
ssg71
g3735
sg64
(lp3742
S'wsgi.multiprocess'
p3743
asbag57
(g78
g59
NtRp3744
(dp3745
g62
(dp3746
g89
g90
ssg71
g3735
sg64
(lp3747
S':'
asbag57
(g78
g59
NtRp3748
(dp3749
g62
(dp3750
sg71
g3735
sg64
(lp3751
g57
(g58
g59
NtRp3752
(dp3753
g62
(dp3754
g70
I3
ssg71
g3748
sg64
(lp3755
g100
asbasbasbag57
(g73
g59
NtRp3756
(dp3757
g62
(dp3758
sg71
g3224
sg64
(lp3759
g57
(g78
g59
NtRp3760
(dp3761
g62
(dp3762
g82
g83
ssg71
g3756
sg64
(lp3763
S'wsgi.multithread'
p3764
asbag57
(g78
g59
NtRp3765
(dp3766
g62
(dp3767
g89
g90
ssg71
g3756
sg64
(lp3768
S':'
asbag57
(g78
g59
NtRp3769
(dp3770
g62
(dp3771
sg71
g3756
sg64
(lp3772
g57
(g58
g59
NtRp3773
(dp3774
g62
(dp3775
g70
I3
ssg71
g3769
sg64
(lp3776
g2370
asbasbasbag57
(g73
g59
NtRp3777
(dp3778
g62
(dp3779
sg71
g3224
sg64
(lp3780
g57
(g78
g59
NtRp3781
(dp3782
g62
(dp3783
g82
g83
ssg71
g3777
sg64
(lp3784
S'wsgi.run_once'
p3785
asbag57
(g78
g59
NtRp3786
(dp3787
g62
(dp3788
g89
g90
ssg71
g3777
sg64
(lp3789
S':'
asbag57
(g78
g59
NtRp3790
(dp3791
g62
(dp3792
sg71
g3777
sg64
(lp3793
g57
(g58
g59
NtRp3794
(dp3795
g62
(dp3796
g70
I3
ssg71
g3790
sg64
(lp3797
g100
asbasbasbag57
(g73
g59
NtRp3798
(dp3799
g62
(dp3800
sg71
g3224
sg64
(lp3801
g57
(g78
g59
NtRp3802
(dp3803
g62
(dp3804
g82
g83
ssg71
g3798
sg64
(lp3805
S'wsgi.url_scheme'
p3806
asbag57
(g78
g59
NtRp3807
(dp3808
g62
(dp3809
g89
g90
ssg71
g3798
sg64
(lp3810
S':'
asbag57
(g78
g59
NtRp3811
(dp3812
g62
(dp3813
sg71
g3798
sg64
(lp3814
g57
(g58
g59
NtRp3815
(dp3816
g62
(dp3817
g70
I3
ssg71
g3811
sg64
(lp3818
g2413
asbasbasbag57
(g73
g59
NtRp3819
(dp3820
g62
(dp3821
sg71
g3224
sg64
(lp3822
g57
(g78
g59
NtRp3823
(dp3824
g62
(dp3825
g82
g83
ssg71
g3819
sg64
(lp3826
S'wsgi.version'
p3827
asbag57
(g78
g59
NtRp3828
(dp3829
g62
(dp3830
g89
g90
ssg71
g3819
sg64
(lp3831
S':'
asbag57
(g78
g59
NtRp3832
(dp3833
g62
(dp3834
sg71
g3819
sg64
(lp3835
g57
(g58
g59
NtRp3836
(dp3837
g62
(dp3838
g70
I3
ssg71
g3832
sg64
(lp3839
S'1'
asbasbasbasbasbasbasbasbasbasbasbasbasbsS'frames'
p3840
(lp3841
(dp3842
S'file'
p3843
S'/home/darshan/web2py/gluon/restricted.py'
p3844
sS'dump'
p3845
(dp3846
S'environment'
p3847
S"{'A': <class 'gluon.html.A'>, 'Auth': <class 'gluon.tools.Auth'>, 'B': <class 'gluon.html.B'>, 'BEAUTIFY': <class 'gluon.html.BEAUTIFY'>, 'BODY': <class 'gluon.html.BODY'>, 'BR': <class 'gluon.html.BR'>, 'BUTTON': <class 'gluon.html.BUTTON'>, 'CAT': <class 'gluon.html.CAT'>, 'CENTER': <class 'gluon.html.CENTER'>, 'CLEANUP': <class 'gluon.validators.CLEANUP'>, ...}"
p3848
sS'ccode'
p3849
S'<code object <module> at 0x7f92899f0b30, file "/...ews/default/request_reservior_view.html", line 1>'
p3850
ssS'lnum'
p3851
I212
sS'lines'
p3852
(dp3853
I207
S'    try:'
p3854
sI208
S'        if isinstance(code, types.CodeType):'
p3855
sI209
S'            ccode = code'
p3856
sI210
S'        else:'
p3857
sI211
S'            ccode = compile2(code, layer)'
p3858
sI212
S'        exec ccode in environment'
p3859
sI213
S'    except HTTP:'
p3860
sI214
S'        raise'
p3861
sI215
S'    except RestrictedError:'
p3862
sI216
S'        # do not encapsulate (obfuscate) the original RestrictedError'
p3863
ssS'call'
p3864
S'(code=\'response.write(\\\'<!DOCTYPE html PUBLIC "-//W3C//D...d footer -->\\\\n </body>\\\\n</html>\\\\n\\\', escape=False)\', environment={\'A\': <class \'gluon.html.A\'>, \'Auth\': <class \'gluon.tools.Auth\'>, \'B\': <class \'gluon.html.B\'>, \'BEAUTIFY\': <class \'gluon.html.BEAUTIFY\'>, \'BODY\': <class \'gluon.html.BODY\'>, \'BR\': <class \'gluon.html.BR\'>, \'BUTTON\': <class \'gluon.html.BUTTON\'>, \'CAT\': <class \'gluon.html.CAT\'>, \'CENTER\': <class \'gluon.html.CENTER\'>, \'CLEANUP\': <class \'gluon.validators.CLEANUP\'>, ...}, layer=\'/home/darshan/web2py/applications/Garbage_Truck/views/default/request_reservior_view.html\')'
p3865
sS'func'
p3866
S'restricted'
p3867
sa(dp3868
g3843
S'/home/darshan/web2py/applications/Garbage_Truck/views/default/request_reservior_view.html'
p3869
sg3845
(dp3870
sg3851
I66
sg3852
(dp3871
I64
S'        response.write(disp)'
p3872
sI65
S'        response.write(\' &nbsp;&nbsp;\\n<a href="\', escape=False)'
p3873
sI66
S"        response.write(URL('edit_status',args=[d[i].request_collection.id]))"
p3874
sI67
S'        response.write(\'">Edit</a>\\n<br><br><br>\\n\', escape=False)'
p3875
sI68
S'        pass'
p3876
sI69
S"    response.write('\\n<br><br><br><br><br><br>\\n', escape=False)"
p3877
sI70
S'    pass'
p3878
sI71
S"response.write('\\n', escape=False)"
p3879
sI72
S'response.write(\'\\n<p><br/><br/><br/><br/><br/><br/><br/><br/><br/><br/><br/><br/><br/><br/></p>\\n    </div>\\n    <!-- end content -->\\n    <!-- start sidebar -->\\n    <div id="sidebar">\\n     <ul>\\n    <!--  <li id="categories">\\n       <h2>\\n        Categories\\n       </h2>\\n       <ul>\\n        <li>\\n         <a href="#">\\n          Lorem Ipsum\\n         </a>\\n         (1)\\n        </li>\\n        <li>\\n         <a href="#">\\n          Uncategorized\\n         </a>\\n         (4)\\n        </li>\\n        <li>\\n         <a href="#">\\n          Nulla luctus eleifend\\n         </a>\\n         (1)\\n        </li>\\n        <li>\\n         <a href="#">\\n          Pellentesque tempus\\n         </a>\\n         (4)\\n        </li>\\n        <li>\\n         <a href="#">\\n          Donec dictum metus\\n         </a>\\n         (1)\\n        </li>\\n        <li>\\n         <a href="#">\\n          Etiam posuere augue\\n         </a>\\n         (4)\\n        </li>\\n       </ul>\\n      </li>-->\\n      <li id="calendar">\\n       <h2>\\n        Calendar\\n       </h2>\\n       <div id="calendar_wrap">\\n        <table id="wp-calendar" summary="Calendar">\\n         <caption>\\n          September 2014\\n         </caption>\\n         <thead>\\n          <tr>\\n           <th abbr="Monday" scope="col" title="Monday">\\n            M\\n           </th>\\n           <th abbr="Tuesday" scope="col" title="Tuesday">\\n            T\\n           </th>\\n           <th abbr="Wednesday" scope="col" title="Wednesday">\\n            W\\n           </th>\\n           <th abbr="Thursday" scope="col" title="Thursday">\\n            T\\n           </th>\\n           <th abbr="Friday" scope="col" title="Friday">\\n            F\\n           </th>\\n           <th abbr="Saturday" scope="col" title="Saturday">\\n            S\\n           </th>\\n           <th abbr="Sunday" scope="col" title="Sunday">\\n            S\\n           </th>\\n          </tr>\\n         </thead>\\n         <tfoot>\\n          <tr>\\n           <td abbr="July" colspan="3" id="prev">\\n            <a href="#">\\n             &laquo; Jul\\n            </a>\\n           </td>\\n           <td class="pad">\\n            &nbsp;\\n           </td>\\n           <td abbr="September" colspan="3" id="next" class="pad">\\n            <a href="#">\\n             Sep &raquo;\\n            </a>\\n           </td>\\n          </tr>\\n         </tfoot>\\n         <tbody>\\n          <tr>\\n           <td colspan="2" class="pad">\\n            &nbsp;\\n           </td>\\n           <td>\\n            1\\n           </td>\\n           <td>\\n            2\\n           </td>\\n           <td>\\n            3\\n           </td>\\n           <td>\\n            4\\n           </td>\\n           <td>\\n            5\\n           </td>\\n          </tr>\\n          <tr>\\n           <td>\\n            6\\n           </td>\\n           <td>\\n            7\\n           </td>\\n           <td>\\n            8\\n           </td>\\n           <td>\\n            9\\n           </td>\\n           <td>\\n            10\\n           </td>\\n           <td>\\n            11\\n           </td>\\n           <td>\\n            12\\n           </td>\\n          </tr>\\n          <tr>\\n           <td>\\n            13\\n           </td>\\n           <td>\\n            14\\n           </td>\\n           <td>\\n            15\\n           </td>\\n           <td>\\n            16\\n           </td>\\n           <td>\\n            17\\n           </td>\\n           <td>\\n            18\\n           </td>\\n           <td>\\n            19\\n           </td>\\n          </tr>\\n          <tr>\\n           <td>\\n            20\\n           </td>\\n           <td>\\n            21\\n           </td>\\n           <td>\\n            22\\n           </td>\\n           <td>\\n            23\\n           </td>\\n           <td>\\n            24\\n           </td>\\n           <td>\\n            25\\n           </td>\\n           <td>\\n            26\\n           </td>\\n          </tr>\\n          <tr>\\n           <td>\\n            27\\n           </td>\\n           <td id="today">\\n            28\\n           </td>\\n           <td>\\n            29\\n           </td>\\n           <td>\\n            30\\n           </td>\\n           <td>\\n            31\\n           </td>\\n           <td class="pad" colspan="2">\\n            &nbsp;\\n           </td>\\n          </tr>\\n         </tbody>\\n        </table>\\n       </div>\\n      </li>\\n      <!--<li>\\n       <h2>\\n        Lorem Ipsum Dolor\\n       </h2>\\n       <ul>\\n        <li>\\n         <a href="#">\\n          Nulla luctus eleifend purus\\n         </a>\\n        </li>\\n        <li>\\n         <a href="#">\\n          Praesent scelerisque scelerisque erat\\n         </a>\\n        </li>\\n        <li>\\n         <a href="#">\\n          Ut nonummy rutrum sem\\n         </a>\\n        </li>\\n        <li>\\n         <a href="#">\\n          Pellentesque tempus quam quis nulla\\n         </a>\\n        </li>\\n        <li>\\n         <a href="#">\\n          Fusce ultrices fringilla metus\\n         </a>\\n        </li>\\n        <li>\\n         <a href="#">\\n          Praesent mattis condimentum nisl\\n         </a>\\n        </li>\\n       </ul>\\n      </li>-->\\n     </ul>\\n    </div>\\n    <!-- end sidebar -->\\n    <br style="clear: both;" />\\n   </div>\\n  </div>\\n  <!-- end page -->\\n  <!-- start footer -->\\n  <div id="wrapper2">\\n   <div id="footer">\\n    <ul>\\n     <li class="first">\\n      <h2>\\n       About us\\n      </h2>\\n      <ul>\\n       <li>\\n        <a href="#">\\n         GHMC Garbage management administration\\n        </a>\\n       </li>\\n      <!-- <li>\\n        <a href="#">\\n         Praesent scelerisque scelerisque erat\\n        </a>\\n       </li>\\n       <li>\\n        <a href="#">\\n         Ut nonummy rutrum sem\\n        </a>\\n       </li>\\n       <li>\\n        <a href="#">\\n         Pellentesque tempus quam quis nulla\\n        </a>\\n       </li>\\n       <li>\\n        <a href="#">\\n         Fusce ultrices fringilla metus\\n        </a>\\n       </li>\\n       <li>\\n        <a href="#">\\n         Praesent mattis condimentum nisl\\n        </a>\\n       </li>-->\\n      </ul>\\n     </li>\\n     <li>\\n      <h2>\\n       Contact us\\n      </h2>\\n      <ul>\\n       <li>\\n        <a href="http://www.ghmc.gov.in/">\\n         www.ghmc.gov.in/\\n        </a>\\n       </li>\\n       <!--<li>\\n        <a href="#">\\n         Praesent scelerisque scelerisque erat\\n        </a>\\n       </li>\\n       <li>\\n        <a href="#">\\n         Ut nonummy rutrum sem\\n        </a>\\n       </li>\\n       <li>\\n        <a href="#">\\n         Pellentesque tempus quam quis nulla\\n        </a>\\n       </li>\\n       <li>\\n        <a href="#">\\n         Fusce ultrices fringilla metus\\n        </a>\\n       </li>\\n       <li>\\n        <a href="#">\\n         Praesent mattis condimentum nisl\\n        </a>\\n       </li>-->\\n      </ul>\\n     </li>\\n     <!--<li>\\n      <h2>\\n       Fusce ultrices fringilla\\n      </h2>\\n      <ul>\\n       <li>\\n        <a href="#">\\n         Nulla luctus eleifend purus\\n        </a>\\n       </li>\\n       <li>\\n        <a href="#">\\n         Praesent scelerisque scelerisque erat\\n        </a>\\n       </li>\\n       <li>\\n        <a href="#">\\n         Ut nonummy rutrum sem\\n        </a>\\n       </li>\\n       <li>\\n        <a href="#">\\n         Pellentesque tempus quam quis nulla\\n        </a>\\n       </li>\\n       <li>\\n        <a href="#">\\n         Fusce ultrices fringilla metus\\n        </a>\\n       </li>\\n       <li>\\n        <a href="#">\\n         Praesent mattis condimentum nisl\\n        </a>\\n       </li>\\n      </ul>\\n     </li>-->\\n    </ul>\\n   </div>\\n   <p id="legal">\\n    &copy;All Rights Reserved.\\n\\t\\t&nbsp;&nbsp;&bull;&nbsp;&nbsp;\\n\\t\\tDesign by\\n    <a href="#">\\n     Darshan, Darpan, Nazrul\\n    </a>\\n   <!-- &nbsp;&nbsp;&bull;&nbsp;&nbsp;\\n\\t\\tIcons by\\n    <a href="http://famfamfam.com/">\\n     FAMFAMFAM\\n    </a>\\n    .\\n    <a href="http://validator.w3.org/check/referer" class="xhtml" title="This page validates as XHTML">\\n     Valid\\n     <abbr title="eXtensible HyperText Markup Language">\\n      XHTML\\n     </abbr>\\n    </a>\\n    &nbsp;&nbsp;&bull;&nbsp;&nbsp;\\n    <a href="http://jigsaw.w3.org/css-validator/check/referer" class="css" title="This page validates as CSS">\\n     Valid\\n     <abbr title="Cascading Style Sheets">\\n      CSS\\n     </abbr>\\n    </a>-->\\n   </p>\\n  </div>\\n  <!-- end footer -->\\n </body>\\n</html>\\n\', escape=False)'
p3880
sI57
S"            disp='Verified'"
p3881
sI58
S"        elif stat=='4':"
p3882
sI59
S"            disp='Processing'"
p3883
sI60
S"        elif stat=='5':"
p3884
sI61
S"            disp='Completed'"
p3885
sI62
S'            pass'
p3886
sI63
S"        response.write('\\nStatus : ', escape=False)"
p3887
ssg3864
S'()'
p3888
sg3866
S'<module>'
p3889
sasS'pyver'
p3890
S'Python 2.7.6: /usr/bin/python'
p3891
sS'session'
p3892
g57
(g58
g59
NtRp3893
(dp3894
g62
(dp3895
sg64
(lp3896
g57
(g66
g59
NtRp3897
(dp3898
g62
(dp3899
g70
I5
ssg71
Nsg64
(lp3900
g57
(g73
g59
NtRp3901
(dp3902
g62
(dp3903
sg71
g3897
sg64
(lp3904
g57
(g78
g59
NtRp3905
(dp3906
g62
(dp3907
g82
g83
ssg71
g3901
sg64
(lp3908
S'auth'
p3909
asbag57
(g78
g59
NtRp3910
(dp3911
g62
(dp3912
g89
g90
ssg71
g3901
sg64
(lp3913
S':'
asbag57
(g78
g59
NtRp3914
(dp3915
g62
(dp3916
sg71
g3901
sg64
(lp3917
g57
(g58
g59
NtRp3918
(dp3919
g62
(dp3920
g70
I5
ssg71
g3914
sg64
(lp3921
g57
(g66
g59
NtRp3922
(dp3923
g62
(dp3924
g70
I4
ssg71
Nsg64
(lp3925
g57
(g73
g59
NtRp3926
(dp3927
g62
(dp3928
sg71
g3922
sg64
(lp3929
g57
(g78
g59
NtRp3930
(dp3931
g62
(dp3932
g82
g83
ssg71
g3926
sg64
(lp3933
S'expiration'
p3934
asbag57
(g78
g59
NtRp3935
(dp3936
g62
(dp3937
g89
g90
ssg71
g3926
sg64
(lp3938
S':'
asbag57
(g78
g59
NtRp3939
(dp3940
g62
(dp3941
sg71
g3926
sg64
(lp3942
g57
(g58
g59
NtRp3943
(dp3944
g62
(dp3945
g70
I4
ssg71
g3939
sg64
(lp3946
S'3600'
p3947
asbasbasbag57
(g73
g59
NtRp3948
(dp3949
g62
(dp3950
sg71
g3922
sg64
(lp3951
g57
(g78
g59
NtRp3952
(dp3953
g62
(dp3954
g82
g83
ssg71
g3948
sg64
(lp3955
S'hmac_key'
p3956
asbag57
(g78
g59
NtRp3957
(dp3958
g62
(dp3959
g89
g90
ssg71
g3948
sg64
(lp3960
S':'
asbag57
(g78
g59
NtRp3961
(dp3962
g62
(dp3963
sg71
g3948
sg64
(lp3964
g57
(g58
g59
NtRp3965
(dp3966
g62
(dp3967
g70
I4
ssg71
g3961
sg64
(lp3968
S'd4d241e7-6afc-422e-a638-d1cb724bb071'
p3969
asbasbasbag57
(g73
g59
NtRp3970
(dp3971
g62
(dp3972
sg71
g3922
sg64
(lp3973
g57
(g78
g59
NtRp3974
(dp3975
g62
(dp3976
g82
g83
ssg71
g3970
sg64
(lp3977
S'last_visit'
p3978
asbag57
(g78
g59
NtRp3979
(dp3980
g62
(dp3981
g89
g90
ssg71
g3970
sg64
(lp3982
S':'
asbag57
(g78
g59
NtRp3983
(dp3984
g62
(dp3985
sg71
g3970
sg64
(lp3986
g57
(g58
g59
NtRp3987
(dp3988
g62
(dp3989
g70
I4
ssg71
g3983
sg64
(lp3990
S'datetime.datetime(2014, 9, 28, 13, 8, 15, 564831)'
p3991
asbasbasbag57
(g73
g59
NtRp3992
(dp3993
g62
(dp3994
sg71
g3922
sg64
(lp3995
g57
(g78
g59
NtRp3996
(dp3997
g62
(dp3998
g82
g83
ssg71
g3992
sg64
(lp3999
S'remember'
p4000
asbag57
(g78
g59
NtRp4001
(dp4002
g62
(dp4003
g89
g90
ssg71
g3992
sg64
(lp4004
S':'
asbag57
(g78
g59
NtRp4005
(dp4006
g62
(dp4007
sg71
g3992
sg64
(lp4008
g57
(g58
g59
NtRp4009
(dp4010
g62
(dp4011
g70
I4
ssg71
g4005
sg64
(lp4012
g100
asbasbasbag57
(g73
g59
NtRp4013
(dp4014
g62
(dp4015
sg71
g3922
sg64
(lp4016
g57
(g78
g59
NtRp4017
(dp4018
g62
(dp4019
g82
g83
ssg71
g4013
sg64
(lp4020
S'user'
p4021
asbag57
(g78
g59
NtRp4022
(dp4023
g62
(dp4024
g89
g90
ssg71
g4013
sg64
(lp4025
S':'
asbag57
(g78
g59
NtRp4026
(dp4027
g62
(dp4028
sg71
g4013
sg64
(lp4029
g57
(g58
g59
NtRp4030
(dp4031
g62
(dp4032
g70
I4
ssg71
g4026
sg64
(lp4033
g57
(g66
g59
NtRp4034
(dp4035
g62
(dp4036
g70
I3
ssg71
Nsg64
(lp4037
g57
(g73
g59
NtRp4038
(dp4039
g62
(dp4040
sg71
g4034
sg64
(lp4041
g57
(g78
g59
NtRp4042
(dp4043
g62
(dp4044
g82
g83
ssg71
g4038
sg64
(lp4045
S'email'
p4046
asbag57
(g78
g59
NtRp4047
(dp4048
g62
(dp4049
g89
g90
ssg71
g4038
sg64
(lp4050
S':'
asbag57
(g78
g59
NtRp4051
(dp4052
g62
(dp4053
sg71
g4038
sg64
(lp4054
g57
(g58
g59
NtRp4055
(dp4056
g62
(dp4057
g70
I3
ssg71
g4051
sg64
(lp4058
S'rahul@gmail.com'
p4059
asbasbasbag57
(g73
g59
NtRp4060
(dp4061
g62
(dp4062
sg71
g4034
sg64
(lp4063
g57
(g78
g59
NtRp4064
(dp4065
g62
(dp4066
g82
g83
ssg71
g4060
sg64
(lp4067
S'first_name'
p4068
asbag57
(g78
g59
NtRp4069
(dp4070
g62
(dp4071
g89
g90
ssg71
g4060
sg64
(lp4072
S':'
asbag57
(g78
g59
NtRp4073
(dp4074
g62
(dp4075
sg71
g4060
sg64
(lp4076
g57
(g58
g59
NtRp4077
(dp4078
g62
(dp4079
g70
I3
ssg71
g4073
sg64
(lp4080
S'Rahul'
p4081
asbasbasbag57
(g73
g59
NtRp4082
(dp4083
g62
(dp4084
sg71
g4034
sg64
(lp4085
g57
(g78
g59
NtRp4086
(dp4087
g62
(dp4088
g82
g83
ssg71
g4082
sg64
(lp4089
S'id'
p4090
asbag57
(g78
g59
NtRp4091
(dp4092
g62
(dp4093
g89
g90
ssg71
g4082
sg64
(lp4094
S':'
asbag57
(g78
g59
NtRp4095
(dp4096
g62
(dp4097
sg71
g4082
sg64
(lp4098
g57
(g58
g59
NtRp4099
(dp4100
g62
(dp4101
g70
I3
ssg71
g4095
sg64
(lp4102
S'5'
asbasbasbag57
(g73
g59
NtRp4103
(dp4104
g62
(dp4105
sg71
g4034
sg64
(lp4106
g57
(g78
g59
NtRp4107
(dp4108
g62
(dp4109
g82
g83
ssg71
g4103
sg64
(lp4110
S'last_name'
p4111
asbag57
(g78
g59
NtRp4112
(dp4113
g62
(dp4114
g89
g90
ssg71
g4103
sg64
(lp4115
S':'
asbag57
(g78
g59
NtRp4116
(dp4117
g62
(dp4118
sg71
g4103
sg64
(lp4119
g57
(g58
g59
NtRp4120
(dp4121
g62
(dp4122
g70
I3
ssg71
g4116
sg64
(lp4123
S'Sharma'
p4124
asbasbasbag57
(g73
g59
NtRp4125
(dp4126
g62
(dp4127
sg71
g4034
sg64
(lp4128
g57
(g78
g59
NtRp4129
(dp4130
g62
(dp4131
g82
g83
ssg71
g4125
sg64
(lp4132
S'registration_id'
p4133
asbag57
(g78
g59
NtRp4134
(dp4135
g62
(dp4136
g89
g90
ssg71
g4125
sg64
(lp4137
S':'
asbag57
(g78
g59
NtRp4138
(dp4139
g62
(dp4140
sg71
g4125
sg64
(lp4141
g57
(g58
g59
NtRp4142
(dp4143
g62
(dp4144
g70
I3
ssg71
g4138
sg64
(lp4145
S''
asbasbasbag57
(g73
g59
NtRp4146
(dp4147
g62
(dp4148
sg71
g4034
sg64
(lp4149
g57
(g78
g59
NtRp4150
(dp4151
g62
(dp4152
g82
g83
ssg71
g4146
sg64
(lp4153
S'registration_key'
p4154
asbag57
(g78
g59
NtRp4155
(dp4156
g62
(dp4157
g89
g90
ssg71
g4146
sg64
(lp4158
S':'
asbag57
(g78
g59
NtRp4159
(dp4160
g62
(dp4161
sg71
g4146
sg64
(lp4162
g57
(g58
g59
NtRp4163
(dp4164
g62
(dp4165
g70
I3
ssg71
g4159
sg64
(lp4166
S''
asbasbasbag57
(g73
g59
NtRp4167
(dp4168
g62
(dp4169
sg71
g4034
sg64
(lp4170
g57
(g78
g59
NtRp4171
(dp4172
g62
(dp4173
g82
g83
ssg71
g4167
sg64
(lp4174
S'reset_password_key'
p4175
asbag57
(g78
g59
NtRp4176
(dp4177
g62
(dp4178
g89
g90
ssg71
g4167
sg64
(lp4179
S':'
asbag57
(g78
g59
NtRp4180
(dp4181
g62
(dp4182
sg71
g4167
sg64
(lp4183
g57
(g58
g59
NtRp4184
(dp4185
g62
(dp4186
g70
I3
ssg71
g4180
sg64
(lp4187
S''
asbasbasbag57
(g73
g59
NtRp4188
(dp4189
g62
(dp4190
sg71
g4034
sg64
(lp4191
g57
(g78
g59
NtRp4192
(dp4193
g62
(dp4194
g82
g83
ssg71
g4188
sg64
(lp4195
S'username'
p4196
asbag57
(g78
g59
NtRp4197
(dp4198
g62
(dp4199
g89
g90
ssg71
g4188
sg64
(lp4200
S':'
asbag57
(g78
g59
NtRp4201
(dp4202
g62
(dp4203
sg71
g4188
sg64
(lp4204
g57
(g58
g59
NtRp4205
(dp4206
g62
(dp4207
g70
I3
ssg71
g4201
sg64
(lp4208
S'321567890'
p4209
asbasbasbasbasbasbasbag57
(g73
g59
NtRp4210
(dp4211
g62
(dp4212
sg71
g3922
sg64
(lp4213
g57
(g78
g59
NtRp4214
(dp4215
g62
(dp4216
g82
g83
ssg71
g4210
sg64
(lp4217
S'user_groups'
p4218
asbag57
(g78
g59
NtRp4219
(dp4220
g62
(dp4221
g89
g90
ssg71
g4210
sg64
(lp4222
S':'
asbag57
(g78
g59
NtRp4223
(dp4224
g62
(dp4225
sg71
g4210
sg64
(lp4226
g57
(g58
g59
NtRp4227
(dp4228
g62
(dp4229
g70
I4
ssg71
g4223
sg64
(lp4230
g57
(g66
g59
NtRp4231
(dp4232
g62
(dp4233
g70
I3
ssg71
Nsg64
(lp4234
g57
(g73
g59
NtRp4235
(dp4236
g62
(dp4237
sg71
g4231
sg64
(lp4238
g57
(g78
g59
NtRp4239
(dp4240
g62
(dp4241
g82
g83
ssg71
g4235
sg64
(lp4242
S'2'
asbag57
(g78
g59
NtRp4243
(dp4244
g62
(dp4245
g89
g90
ssg71
g4235
sg64
(lp4246
S':'
asbag57
(g78
g59
NtRp4247
(dp4248
g62
(dp4249
sg71
g4235
sg64
(lp4250
g57
(g58
g59
NtRp4251
(dp4252
g62
(dp4253
g70
I3
ssg71
g4247
sg64
(lp4254
S'ghmc_admin'
p4255
asbasbasbasbasbasbasbasbasbasbasbag57
(g73
g59
NtRp4256
(dp4257
g62
(dp4258
sg71
g3897
sg64
(lp4259
g57
(g78
g59
NtRp4260
(dp4261
g62
(dp4262
g82
g83
ssg71
g4256
sg64
(lp4263
S'flash'
p4264
asbag57
(g78
g59
NtRp4265
(dp4266
g62
(dp4267
g89
g90
ssg71
g4256
sg64
(lp4268
S':'
asbag57
(g78
g59
NtRp4269
(dp4270
g62
(dp4271
sg71
g4256
sg64
(lp4272
g57
(g58
g59
NtRp4273
(dp4274
g62
(dp4275
g70
I5
ssg71
g4269
sg64
(lp4276
S'None'
p4277
asbasbasbag57
(g73
g59
NtRp4278
(dp4279
g62
(dp4280
sg71
g3897
sg64
(lp4281
g57
(g78
g59
NtRp4282
(dp4283
g62
(dp4284
g82
g83
ssg71
g4278
sg64
(lp4285
S'last_orderby'
p4286
asbag57
(g78
g59
NtRp4287
(dp4288
g62
(dp4289
g89
g90
ssg71
g4278
sg64
(lp4290
S':'
asbag57
(g78
g59
NtRp4291
(dp4292
g62
(dp4293
sg71
g4278
sg64
(lp4294
g57
(g58
g59
NtRp4295
(dp4296
g62
(dp4297
g70
I5
ssg71
g4291
sg64
(lp4298
S'None'
p4299
asbasbasbag57
(g73
g59
NtRp4300
(dp4301
g62
(dp4302
sg71
g3897
sg64
(lp4303
g57
(g78
g59
NtRp4304
(dp4305
g62
(dp4306
g82
g83
ssg71
g4300
sg64
(lp4307
S'last_query'
p4308
asbag57
(g78
g59
NtRp4309
(dp4310
g62
(dp4311
g89
g90
ssg71
g4300
sg64
(lp4312
S':'
asbag57
(g78
g59
NtRp4313
(dp4314
g62
(dp4315
sg71
g4300
sg64
(lp4316
g57
(g58
g59
NtRp4317
(dp4318
g62
(dp4319
g70
I5
ssg71
g4313
sg64
(lp4320
S'db.gmc_det.id>0'
p4321
asbasbasbag57
(g73
g59
NtRp4322
(dp4323
g62
(dp4324
sg71
g3897
sg64
(lp4325
g57
(g78
g59
NtRp4326
(dp4327
g62
(dp4328
g82
g83
ssg71
g4322
sg64
(lp4329
S'user_id'
p4330
asbag57
(g78
g59
NtRp4331
(dp4332
g62
(dp4333
g89
g90
ssg71
g4322
sg64
(lp4334
S':'
asbag57
(g78
g59
NtRp4335
(dp4336
g62
(dp4337
sg71
g4322
sg64
(lp4338
g57
(g58
g59
NtRp4339
(dp4340
g62
(dp4341
g70
I5
ssg71
g4335
sg64
(lp4342
S'5'
asbasbasbag57
(g73
g59
NtRp4343
(dp4344
g62
(dp4345
sg71
g3897
sg64
(lp4346
g57
(g78
g59
NtRp4347
(dp4348
g62
(dp4349
g82
g83
ssg71
g4343
sg64
(lp4350
S'user_name'
p4351
asbag57
(g78
g59
NtRp4352
(dp4353
g62
(dp4354
g89
g90
ssg71
g4343
sg64
(lp4355
S':'
asbag57
(g78
g59
NtRp4356
(dp4357
g62
(dp4358
sg71
g4343
sg64
(lp4359
g57
(g58
g59
NtRp4360
(dp4361
g62
(dp4362
g70
I5
ssg71
g4356
sg64
(lp4363
g4081
asbasbasbasbasbsS'etype'
p4364
S"<type 'exceptions.AttributeError'>"
p4365
sS'date'
p4366
S'Sun Sep 28 13:11:00 2014'
p4367
sS'response'
p4368
g57
(g58
g59
NtRp4369
(dp4370
g62
(dp4371
sg64
(lp4372
g57
(g66
g59
NtRp4373
(dp4374
g62
(dp4375
g70
I5
ssg71
Nsg64
(lp4376
g57
(g73
g59
NtRp4377
(dp4378
g62
(dp4379
sg71
g4373
sg64
(lp4380
g57
(g78
g59
NtRp4381
(dp4382
g62
(dp4383
g82
g83
ssg71
g4377
sg64
(lp4384
g155
asbag57
(g78
g59
NtRp4385
(dp4386
g62
(dp4387
g89
g90
ssg71
g4377
sg64
(lp4388
S':'
asbag57
(g78
g59
NtRp4389
(dp4390
g62
(dp4391
sg71
g4377
sg64
(lp4392
g57
(g58
g59
NtRp4393
(dp4394
g62
(dp4395
g70
I5
ssg71
g4389
sg64
(lp4396
S'<cStringIO.StringO object at 0x7f928929e688>'
p4397
asbasbasbag57
(g73
g59
NtRp4398
(dp4399
g62
(dp4400
sg71
g4373
sg64
(lp4401
g57
(g78
g59
NtRp4402
(dp4403
g62
(dp4404
g82
g83
ssg71
g4398
sg64
(lp4405
g243
asbag57
(g78
g59
NtRp4406
(dp4407
g62
(dp4408
g89
g90
ssg71
g4398
sg64
(lp4409
S':'
asbag57
(g78
g59
NtRp4410
(dp4411
g62
(dp4412
sg71
g4398
sg64
(lp4413
g57
(g58
g59
NtRp4414
(dp4415
g62
(dp4416
g70
I5
ssg71
g4410
sg64
(lp4417
g57
(g66
g59
NtRp4418
(dp4419
g62
(dp4420
g70
I4
ssg71
Nsg64
(lp4421
g57
(g73
g59
NtRp4422
(dp4423
g62
(dp4424
sg71
g4418
sg64
(lp4425
g57
(g78
g59
NtRp4426
(dp4427
g62
(dp4428
g82
g83
ssg71
g4422
sg64
(lp4429
S'session_id_garbage_truck'
p4430
asbag57
(g78
g59
NtRp4431
(dp4432
g62
(dp4433
g89
g90
ssg71
g4422
sg64
(lp4434
S':'
asbag57
(g78
g59
NtRp4435
(dp4436
g62
(dp4437
sg71
g4422
sg64
(lp4438
g57
(g58
g59
NtRp4439
(dp4440
g62
(dp4441
g70
I4
ssg71
g4435
sg64
(lp4442
g661
ag57
(g66
g59
NtRp4443
(dp4444
g62
(dp4445
g70
I3
ssg71
Nsg64
(lp4446
g57
(g73
g59
NtRp4447
(dp4448
g62
(dp4449
sg71
g4443
sg64
(lp4450
g57
(g78
g59
NtRp4451
(dp4452
g62
(dp4453
g82
g83
ssg71
g4447
sg64
(lp4454
g294
asbag57
(g78
g59
NtRp4455
(dp4456
g62
(dp4457
g89
g90
ssg71
g4447
sg64
(lp4458
S':'
asbag57
(g78
g59
NtRp4459
(dp4460
g62
(dp4461
sg71
g4447
sg64
(lp4462
g57
(g58
g59
NtRp4463
(dp4464
g62
(dp4465
g70
I3
ssg71
g4459
sg64
(lp4466
S''
asbasbasbag57
(g73
g59
NtRp4467
(dp4468
g62
(dp4469
sg71
g4443
sg64
(lp4470
g57
(g78
g59
NtRp4471
(dp4472
g62
(dp4473
g82
g83
ssg71
g4467
sg64
(lp4474
g315
asbag57
(g78
g59
NtRp4475
(dp4476
g62
(dp4477
g89
g90
ssg71
g4467
sg64
(lp4478
S':'
asbag57
(g78
g59
NtRp4479
(dp4480
g62
(dp4481
sg71
g4467
sg64
(lp4482
g57
(g58
g59
NtRp4483
(dp4484
g62
(dp4485
g70
I3
ssg71
g4479
sg64
(lp4486
S''
asbasbasbag57
(g73
g59
NtRp4487
(dp4488
g62
(dp4489
sg71
g4443
sg64
(lp4490
g57
(g78
g59
NtRp4491
(dp4492
g62
(dp4493
g82
g83
ssg71
g4487
sg64
(lp4494
g336
asbag57
(g78
g59
NtRp4495
(dp4496
g62
(dp4497
g89
g90
ssg71
g4487
sg64
(lp4498
S':'
asbag57
(g78
g59
NtRp4499
(dp4500
g62
(dp4501
sg71
g4487
sg64
(lp4502
g57
(g58
g59
NtRp4503
(dp4504
g62
(dp4505
g70
I3
ssg71
g4499
sg64
(lp4506
S''
asbasbasbag57
(g73
g59
NtRp4507
(dp4508
g62
(dp4509
sg71
g4443
sg64
(lp4510
g57
(g78
g59
NtRp4511
(dp4512
g62
(dp4513
g82
g83
ssg71
g4507
sg64
(lp4514
g357
asbag57
(g78
g59
NtRp4515
(dp4516
g62
(dp4517
g89
g90
ssg71
g4507
sg64
(lp4518
S':'
asbag57
(g78
g59
NtRp4519
(dp4520
g62
(dp4521
sg71
g4507
sg64
(lp4522
g57
(g58
g59
NtRp4523
(dp4524
g62
(dp4525
g70
I3
ssg71
g4519
sg64
(lp4526
S''
asbasbasbag57
(g73
g59
NtRp4527
(dp4528
g62
(dp4529
sg71
g4443
sg64
(lp4530
g57
(g78
g59
NtRp4531
(dp4532
g62
(dp4533
g82
g83
ssg71
g4527
sg64
(lp4534
g378
asbag57
(g78
g59
NtRp4535
(dp4536
g62
(dp4537
g89
g90
ssg71
g4527
sg64
(lp4538
S':'
asbag57
(g78
g59
NtRp4539
(dp4540
g62
(dp4541
sg71
g4527
sg64
(lp4542
g57
(g58
g59
NtRp4543
(dp4544
g62
(dp4545
g70
I3
ssg71
g4539
sg64
(lp4546
S''
asbasbasbag57
(g73
g59
NtRp4547
(dp4548
g62
(dp4549
sg71
g4443
sg64
(lp4550
g57
(g78
g59
NtRp4551
(dp4552
g62
(dp4553
g82
g83
ssg71
g4547
sg64
(lp4554
g399
asbag57
(g78
g59
NtRp4555
(dp4556
g62
(dp4557
g89
g90
ssg71
g4547
sg64
(lp4558
S':'
asbag57
(g78
g59
NtRp4559
(dp4560
g62
(dp4561
sg71
g4547
sg64
(lp4562
g57
(g58
g59
NtRp4563
(dp4564
g62
(dp4565
g70
I3
ssg71
g4559
sg64
(lp4566
S'/'
asbasbasbag57
(g73
g59
NtRp4567
(dp4568
g62
(dp4569
sg71
g4443
sg64
(lp4570
g57
(g78
g59
NtRp4571
(dp4572
g62
(dp4573
g82
g83
ssg71
g4567
sg64
(lp4574
g420
asbag57
(g78
g59
NtRp4575
(dp4576
g62
(dp4577
g89
g90
ssg71
g4567
sg64
(lp4578
S':'
asbag57
(g78
g59
NtRp4579
(dp4580
g62
(dp4581
sg71
g4567
sg64
(lp4582
g57
(g58
g59
NtRp4583
(dp4584
g62
(dp4585
g70
I3
ssg71
g4579
sg64
(lp4586
S''
asbasbasbag57
(g73
g59
NtRp4587
(dp4588
g62
(dp4589
sg71
g4443
sg64
(lp4590
g57
(g78
g59
NtRp4591
(dp4592
g62
(dp4593
g82
g83
ssg71
g4587
sg64
(lp4594
g441
asbag57
(g78
g59
NtRp4595
(dp4596
g62
(dp4597
g89
g90
ssg71
g4587
sg64
(lp4598
S':'
asbag57
(g78
g59
NtRp4599
(dp4600
g62
(dp4601
sg71
g4587
sg64
(lp4602
g57
(g58
g59
NtRp4603
(dp4604
g62
(dp4605
g70
I3
ssg71
g4599
sg64
(lp4606
S''
asbasbasbasbasbasbasbasbasbasbasbag57
(g73
g59
NtRp4607
(dp4608
g62
(dp4609
sg71
g4373
sg64
(lp4610
g57
(g78
g59
NtRp4611
(dp4612
g62
(dp4613
g82
g83
ssg71
g4607
sg64
(lp4614
S'delimiters'
p4615
asbag57
(g78
g59
NtRp4616
(dp4617
g62
(dp4618
g89
g90
ssg71
g4607
sg64
(lp4619
S':'
asbag57
(g78
g59
NtRp4620
(dp4621
g62
(dp4622
sg71
g4607
sg64
(lp4623
g57
(g58
g59
NtRp4624
(dp4625
g62
(dp4626
g70
I5
ssg71
g4620
sg64
(lp4627
g57
(g66
g59
NtRp4628
(dp4629
g62
(dp4630
g70
I4
ssg71
Nsg64
(lp4631
g57
(g73
g59
NtRp4632
(dp4633
g62
(dp4634
sg71
g4628
sg64
(lp4635
g57
(g78
g59
NtRp4636
(dp4637
g62
(dp4638
sg71
g4632
sg64
(lp4639
g57
(g58
g59
NtRp4640
(dp4641
g62
(dp4642
g70
I4
ssg71
g4636
sg64
(lp4643
S'{{'
p4644
asbasbasbag57
(g73
g59
NtRp4645
(dp4646
g62
(dp4647
sg71
g4628
sg64
(lp4648
g57
(g78
g59
NtRp4649
(dp4650
g62
(dp4651
sg71
g4645
sg64
(lp4652
g57
(g58
g59
NtRp4653
(dp4654
g62
(dp4655
g70
I4
ssg71
g4649
sg64
(lp4656
S'}}'
p4657
asbasbasbasbasbasbasbag57
(g73
g59
NtRp4658
(dp4659
g62
(dp4660
sg71
g4373
sg64
(lp4661
g57
(g78
g59
NtRp4662
(dp4663
g62
(dp4664
g82
g83
ssg71
g4658
sg64
(lp4665
S'files'
p4666
asbag57
(g78
g59
NtRp4667
(dp4668
g62
(dp4669
g89
g90
ssg71
g4658
sg64
(lp4670
S':'
asbag57
(g78
g59
NtRp4671
(dp4672
g62
(dp4673
sg71
g4658
sg64
(lp4674
g57
(g58
g59
NtRp4675
(dp4676
g62
(dp4677
g70
I5
ssg71
g4671
sg64
(lp4678
g57
(g66
g59
NtRp4679
(dp4680
g62
(dp4681
g70
I4
ssg71
Nsg64
(lp4682
g57
(g73
g59
NtRp4683
(dp4684
g62
(dp4685
sg71
g4679
sg64
(lp4686
g57
(g78
g59
NtRp4687
(dp4688
g62
(dp4689
sg71
g4683
sg64
(lp4690
g57
(g58
g59
NtRp4691
(dp4692
g62
(dp4693
g70
I4
ssg71
g4687
sg64
(lp4694
S'/Garbage_Truck/static/js/jquery.js'
p4695
asbasbasbag57
(g73
g59
NtRp4696
(dp4697
g62
(dp4698
sg71
g4679
sg64
(lp4699
g57
(g78
g59
NtRp4700
(dp4701
g62
(dp4702
sg71
g4696
sg64
(lp4703
g57
(g58
g59
NtRp4704
(dp4705
g62
(dp4706
g70
I4
ssg71
g4700
sg64
(lp4707
S'/Garbage_Truck/static/css/calendar.css'
p4708
asbasbasbag57
(g73
g59
NtRp4709
(dp4710
g62
(dp4711
sg71
g4679
sg64
(lp4712
g57
(g78
g59
NtRp4713
(dp4714
g62
(dp4715
sg71
g4709
sg64
(lp4716
g57
(g58
g59
NtRp4717
(dp4718
g62
(dp4719
g70
I4
ssg71
g4713
sg64
(lp4720
S'/Garbage_Truck/static/js/calendar.js'
p4721
asbasbasbag57
(g73
g59
NtRp4722
(dp4723
g62
(dp4724
sg71
g4679
sg64
(lp4725
g57
(g78
g59
NtRp4726
(dp4727
g62
(dp4728
sg71
g4722
sg64
(lp4729
g57
(g58
g59
NtRp4730
(dp4731
g62
(dp4732
g70
I4
ssg71
g4726
sg64
(lp4733
S'/Garbage_Truck/static/js/web2py.js'
p4734
asbasbasbag57
(g73
g59
NtRp4735
(dp4736
g62
(dp4737
sg71
g4679
sg64
(lp4738
g57
(g78
g59
NtRp4739
(dp4740
g62
(dp4741
sg71
g4735
sg64
(lp4742
g57
(g58
g59
NtRp4743
(dp4744
g62
(dp4745
g70
I4
ssg71
g4739
sg64
(lp4746
S'/Garbage_Truck/static/plugin_layouts/layouts/Interlude/default.css'
p4747
asbasbasbag57
(g73
g59
NtRp4748
(dp4749
g62
(dp4750
sg71
g4679
sg64
(lp4751
g57
(g78
g59
NtRp4752
(dp4753
g62
(dp4754
sg71
g4748
sg64
(lp4755
g57
(g58
g59
NtRp4756
(dp4757
g62
(dp4758
g70
I4
ssg71
g4752
sg64
(lp4759
S'/Garbage_Truck/static/plugin_layouts/superfish.js'
p4760
asbasbasbasbasbasbasbag57
(g73
g59
NtRp4761
(dp4762
g62
(dp4763
sg71
g4373
sg64
(lp4764
g57
(g78
g59
NtRp4765
(dp4766
g62
(dp4767
g82
g83
ssg71
g4761
sg64
(lp4768
S'flash'
p4769
asbag57
(g78
g59
NtRp4770
(dp4771
g62
(dp4772
g89
g90
ssg71
g4761
sg64
(lp4773
S':'
asbag57
(g78
g59
NtRp4774
(dp4775
g62
(dp4776
sg71
g4761
sg64
(lp4777
g57
(g58
g59
NtRp4778
(dp4779
g62
(dp4780
g70
I5
ssg71
g4774
sg64
(lp4781
S''
asbasbasbag57
(g73
g59
NtRp4782
(dp4783
g62
(dp4784
sg71
g4373
sg64
(lp4785
g57
(g78
g59
NtRp4786
(dp4787
g62
(dp4788
g82
g83
ssg71
g4782
sg64
(lp4789
S'generic_patterns'
p4790
asbag57
(g78
g59
NtRp4791
(dp4792
g62
(dp4793
g89
g90
ssg71
g4782
sg64
(lp4794
S':'
asbag57
(g78
g59
NtRp4795
(dp4796
g62
(dp4797
sg71
g4782
sg64
(lp4798
g57
(g58
g59
NtRp4799
(dp4800
g62
(dp4801
g70
I5
ssg71
g4795
sg64
(lp4802
g57
(g66
g59
NtRp4803
(dp4804
g62
(dp4805
g70
I4
ssg71
Nsg64
(lp4806
g57
(g73
g59
NtRp4807
(dp4808
g62
(dp4809
sg71
g4803
sg64
(lp4810
g57
(g78
g59
NtRp4811
(dp4812
g62
(dp4813
sg71
g4807
sg64
(lp4814
g57
(g58
g59
NtRp4815
(dp4816
g62
(dp4817
g70
I4
ssg71
g4811
sg64
(lp4818
S'*'
asbasbasbasbasbasbasbag57
(g73
g59
NtRp4819
(dp4820
g62
(dp4821
sg71
g4373
sg64
(lp4822
g57
(g78
g59
NtRp4823
(dp4824
g62
(dp4825
g82
g83
ssg71
g4819
sg64
(lp4826
S'google_analytics_id'
p4827
asbag57
(g78
g59
NtRp4828
(dp4829
g62
(dp4830
g89
g90
ssg71
g4819
sg64
(lp4831
S':'
asbag57
(g78
g59
NtRp4832
(dp4833
g62
(dp4834
sg71
g4819
sg64
(lp4835
g57
(g58
g59
NtRp4836
(dp4837
g62
(dp4838
g70
I5
ssg71
g4832
sg64
(lp4839
S'None'
p4840
asbasbasbag57
(g73
g59
NtRp4841
(dp4842
g62
(dp4843
sg71
g4373
sg64
(lp4844
g57
(g78
g59
NtRp4845
(dp4846
g62
(dp4847
g82
g83
ssg71
g4841
sg64
(lp4848
S'headers'
p4849
asbag57
(g78
g59
NtRp4850
(dp4851
g62
(dp4852
g89
g90
ssg71
g4841
sg64
(lp4853
S':'
asbag57
(g78
g59
NtRp4854
(dp4855
g62
(dp4856
sg71
g4841
sg64
(lp4857
g57
(g58
g59
NtRp4858
(dp4859
g62
(dp4860
g70
I5
ssg71
g4854
sg64
(lp4861
g57
(g66
g59
NtRp4862
(dp4863
g62
(dp4864
g70
I4
ssg71
Nsg64
(lp4865
g57
(g73
g59
NtRp4866
(dp4867
g62
(dp4868
sg71
g4862
sg64
(lp4869
g57
(g78
g59
NtRp4870
(dp4871
g62
(dp4872
g82
g83
ssg71
g4866
sg64
(lp4873
S'X-Powered-By'
p4874
asbag57
(g78
g59
NtRp4875
(dp4876
g62
(dp4877
g89
g90
ssg71
g4866
sg64
(lp4878
S':'
asbag57
(g78
g59
NtRp4879
(dp4880
g62
(dp4881
sg71
g4866
sg64
(lp4882
g57
(g58
g59
NtRp4883
(dp4884
g62
(dp4885
g70
I4
ssg71
g4879
sg64
(lp4886
S'web2py'
p4887
asbasbasbasbasbasbasbag57
(g73
g59
NtRp4888
(dp4889
g62
(dp4890
sg71
g4373
sg64
(lp4891
g57
(g78
g59
NtRp4892
(dp4893
g62
(dp4894
g82
g83
ssg71
g4888
sg64
(lp4895
S'logo'
p4896
asbag57
(g78
g59
NtRp4897
(dp4898
g62
(dp4899
g89
g90
ssg71
g4888
sg64
(lp4900
S':'
asbag57
(g78
g59
NtRp4901
(dp4902
g62
(dp4903
sg71
g4888
sg64
(lp4904
g57
(g58
g59
NtRp4905
(dp4906
g62
(dp4907
g70
I5
ssg71
g4901
sg64
(lp4908
g57
(cgluon.html
A
p4909
g59
NtRp4910
(dp4911
g62
(dp4912
S'_class'
p4913
S'brand'
p4914
sS'_href'
p4915
S'http://www.web2py.com/'
p4916
ssg71
Nsg64
(lp4917
g57
(cgluon.html
B
p4918
g59
NtRp4919
(dp4920
g62
(dp4921
sg71
g4910
sg64
(lp4922
S'web'
p4923
ag57
(cgluon.html
SPAN
p4924
g59
NtRp4925
(dp4926
g62
(dp4927
sg71
g4919
sg64
(lp4928
I2
asbaS'py'
p4929
asbacgluon.html
XML_unpickle
p4930
(S's\r\x00\x00\x00&trade;&nbsp;'
tRp4931
asbasbasbasbag57
(g73
g59
NtRp4932
(dp4933
g62
(dp4934
sg71
g4373
sg64
(lp4935
g57
(g78
g59
NtRp4936
(dp4937
g62
(dp4938
g82
g83
ssg71
g4932
sg64
(lp4939
S'menu'
p4940
asbag57
(g78
g59
NtRp4941
(dp4942
g62
(dp4943
g89
g90
ssg71
g4932
sg64
(lp4944
S':'
asbag57
(g78
g59
NtRp4945
(dp4946
g62
(dp4947
sg71
g4932
sg64
(lp4948
g57
(g58
g59
NtRp4949
(dp4950
g62
(dp4951
g70
I5
ssg71
g4945
sg64
(lp4952
g57
(g66
g59
NtRp4953
(dp4954
g62
(dp4955
g70
I4
ssg71
Nsg64
(lp4956
g57
(g73
g59
NtRp4957
(dp4958
g62
(dp4959
sg71
g4953
sg64
(lp4960
g57
(g78
g59
NtRp4961
(dp4962
g62
(dp4963
sg71
g4957
sg64
(lp4964
g57
(g58
g59
NtRp4965
(dp4966
g62
(dp4967
g70
I4
ssg71
g4961
sg64
(lp4968
g57
(g66
g59
NtRp4969
(dp4970
g62
(dp4971
g70
I3
ssg71
Nsg64
(lp4972
g57
(g73
g59
NtRp4973
(dp4974
g62
(dp4975
sg71
g4969
sg64
(lp4976
g57
(g78
g59
NtRp4977
(dp4978
g62
(dp4979
sg71
g4973
sg64
(lp4980
g57
(g58
g59
NtRp4981
(dp4982
g62
(dp4983
g70
I3
ssg71
g4977
sg64
(lp4984
cgluon.languages
lazyT_unpickle
p4985
(S's\x04\x00\x00\x00Home'
tRp4986
asbasbasbag57
(g73
g59
NtRp4987
(dp4988
g62
(dp4989
sg71
g4969
sg64
(lp4990
g57
(g78
g59
NtRp4991
(dp4992
g62
(dp4993
sg71
g4987
sg64
(lp4994
g57
(g58
g59
NtRp4995
(dp4996
g62
(dp4997
g70
I3
ssg71
g4991
sg64
(lp4998
g100
asbasbasbag57
(g73
g59
NtRp4999
(dp5000
g62
(dp5001
sg71
g4969
sg64
(lp5002
g57
(g78
g59
NtRp5003
(dp5004
g62
(dp5005
sg71
g4999
sg64
(lp5006
g57
(g58
g59
NtRp5007
(dp5008
g62
(dp5009
g70
I3
ssg71
g5003
sg64
(lp5010
S'/Garbage_Truck/default/index'
p5011
asbasbasbag57
(g73
g59
NtRp5012
(dp5013
g62
(dp5014
sg71
g4969
sg64
(lp5015
g57
(g78
g59
NtRp5016
(dp5017
g62
(dp5018
sg71
g5012
sg64
(lp5019
g57
(g58
g59
NtRp5020
(dp5021
g62
(dp5022
g70
I3
ssg71
g5016
sg64
(lp5023
g57
(g66
g59
NtRp5024
(dp5025
g62
(dp5026
g70
I2
ssg71
Nsg64
(lp5027
sbasbasbasbasbasbasbasbag57
(g73
g59
NtRp5028
(dp5029
g62
(dp5030
sg71
g4953
sg64
(lp5031
g57
(g78
g59
NtRp5032
(dp5033
g62
(dp5034
sg71
g5028
sg64
(lp5035
g57
(g58
g59
NtRp5036
(dp5037
g62
(dp5038
g70
I4
ssg71
g5032
sg64
(lp5039
g57
(g66
g59
NtRp5040
(dp5041
g62
(dp5042
g70
I3
ssg71
Nsg64
(lp5043
g57
(g73
g59
NtRp5044
(dp5045
g62
(dp5046
sg71
g5040
sg64
(lp5047
g57
(g78
g59
NtRp5048
(dp5049
g62
(dp5050
sg71
g5044
sg64
(lp5051
g57
(g58
g59
NtRp5052
(dp5053
g62
(dp5054
g70
I3
ssg71
g5048
sg64
(lp5055
g57
(g4924
g59
NtRp5056
(dp5057
g62
(dp5058
g4913
S'highlighted'
p5059
ssg71
g57
(g4909
g59
NtRp5060
(dp5061
g62
(dp5062
g4915
S'http://web2py.com'
p5063
ssg71
g57
(cgluon.html
LI
p5064
g59
NtRp5065
(dp5066
g62
(dp5067
g4913
S'web2py-menu-expand'
p5068
ssg71
g57
(cgluon.html
UL
p5069
g59
NtRp5070
(dp5071
g62
(dp5072
S'mobile'
p5073
I00
sS'ul_class'
p5074
S'web2py-menu-vertical'
p5075
sS'li_active'
p5076
S'web2py-menu-active'
p5077
sS'li_class'
p5078
g5068
sS'li_first'
p5079
S'web2py-menu-first'
p5080
sg4913
S'web2py-menu'
p5081
sS'li_last'
p5082
S'web2py-menu-last'
p5083
ssg71
Nsg64
(lp5084
g57
(g5064
g59
NtRp5085
(dp5086
g62
(dp5087
g4913
g5080
ssg71
g5070
sg64
(lp5088
g57
(g4909
g59
NtRp5089
(dp5090
g62
(dp5091
g4915
g5011
ssg71
g5085
sg64
(lp5092
g4986
asbasbag5065
asbsg64
(lp5093
g5060
ag57
(g5069
g59
NtRp5094
(dp5095
g62
(dp5096
g4913
g5075
ssg71
g5065
sg64
(lp5097
g57
(g5064
g59
NtRp5098
(dp5099
g62
(dp5100
sg71
g5094
sg64
(lp5101
g57
(g4909
g59
NtRp5102
(dp5103
g62
(dp5104
g4915
S'/admin/default/site'
p5105
ssg71
g5098
sg64
(lp5106
g4985
(S's\x08\x00\x00\x00My Sites'
tRp5107
asbasbag57
(g5064
g59
NtRp5108
(dp5109
g62
(dp5110
g4913
g5068
ssg71
g5094
sg64
(lp5111
g57
(g4909
g59
NtRp5112
(dp5113
g62
(dp5114
g4915
S'/admin/default/design/Garbage_Truck'
p5115
ssg71
g5108
sg64
(lp5116
g4985
(S's\x08\x00\x00\x00This App'
tRp5117
asbag57
(g5069
g59
NtRp5118
(dp5119
g62
(dp5120
g4913
g5075
ssg71
g5108
sg64
(lp5121
g57
(g5064
g59
NtRp5122
(dp5123
g62
(dp5124
sg71
g5118
sg64
(lp5125
g57
(g4909
g59
NtRp5126
(dp5127
g62
(dp5128
g4915
S'/admin/default/edit/Garbage_Truck/controllers/default.py'
p5129
ssg71
g5122
sg64
(lp5130
g4985
(S's\n\x00\x00\x00Controller'
tRp5131
asbasbag57
(g5064
g59
NtRp5132
(dp5133
g62
(dp5134
sg71
g5118
sg64
(lp5135
g57
(g4909
g59
NtRp5136
(dp5137
g62
(dp5138
g4915
S'/admin/default/edit/Garbage_Truck/views/default/request_reservior_view.html'
p5139
ssg71
g5132
sg64
(lp5140
g4985
(S's\x04\x00\x00\x00View'
tRp5141
asbasbag57
(g5064
g59
NtRp5142
(dp5143
g62
(dp5144
sg71
g5118
sg64
(lp5145
g57
(g4909
g59
NtRp5146
(dp5147
g62
(dp5148
g4915
S'/admin/default/edit/Garbage_Truck/views/layout.html'
p5149
ssg71
g5142
sg64
(lp5150
g4985
(S's\x06\x00\x00\x00Layout'
tRp5151
asbasbag57
(g5064
g59
NtRp5152
(dp5153
g62
(dp5154
sg71
g5118
sg64
(lp5155
g57
(g4909
g59
NtRp5156
(dp5157
g62
(dp5158
g4915
S'/admin/default/edit/Garbage_Truck/static/css/web2py.css'
p5159
ssg71
g5152
sg64
(lp5160
g4985
(S's\n\x00\x00\x00Stylesheet'
tRp5161
asbasbag57
(g5064
g59
NtRp5162
(dp5163
g62
(dp5164
sg71
g5118
sg64
(lp5165
g57
(g4909
g59
NtRp5166
(dp5167
g62
(dp5168
g4915
S'/admin/default/edit/Garbage_Truck/models/db.py'
p5169
ssg71
g5162
sg64
(lp5170
g4985
(S's\x08\x00\x00\x00DB Model'
tRp5171
asbasbag57
(g5064
g59
NtRp5172
(dp5173
g62
(dp5174
sg71
g5118
sg64
(lp5175
g57
(g4909
g59
NtRp5176
(dp5177
g62
(dp5178
g4915
S'/admin/default/edit/Garbage_Truck/models/menu.py'
p5179
ssg71
g5172
sg64
(lp5180
g4985
(S's\n\x00\x00\x00Menu Model'
tRp5181
asbasbag57
(g5064
g59
NtRp5182
(dp5183
g62
(dp5184
sg71
g5118
sg64
(lp5185
g57
(g4909
g59
NtRp5186
(dp5187
g62
(dp5188
g4915
S'/Garbage_Truck/appadmin/index'
p5189
ssg71
g5182
sg64
(lp5190
g4985
(S's\x08\x00\x00\x00Database'
tRp5191
asbasbag57
(g5064
g59
NtRp5192
(dp5193
g62
(dp5194
sg71
g5118
sg64
(lp5195
g57
(g4909
g59
NtRp5196
(dp5197
g62
(dp5198
g4915
S'/admin/default/errors/Garbage_Truck'
p5199
ssg71
g5192
sg64
(lp5200
g4985
(S's\x06\x00\x00\x00Errors'
tRp5201
asbasbag57
(g5064
g59
NtRp5202
(dp5203
g62
(dp5204
sg71
g5118
sg64
(lp5205
g57
(g4909
g59
NtRp5206
(dp5207
g62
(dp5208
g4915
S'/admin/default/about/Garbage_Truck'
p5209
ssg71
g5202
sg64
(lp5210
g4985
(S's\x05\x00\x00\x00About'
tRp5211
asbasbasbasbag57
(g5064
g59
NtRp5212
(dp5213
g62
(dp5214
g4913
g5068
ssg71
g5094
sg64
(lp5215
g57
(g4909
g59
NtRp5216
(dp5217
g62
(dp5218
g4915
S'http://www.web2py.com'
p5219
ssg71
g5212
sg64
(lp5220
S'web2py.com'
p5221
asbag57
(g5069
g59
NtRp5222
(dp5223
g62
(dp5224
g4913
g5075
ssg71
g5212
sg64
(lp5225
g57
(g5064
g59
NtRp5226
(dp5227
g62
(dp5228
sg71
g5222
sg64
(lp5229
g57
(g4909
g59
NtRp5230
(dp5231
g62
(dp5232
g4915
S'http://www.web2py.com/examples/default/download'
p5233
ssg71
g5226
sg64
(lp5234
g4985
(S's\x08\x00\x00\x00Download'
tRp5235
asbasbag57
(g5064
g59
NtRp5236
(dp5237
g62
(dp5238
sg71
g5222
sg64
(lp5239
g57
(g4909
g59
NtRp5240
(dp5241
g62
(dp5242
g4915
S'http://www.web2py.com/examples/default/support'
p5243
ssg71
g5236
sg64
(lp5244
g4985
(S's\x07\x00\x00\x00Support'
tRp5245
asbasbag57
(g5064
g59
NtRp5246
(dp5247
g62
(dp5248
sg71
g5222
sg64
(lp5249
g57
(g4909
g59
NtRp5250
(dp5251
g62
(dp5252
g4915
S'http://web2py.com/demo_admin'
p5253
ssg71
g5246
sg64
(lp5254
g4985
(S's\x04\x00\x00\x00Demo'
tRp5255
asbasbag57
(g5064
g59
NtRp5256
(dp5257
g62
(dp5258
sg71
g5222
sg64
(lp5259
g57
(g4909
g59
NtRp5260
(dp5261
g62
(dp5262
g4915
S'http://web2py.com/examples/default/examples'
p5263
ssg71
g5256
sg64
(lp5264
g4985
(S's\x0e\x00\x00\x00Quick Examples'
tRp5265
asbasbag57
(g5064
g59
NtRp5266
(dp5267
g62
(dp5268
sg71
g5222
sg64
(lp5269
g57
(g4909
g59
NtRp5270
(dp5271
g62
(dp5272
g4915
S'http://web2py.com/AlterEgo'
p5273
ssg71
g5266
sg64
(lp5274
g4985
(S's\x03\x00\x00\x00FAQ'
tRp5275
asbasbag57
(g5064
g59
NtRp5276
(dp5277
g62
(dp5278
sg71
g5222
sg64
(lp5279
g57
(g4909
g59
NtRp5280
(dp5281
g62
(dp5282
g4915
S'http://www.web2py.com/examples/default/videos/'
p5283
ssg71
g5276
sg64
(lp5284
g4985
(S's\x06\x00\x00\x00Videos'
tRp5285
asbasbag57
(g5064
g59
NtRp5286
(dp5287
g62
(dp5288
sg71
g5222
sg64
(lp5289
g57
(g4909
g59
NtRp5290
(dp5291
g62
(dp5292
g4915
S'http://web2py.com/appliances'
p5293
ssg71
g5286
sg64
(lp5294
g4985
(S's\x11\x00\x00\x00Free Applications'
tRp5295
asbasbag57
(g5064
g59
NtRp5296
(dp5297
g62
(dp5298
sg71
g5222
sg64
(lp5299
g57
(g4909
g59
NtRp5300
(dp5301
g62
(dp5302
g4915
S'http://web2py.com/plugins'
p5303
ssg71
g5296
sg64
(lp5304
g4985
(S's\x07\x00\x00\x00Plugins'
tRp5305
asbasbag57
(g5064
g59
NtRp5306
(dp5307
g62
(dp5308
sg71
g5222
sg64
(lp5309
g57
(g4909
g59
NtRp5310
(dp5311
g62
(dp5312
g4915
S'http://web2py.com/layouts'
p5313
ssg71
g5306
sg64
(lp5314
g4985
(S's\x07\x00\x00\x00Layouts'
tRp5315
asbasbag57
(g5064
g59
NtRp5316
(dp5317
g62
(dp5318
sg71
g5222
sg64
(lp5319
g57
(g4909
g59
NtRp5320
(dp5321
g62
(dp5322
g4915
S'http://web2pyslices.com/'
p5323
ssg71
g5316
sg64
(lp5324
g4985
(S's\x07\x00\x00\x00Recipes'
tRp5325
asbasbag57
(g5064
g59
NtRp5326
(dp5327
g62
(dp5328
sg71
g5222
sg64
(lp5329
g57
(g4909
g59
NtRp5330
(dp5331
g62
(dp5332
g4915
S'http://web2py.com/semantic'
p5333
ssg71
g5326
sg64
(lp5334
g4985
(S's\x08\x00\x00\x00Semantic'
tRp5335
asbasbasbasbag57
(g5064
g59
NtRp5336
(dp5337
g62
(dp5338
g4913
g5068
ssg71
g5094
sg64
(lp5339
g57
(g4909
g59
NtRp5340
(dp5341
g62
(dp5342
g4915
S'http://www.web2py.com/book'
p5343
ssg71
g5336
sg64
(lp5344
g4985
(S's\r\x00\x00\x00Documentation'
tRp5345
asbag57
(g5069
g59
NtRp5346
(dp5347
g62
(dp5348
g4913
g5075
ssg71
g5336
sg64
(lp5349
g57
(g5064
g59
NtRp5350
(dp5351
g62
(dp5352
sg71
g5346
sg64
(lp5353
g57
(g4909
g59
NtRp5354
(dp5355
g62
(dp5356
g4915
S'http://www.web2py.com/book/default/chapter/00'
p5357
ssg71
g5350
sg64
(lp5358
g4985
(S's\x07\x00\x00\x00Preface'
tRp5359
asbasbag57
(g5064
g59
NtRp5360
(dp5361
g62
(dp5362
sg71
g5346
sg64
(lp5363
g57
(g4909
g59
NtRp5364
(dp5365
g62
(dp5366
g4915
S'http://www.web2py.com/book/default/chapter/01'
p5367
ssg71
g5360
sg64
(lp5368
g4985
(S's\x0c\x00\x00\x00Introduction'
tRp5369
asbasbag57
(g5064
g59
NtRp5370
(dp5371
g62
(dp5372
sg71
g5346
sg64
(lp5373
g57
(g4909
g59
NtRp5374
(dp5375
g62
(dp5376
g4915
S'http://www.web2py.com/book/default/chapter/02'
p5377
ssg71
g5370
sg64
(lp5378
g4985
(S's\x06\x00\x00\x00Python'
tRp5379
asbasbag57
(g5064
g59
NtRp5380
(dp5381
g62
(dp5382
sg71
g5346
sg64
(lp5383
g57
(g4909
g59
NtRp5384
(dp5385
g62
(dp5386
g4915
S'http://www.web2py.com/book/default/chapter/03'
p5387
ssg71
g5380
sg64
(lp5388
g4985
(S's\x08\x00\x00\x00Overview'
tRp5389
asbasbag57
(g5064
g59
NtRp5390
(dp5391
g62
(dp5392
sg71
g5346
sg64
(lp5393
g57
(g4909
g59
NtRp5394
(dp5395
g62
(dp5396
g4915
S'http://www.web2py.com/book/default/chapter/04'
p5397
ssg71
g5390
sg64
(lp5398
g4985
(S's\x08\x00\x00\x00The Core'
tRp5399
asbasbag57
(g5064
g59
NtRp5400
(dp5401
g62
(dp5402
sg71
g5346
sg64
(lp5403
g57
(g4909
g59
NtRp5404
(dp5405
g62
(dp5406
g4915
S'http://www.web2py.com/book/default/chapter/05'
p5407
ssg71
g5400
sg64
(lp5408
g4985
(S's\t\x00\x00\x00The Views'
tRp5409
asbasbag57
(g5064
g59
NtRp5410
(dp5411
g62
(dp5412
sg71
g5346
sg64
(lp5413
g57
(g4909
g59
NtRp5414
(dp5415
g62
(dp5416
g4915
S'http://www.web2py.com/book/default/chapter/06'
p5417
ssg71
g5410
sg64
(lp5418
g4985
(S's\x08\x00\x00\x00Database'
tRp5419
asbasbag57
(g5064
g59
NtRp5420
(dp5421
g62
(dp5422
sg71
g5346
sg64
(lp5423
g57
(g4909
g59
NtRp5424
(dp5425
g62
(dp5426
g4915
S'http://www.web2py.com/book/default/chapter/07'
p5427
ssg71
g5420
sg64
(lp5428
g4985
(S's\x14\x00\x00\x00Forms and Validators'
tRp5429
asbasbag57
(g5064
g59
NtRp5430
(dp5431
g62
(dp5432
sg71
g5346
sg64
(lp5433
g57
(g4909
g59
NtRp5434
(dp5435
g62
(dp5436
g4915
S'http://www.web2py.com/book/default/chapter/08'
p5437
ssg71
g5430
sg64
(lp5438
g4985
(S's\r\x00\x00\x00Email and SMS'
tRp5439
asbasbag57
(g5064
g59
NtRp5440
(dp5441
g62
(dp5442
sg71
g5346
sg64
(lp5443
g57
(g4909
g59
NtRp5444
(dp5445
g62
(dp5446
g4915
S'http://www.web2py.com/book/default/chapter/09'
p5447
ssg71
g5440
sg64
(lp5448
g4985
(S's\x0e\x00\x00\x00Access Control'
tRp5449
asbasbag57
(g5064
g59
NtRp5450
(dp5451
g62
(dp5452
sg71
g5346
sg64
(lp5453
g57
(g4909
g59
NtRp5454
(dp5455
g62
(dp5456
g4915
S'http://www.web2py.com/book/default/chapter/10'
p5457
ssg71
g5450
sg64
(lp5458
g4985
(S's\x08\x00\x00\x00Services'
tRp5459
asbasbag57
(g5064
g59
NtRp5460
(dp5461
g62
(dp5462
sg71
g5346
sg64
(lp5463
g57
(g4909
g59
NtRp5464
(dp5465
g62
(dp5466
g4915
S'http://www.web2py.com/book/default/chapter/11'
p5467
ssg71
g5460
sg64
(lp5468
g4985
(S's\x0c\x00\x00\x00Ajax Recipes'
tRp5469
asbasbag57
(g5064
g59
NtRp5470
(dp5471
g62
(dp5472
sg71
g5346
sg64
(lp5473
g57
(g4909
g59
NtRp5474
(dp5475
g62
(dp5476
g4915
S'http://www.web2py.com/book/default/chapter/12'
p5477
ssg71
g5470
sg64
(lp5478
g4985
(S's\x16\x00\x00\x00Components and Plugins'
tRp5479
asbasbag57
(g5064
g59
NtRp5480
(dp5481
g62
(dp5482
sg71
g5346
sg64
(lp5483
g57
(g4909
g59
NtRp5484
(dp5485
g62
(dp5486
g4915
S'http://www.web2py.com/book/default/chapter/13'
p5487
ssg71
g5480
sg64
(lp5488
g4985
(S's\x12\x00\x00\x00Deployment Recipes'
tRp5489
asbasbag57
(g5064
g59
NtRp5490
(dp5491
g62
(dp5492
sg71
g5346
sg64
(lp5493
g57
(g4909
g59
NtRp5494
(dp5495
g62
(dp5496
g4915
S'http://www.web2py.com/book/default/chapter/14'
p5497
ssg71
g5490
sg64
(lp5498
g4985
(S's\r\x00\x00\x00Other Recipes'
tRp5499
asbasbag57
(g5064
g59
NtRp5500
(dp5501
g62
(dp5502
sg71
g5346
sg64
(lp5503
g57
(g4909
g59
NtRp5504
(dp5505
g62
(dp5506
g4915
S'http://stores.lulu.com/web2py'
p5507
ssg71
g5500
sg64
(lp5508
g4985
(S's\r\x00\x00\x00Buy this book'
tRp5509
asbasbasbasbag57
(g5064
g59
NtRp5510
(dp5511
g62
(dp5512
g4913
g5068
ssg71
g5094
sg64
(lp5513
g57
(g4909
g59
NtRp5514
(dp5515
g62
(dp5516
S'_onclick'
p5517
S'javascript:void(0);return false;'
p5518
sg4915
S'#'
ssg71
g5510
sg64
(lp5519
g4985
(S's\t\x00\x00\x00Community'
tRp5520
asbag57
(g5069
g59
NtRp5521
(dp5522
g62
(dp5523
g4913
g5075
ssg71
g5510
sg64
(lp5524
g57
(g5064
g59
NtRp5525
(dp5526
g62
(dp5527
sg71
g5521
sg64
(lp5528
g57
(g4909
g59
NtRp5529
(dp5530
g62
(dp5531
g4915
S'http://www.web2py.com/examples/default/usergroups'
p5532
ssg71
g5525
sg64
(lp5533
g4985
(S's\x06\x00\x00\x00Groups'
tRp5534
asbasbag57
(g5064
g59
NtRp5535
(dp5536
g62
(dp5537
sg71
g5521
sg64
(lp5538
g57
(g4909
g59
NtRp5539
(dp5540
g62
(dp5541
g4915
S'http://twitter.com/web2py'
p5542
ssg71
g5535
sg64
(lp5543
g4985
(S's\x07\x00\x00\x00Twitter'
tRp5544
asbasbag57
(g5064
g59
NtRp5545
(dp5546
g62
(dp5547
sg71
g5521
sg64
(lp5548
g57
(g4909
g59
NtRp5549
(dp5550
g62
(dp5551
g4915
S'http://webchat.freenode.net/?channels=web2py'
p5552
ssg71
g5545
sg64
(lp5553
g4985
(S's\t\x00\x00\x00Live Chat'
tRp5554
asbasbasbasbag57
(g5064
g59
NtRp5555
(dp5556
g62
(dp5557
g4913
g5068
ssg71
g5094
sg64
(lp5558
g57
(g4909
g59
NtRp5559
(dp5560
g62
(dp5561
g5517
g5518
sg4915
S'#'
ssg71
g5555
sg64
(lp5562
g4985
(S's\x07\x00\x00\x00Plugins'
tRp5563
asbag57
(g5069
g59
NtRp5564
(dp5565
g62
(dp5566
g4913
g5075
ssg71
g5555
sg64
(lp5567
g57
(g5064
g59
NtRp5568
(dp5569
g62
(dp5570
sg71
g5564
sg64
(lp5571
g57
(g4909
g59
NtRp5572
(dp5573
g62
(dp5574
g4915
S'http://web2py.com/examples/default/download'
p5575
ssg71
g5568
sg64
(lp5576
S'plugin_wiki'
p5577
asbasbag57
(g5064
g59
NtRp5578
(dp5579
g62
(dp5580
sg71
g5564
sg64
(lp5581
g57
(g4909
g59
NtRp5582
(dp5583
g62
(dp5584
g4915
g5303
ssg71
g5578
sg64
(lp5585
g4985
(S's\r\x00\x00\x00Other Plugins'
tRp5586
asbasbag57
(g5064
g59
NtRp5587
(dp5588
g62
(dp5589
sg71
g5564
sg64
(lp5590
g57
(g4909
g59
NtRp5591
(dp5592
g62
(dp5593
g4915
g5313
ssg71
g5587
sg64
(lp5594
g4985
(S's\x0e\x00\x00\x00Layout Plugins'
tRp5595
asbasbasbasbasbasbsg64
(lp5596
g5056
asbsg64
(lp5597
g4887
asbasbasbasbag57
(g73
g59
NtRp5598
(dp5599
g62
(dp5600
sg71
g5040
sg64
(lp5601
g57
(g78
g59
NtRp5602
(dp5603
g62
(dp5604
sg71
g5598
sg64
(lp5605
g57
(g58
g59
NtRp5606
(dp5607
g62
(dp5608
g70
I3
ssg71
g5602
sg64
(lp5609
g100
asbasbasbag57
(g73
g59
NtRp5610
(dp5611
g62
(dp5612
sg71
g5040
sg64
(lp5613
g57
(g78
g59
NtRp5614
(dp5615
g62
(dp5616
sg71
g5610
sg64
(lp5617
g57
(g58
g59
NtRp5618
(dp5619
g62
(dp5620
g70
I3
ssg71
g5614
sg64
(lp5621
g5063
asbasbasbag57
(g73
g59
NtRp5622
(dp5623
g62
(dp5624
sg71
g5040
sg64
(lp5625
g57
(g78
g59
NtRp5626
(dp5627
g62
(dp5628
sg71
g5622
sg64
(lp5629
g57
(g58
g59
NtRp5630
(dp5631
g62
(dp5632
g70
I3
ssg71
g5626
sg64
(lp5633
g57
(g66
g59
NtRp5634
(dp5635
g62
(dp5636
g70
I2
ssg71
Nsg64
(lp5637
g57
(g73
g59
NtRp5638
(dp5639
g62
(dp5640
sg71
g5634
sg64
(lp5641
g57
(g78
g59
NtRp5642
(dp5643
g62
(dp5644
sg71
g5638
sg64
(lp5645
g57
(g58
g59
NtRp5646
(dp5647
g62
(dp5648
g70
I2
ssg71
g5642
sg64
(lp5649
g57
(g66
g59
NtRp5650
(dp5651
g62
(dp5652
g70
I1
ssg71
Nsg64
(lp5653
g57
(g73
g59
NtRp5654
(dp5655
g62
(dp5656
sg71
g5650
sg64
(lp5657
g57
(g78
g59
NtRp5658
(dp5659
g62
(dp5660
sg71
g5654
sg64
(lp5661
g57
(g58
g59
NtRp5662
(dp5663
g62
(dp5664
g70
I1
ssg71
g5658
sg64
(lp5665
g5107
asbasbasbag57
(g73
g59
NtRp5666
(dp5667
g62
(dp5668
sg71
g5650
sg64
(lp5669
g57
(g78
g59
NtRp5670
(dp5671
g62
(dp5672
sg71
g5666
sg64
(lp5673
g57
(g58
g59
NtRp5674
(dp5675
g62
(dp5676
g70
I1
ssg71
g5670
sg64
(lp5677
I00
asbasbasbag57
(g73
g59
NtRp5678
(dp5679
g62
(dp5680
sg71
g5650
sg64
(lp5681
g57
(g78
g59
NtRp5682
(dp5683
g62
(dp5684
sg71
g5678
sg64
(lp5685
g57
(g58
g59
NtRp5686
(dp5687
g62
(dp5688
g70
I1
ssg71
g5682
sg64
(lp5689
g5105
asbasbasbasbasbasbasbag57
(g73
g59
NtRp5690
(dp5691
g62
(dp5692
sg71
g5634
sg64
(lp5693
g57
(g78
g59
NtRp5694
(dp5695
g62
(dp5696
sg71
g5690
sg64
(lp5697
g57
(g58
g59
NtRp5698
(dp5699
g62
(dp5700
g70
I2
ssg71
g5694
sg64
(lp5701
g57
(g66
g59
NtRp5702
(dp5703
g62
(dp5704
g70
I1
ssg71
Nsg64
(lp5705
g57
(g73
g59
NtRp5706
(dp5707
g62
(dp5708
sg71
g5702
sg64
(lp5709
g57
(g78
g59
NtRp5710
(dp5711
g62
(dp5712
sg71
g5706
sg64
(lp5713
g57
(g58
g59
NtRp5714
(dp5715
g62
(dp5716
g70
I1
ssg71
g5710
sg64
(lp5717
g5117
asbasbasbag57
(g73
g59
NtRp5718
(dp5719
g62
(dp5720
sg71
g5702
sg64
(lp5721
g57
(g78
g59
NtRp5722
(dp5723
g62
(dp5724
sg71
g5718
sg64
(lp5725
g57
(g58
g59
NtRp5726
(dp5727
g62
(dp5728
g70
I1
ssg71
g5722
sg64
(lp5729
I00
asbasbasbag57
(g73
g59
NtRp5730
(dp5731
g62
(dp5732
sg71
g5702
sg64
(lp5733
g57
(g78
g59
NtRp5734
(dp5735
g62
(dp5736
sg71
g5730
sg64
(lp5737
g57
(g58
g59
NtRp5738
(dp5739
g62
(dp5740
g70
I1
ssg71
g5734
sg64
(lp5741
g5115
asbasbasbag57
(g73
g59
NtRp5742
(dp5743
g62
(dp5744
sg71
g5702
sg64
(lp5745
g57
(g78
g59
NtRp5746
(dp5747
g62
(dp5748
sg71
g5742
sg64
(lp5749
g57
(g58
g59
NtRp5750
(dp5751
g62
(dp5752
g70
I1
ssg71
g5746
sg64
(lp5753
(lp5754
(g5131
I00
g5129
tp5755
a(g5141
I00
g5139
tp5756
a(g5151
I00
g5149
tp5757
a(g5161
I00
g5159
tp5758
a(g5171
I00
g5169
tp5759
a(g5181
I00
g5179
tp5760
a(g5191
I00
g5189
tp5761
a(g5201
I00
g5199
tp5762
a(g5211
I00
g5209
tp5763
aasbasbasbasbasbasbasbag57
(g73
g59
NtRp5764
(dp5765
g62
(dp5766
sg71
g5634
sg64
(lp5767
g57
(g78
g59
NtRp5768
(dp5769
g62
(dp5770
sg71
g5764
sg64
(lp5771
g57
(g58
g59
NtRp5772
(dp5773
g62
(dp5774
g70
I2
ssg71
g5768
sg64
(lp5775
g57
(g66
g59
NtRp5776
(dp5777
g62
(dp5778
g70
I1
ssg71
Nsg64
(lp5779
g57
(g73
g59
NtRp5780
(dp5781
g62
(dp5782
sg71
g5776
sg64
(lp5783
g57
(g78
g59
NtRp5784
(dp5785
g62
(dp5786
sg71
g5780
sg64
(lp5787
g57
(g58
g59
NtRp5788
(dp5789
g62
(dp5790
g70
I1
ssg71
g5784
sg64
(lp5791
g5221
asbasbasbag57
(g73
g59
NtRp5792
(dp5793
g62
(dp5794
sg71
g5776
sg64
(lp5795
g57
(g78
g59
NtRp5796
(dp5797
g62
(dp5798
sg71
g5792
sg64
(lp5799
g57
(g58
g59
NtRp5800
(dp5801
g62
(dp5802
g70
I1
ssg71
g5796
sg64
(lp5803
I00
asbasbasbag57
(g73
g59
NtRp5804
(dp5805
g62
(dp5806
sg71
g5776
sg64
(lp5807
g57
(g78
g59
NtRp5808
(dp5809
g62
(dp5810
sg71
g5804
sg64
(lp5811
g57
(g58
g59
NtRp5812
(dp5813
g62
(dp5814
g70
I1
ssg71
g5808
sg64
(lp5815
g5219
asbasbasbag57
(g73
g59
NtRp5816
(dp5817
g62
(dp5818
sg71
g5776
sg64
(lp5819
g57
(g78
g59
NtRp5820
(dp5821
g62
(dp5822
sg71
g5816
sg64
(lp5823
g57
(g58
g59
NtRp5824
(dp5825
g62
(dp5826
g70
I1
ssg71
g5820
sg64
(lp5827
(lp5828
(g5235
I00
g5233
tp5829
a(g5245
I00
g5243
tp5830
a(g5255
I00
g5253
tp5831
a(g5265
I00
g5263
tp5832
a(g5275
I00
g5273
tp5833
a(g5285
I00
g5283
tp5834
a(g5295
I00
g5293
tp5835
a(g5305
I00
g5303
tp5836
a(g5315
I00
g5313
tp5837
a(g5325
I00
g5323
tp5838
a(g5335
I00
g5333
tp5839
aasbasbasbasbasbasbasbag57
(g73
g59
NtRp5840
(dp5841
g62
(dp5842
sg71
g5634
sg64
(lp5843
g57
(g78
g59
NtRp5844
(dp5845
g62
(dp5846
sg71
g5840
sg64
(lp5847
g57
(g58
g59
NtRp5848
(dp5849
g62
(dp5850
g70
I2
ssg71
g5844
sg64
(lp5851
g57
(g66
g59
NtRp5852
(dp5853
g62
(dp5854
g70
I1
ssg71
Nsg64
(lp5855
g57
(g73
g59
NtRp5856
(dp5857
g62
(dp5858
sg71
g5852
sg64
(lp5859
g57
(g78
g59
NtRp5860
(dp5861
g62
(dp5862
sg71
g5856
sg64
(lp5863
g57
(g58
g59
NtRp5864
(dp5865
g62
(dp5866
g70
I1
ssg71
g5860
sg64
(lp5867
g5345
asbasbasbag57
(g73
g59
NtRp5868
(dp5869
g62
(dp5870
sg71
g5852
sg64
(lp5871
g57
(g78
g59
NtRp5872
(dp5873
g62
(dp5874
sg71
g5868
sg64
(lp5875
g57
(g58
g59
NtRp5876
(dp5877
g62
(dp5878
g70
I1
ssg71
g5872
sg64
(lp5879
I00
asbasbasbag57
(g73
g59
NtRp5880
(dp5881
g62
(dp5882
sg71
g5852
sg64
(lp5883
g57
(g78
g59
NtRp5884
(dp5885
g62
(dp5886
sg71
g5880
sg64
(lp5887
g57
(g58
g59
NtRp5888
(dp5889
g62
(dp5890
g70
I1
ssg71
g5884
sg64
(lp5891
g5343
asbasbasbag57
(g73
g59
NtRp5892
(dp5893
g62
(dp5894
sg71
g5852
sg64
(lp5895
g57
(g78
g59
NtRp5896
(dp5897
g62
(dp5898
sg71
g5892
sg64
(lp5899
g57
(g58
g59
NtRp5900
(dp5901
g62
(dp5902
g70
I1
ssg71
g5896
sg64
(lp5903
(lp5904
(g5359
I00
g5357
tp5905
a(g5369
I00
g5367
tp5906
a(g5379
I00
g5377
tp5907
a(g5389
I00
g5387
tp5908
a(g5399
I00
g5397
tp5909
a(g5409
I00
g5407
tp5910
a(g5419
I00
g5417
tp5911
a(g5429
I00
g5427
tp5912
a(g5439
I00
g5437
tp5913
a(g5449
I00
g5447
tp5914
a(g5459
I00
g5457
tp5915
a(g5469
I00
g5467
tp5916
a(g5479
I00
g5477
tp5917
a(g5489
I00
g5487
tp5918
a(g5499
I00
g5497
tp5919
a(g5509
I00
g5507
tp5920
aasbasbasbasbasbasbasbag57
(g73
g59
NtRp5921
(dp5922
g62
(dp5923
sg71
g5634
sg64
(lp5924
g57
(g78
g59
NtRp5925
(dp5926
g62
(dp5927
sg71
g5921
sg64
(lp5928
g57
(g58
g59
NtRp5929
(dp5930
g62
(dp5931
g70
I2
ssg71
g5925
sg64
(lp5932
g57
(g66
g59
NtRp5933
(dp5934
g62
(dp5935
g70
I1
ssg71
Nsg64
(lp5936
g57
(g73
g59
NtRp5937
(dp5938
g62
(dp5939
sg71
g5933
sg64
(lp5940
g57
(g78
g59
NtRp5941
(dp5942
g62
(dp5943
sg71
g5937
sg64
(lp5944
g57
(g58
g59
NtRp5945
(dp5946
g62
(dp5947
g70
I1
ssg71
g5941
sg64
(lp5948
g5520
asbasbasbag57
(g73
g59
NtRp5949
(dp5950
g62
(dp5951
sg71
g5933
sg64
(lp5952
g57
(g78
g59
NtRp5953
(dp5954
g62
(dp5955
sg71
g5949
sg64
(lp5956
g57
(g58
g59
NtRp5957
(dp5958
g62
(dp5959
g70
I1
ssg71
g5953
sg64
(lp5960
I00
asbasbasbag57
(g73
g59
NtRp5961
(dp5962
g62
(dp5963
sg71
g5933
sg64
(lp5964
g57
(g78
g59
NtRp5965
(dp5966
g62
(dp5967
sg71
g5961
sg64
(lp5968
g57
(g58
g59
NtRp5969
(dp5970
g62
(dp5971
g70
I1
ssg71
g5965
sg64
(lp5972
Nasbasbasbag57
(g73
g59
NtRp5973
(dp5974
g62
(dp5975
sg71
g5933
sg64
(lp5976
g57
(g78
g59
NtRp5977
(dp5978
g62
(dp5979
sg71
g5973
sg64
(lp5980
g57
(g58
g59
NtRp5981
(dp5982
g62
(dp5983
g70
I1
ssg71
g5977
sg64
(lp5984
(lp5985
(g5534
I00
g5532
tp5986
a(g5544
I00
g5542
tp5987
a(g5554
I00
g5552
tp5988
aasbasbasbasbasbasbasbag57
(g73
g59
NtRp5989
(dp5990
g62
(dp5991
sg71
g5634
sg64
(lp5992
g57
(g78
g59
NtRp5993
(dp5994
g62
(dp5995
sg71
g5989
sg64
(lp5996
g57
(g58
g59
NtRp5997
(dp5998
g62
(dp5999
g70
I2
ssg71
g5993
sg64
(lp6000
g57
(g66
g59
NtRp6001
(dp6002
g62
(dp6003
g70
I1
ssg71
Nsg64
(lp6004
g57
(g73
g59
NtRp6005
(dp6006
g62
(dp6007
sg71
g6001
sg64
(lp6008
g57
(g78
g59
NtRp6009
(dp6010
g62
(dp6011
sg71
g6005
sg64
(lp6012
g57
(g58
g59
NtRp6013
(dp6014
g62
(dp6015
g70
I1
ssg71
g6009
sg64
(lp6016
g5563
asbasbasbag57
(g73
g59
NtRp6017
(dp6018
g62
(dp6019
sg71
g6001
sg64
(lp6020
g57
(g78
g59
NtRp6021
(dp6022
g62
(dp6023
sg71
g6017
sg64
(lp6024
g57
(g58
g59
NtRp6025
(dp6026
g62
(dp6027
g70
I1
ssg71
g6021
sg64
(lp6028
I00
asbasbasbag57
(g73
g59
NtRp6029
(dp6030
g62
(dp6031
sg71
g6001
sg64
(lp6032
g57
(g78
g59
NtRp6033
(dp6034
g62
(dp6035
sg71
g6029
sg64
(lp6036
g57
(g58
g59
NtRp6037
(dp6038
g62
(dp6039
g70
I1
ssg71
g6033
sg64
(lp6040
Nasbasbasbag57
(g73
g59
NtRp6041
(dp6042
g62
(dp6043
sg71
g6001
sg64
(lp6044
g57
(g78
g59
NtRp6045
(dp6046
g62
(dp6047
sg71
g6041
sg64
(lp6048
g57
(g58
g59
NtRp6049
(dp6050
g62
(dp6051
g70
I1
ssg71
g6045
sg64
(lp6052
(lp6053
(g5577
I00
g5575
tp6054
a(g5586
I00
g5303
tp6055
a(g5595
I00
g5313
tp6056
aasbasbasbasbasbasbasbasbasbasbasbasbasbasbasbasbasbasbasbag57
(g73
g59
NtRp6057
(dp6058
g62
(dp6059
sg71
g4373
sg64
(lp6060
g57
(g78
g59
NtRp6061
(dp6062
g62
(dp6063
g82
g83
ssg71
g6057
sg64
(lp6064
S'meta'
p6065
asbag57
(g78
g59
NtRp6066
(dp6067
g62
(dp6068
g89
g90
ssg71
g6057
sg64
(lp6069
S':'
asbag57
(g78
g59
NtRp6070
(dp6071
g62
(dp6072
sg71
g6057
sg64
(lp6073
g57
(g58
g59
NtRp6074
(dp6075
g62
(dp6076
g70
I5
ssg71
g6070
sg64
(lp6077
g57
(g66
g59
NtRp6078
(dp6079
g62
(dp6080
g70
I4
ssg71
Nsg64
(lp6081
g57
(g73
g59
NtRp6082
(dp6083
g62
(dp6084
sg71
g6078
sg64
(lp6085
g57
(g78
g59
NtRp6086
(dp6087
g62
(dp6088
g82
g83
ssg71
g6082
sg64
(lp6089
S'author'
p6090
asbag57
(g78
g59
NtRp6091
(dp6092
g62
(dp6093
g89
g90
ssg71
g6082
sg64
(lp6094
S':'
asbag57
(g78
g59
NtRp6095
(dp6096
g62
(dp6097
sg71
g6082
sg64
(lp6098
g57
(g58
g59
NtRp6099
(dp6100
g62
(dp6101
g70
I4
ssg71
g6095
sg64
(lp6102
S'Your Name <you@example.com>'
p6103
asbasbasbag57
(g73
g59
NtRp6104
(dp6105
g62
(dp6106
sg71
g6078
sg64
(lp6107
g57
(g78
g59
NtRp6108
(dp6109
g62
(dp6110
g82
g83
ssg71
g6104
sg64
(lp6111
S'description'
p6112
asbag57
(g78
g59
NtRp6113
(dp6114
g62
(dp6115
g89
g90
ssg71
g6104
sg64
(lp6116
S':'
asbag57
(g78
g59
NtRp6117
(dp6118
g62
(dp6119
sg71
g6104
sg64
(lp6120
g57
(g58
g59
NtRp6121
(dp6122
g62
(dp6123
g70
I4
ssg71
g6117
sg64
(lp6124
S'a cool new app'
p6125
asbasbasbag57
(g73
g59
NtRp6126
(dp6127
g62
(dp6128
sg71
g6078
sg64
(lp6129
g57
(g78
g59
NtRp6130
(dp6131
g62
(dp6132
g82
g83
ssg71
g6126
sg64
(lp6133
S'generator'
p6134
asbag57
(g78
g59
NtRp6135
(dp6136
g62
(dp6137
g89
g90
ssg71
g6126
sg64
(lp6138
S':'
asbag57
(g78
g59
NtRp6139
(dp6140
g62
(dp6141
sg71
g6126
sg64
(lp6142
g57
(g58
g59
NtRp6143
(dp6144
g62
(dp6145
g70
I4
ssg71
g6139
sg64
(lp6146
S'Web2py Web Framework'
p6147
asbasbasbag57
(g73
g59
NtRp6148
(dp6149
g62
(dp6150
sg71
g6078
sg64
(lp6151
g57
(g78
g59
NtRp6152
(dp6153
g62
(dp6154
g82
g83
ssg71
g6148
sg64
(lp6155
S'keywords'
p6156
asbag57
(g78
g59
NtRp6157
(dp6158
g62
(dp6159
g89
g90
ssg71
g6148
sg64
(lp6160
S':'
asbag57
(g78
g59
NtRp6161
(dp6162
g62
(dp6163
sg71
g6148
sg64
(lp6164
g57
(g58
g59
NtRp6165
(dp6166
g62
(dp6167
g70
I4
ssg71
g6161
sg64
(lp6168
S'web2py, python, framework'
p6169
asbasbasbasbasbasbasbag57
(g73
g59
NtRp6170
(dp6171
g62
(dp6172
sg71
g4373
sg64
(lp6173
g57
(g78
g59
NtRp6174
(dp6175
g62
(dp6176
g82
g83
ssg71
g6170
sg64
(lp6177
S'models_to_run'
p6178
asbag57
(g78
g59
NtRp6179
(dp6180
g62
(dp6181
g89
g90
ssg71
g6170
sg64
(lp6182
S':'
asbag57
(g78
g59
NtRp6183
(dp6184
g62
(dp6185
sg71
g6170
sg64
(lp6186
g57
(g58
g59
NtRp6187
(dp6188
g62
(dp6189
g70
I5
ssg71
g6183
sg64
(lp6190
g57
(g66
g59
NtRp6191
(dp6192
g62
(dp6193
g70
I4
ssg71
Nsg64
(lp6194
g57
(g73
g59
NtRp6195
(dp6196
g62
(dp6197
sg71
g6191
sg64
(lp6198
g57
(g78
g59
NtRp6199
(dp6200
g62
(dp6201
sg71
g6195
sg64
(lp6202
g57
(g58
g59
NtRp6203
(dp6204
g62
(dp6205
g70
I4
ssg71
g6199
sg64
(lp6206
S'^\\w+\\.py$'
p6207
asbasbasbag57
(g73
g59
NtRp6208
(dp6209
g62
(dp6210
sg71
g6191
sg64
(lp6211
g57
(g78
g59
NtRp6212
(dp6213
g62
(dp6214
sg71
g6208
sg64
(lp6215
g57
(g58
g59
NtRp6216
(dp6217
g62
(dp6218
g70
I4
ssg71
g6212
sg64
(lp6219
S'^default/\\w+\\.py$'
p6220
asbasbasbag57
(g73
g59
NtRp6221
(dp6222
g62
(dp6223
sg71
g6191
sg64
(lp6224
g57
(g78
g59
NtRp6225
(dp6226
g62
(dp6227
sg71
g6221
sg64
(lp6228
g57
(g58
g59
NtRp6229
(dp6230
g62
(dp6231
g70
I4
ssg71
g6225
sg64
(lp6232
S'^default/request_reservior_view/\\w+\\.py$'
p6233
asbasbasbasbasbasbasbag57
(g73
g59
NtRp6234
(dp6235
g62
(dp6236
sg71
g4373
sg64
(lp6237
g57
(g78
g59
NtRp6238
(dp6239
g62
(dp6240
g82
g83
ssg71
g6234
sg64
(lp6241
S'postprocessing'
p6242
asbag57
(g78
g59
NtRp6243
(dp6244
g62
(dp6245
g89
g90
ssg71
g6234
sg64
(lp6246
S':'
asbag57
(g78
g59
NtRp6247
(dp6248
g62
(dp6249
sg71
g6234
sg64
(lp6250
g57
(g58
g59
NtRp6251
(dp6252
g62
(dp6253
g70
I5
ssg71
g6247
sg64
(lp6254
g57
(g66
g59
NtRp6255
(dp6256
g62
(dp6257
g70
I4
ssg71
Nsg64
(lp6258
sbasbasbasbag57
(g73
g59
NtRp6259
(dp6260
g62
(dp6261
sg71
g4373
sg64
(lp6262
g57
(g78
g59
NtRp6263
(dp6264
g62
(dp6265
g82
g83
ssg71
g6259
sg64
(lp6266
S'session_cookie_expires'
p6267
asbag57
(g78
g59
NtRp6268
(dp6269
g62
(dp6270
g89
g90
ssg71
g6259
sg64
(lp6271
S':'
asbag57
(g78
g59
NtRp6272
(dp6273
g62
(dp6274
sg71
g6259
sg64
(lp6275
g57
(g58
g59
NtRp6276
(dp6277
g62
(dp6278
g70
I5
ssg71
g6272
sg64
(lp6279
S'None'
p6280
asbasbasbag57
(g73
g59
NtRp6281
(dp6282
g62
(dp6283
sg71
g4373
sg64
(lp6284
g57
(g78
g59
NtRp6285
(dp6286
g62
(dp6287
g82
g83
ssg71
g6281
sg64
(lp6288
S'session_data_name'
p6289
asbag57
(g78
g59
NtRp6290
(dp6291
g62
(dp6292
g89
g90
ssg71
g6281
sg64
(lp6293
S':'
asbag57
(g78
g59
NtRp6294
(dp6295
g62
(dp6296
sg71
g6281
sg64
(lp6297
g57
(g58
g59
NtRp6298
(dp6299
g62
(dp6300
g70
I5
ssg71
g6294
sg64
(lp6301
S'session_data_garbage_truck'
p6302
asbasbasbag57
(g73
g59
NtRp6303
(dp6304
g62
(dp6305
sg71
g4373
sg64
(lp6306
g57
(g78
g59
NtRp6307
(dp6308
g62
(dp6309
g82
g83
ssg71
g6303
sg64
(lp6310
S'session_file'
p6311
asbag57
(g78
g59
NtRp6312
(dp6313
g62
(dp6314
g89
g90
ssg71
g6303
sg64
(lp6315
S':'
asbag57
(g78
g59
NtRp6316
(dp6317
g62
(dp6318
sg71
g6303
sg64
(lp6319
g57
(g58
g59
NtRp6320
(dp6321
g62
(dp6322
g70
I5
ssg71
g6316
sg64
(lp6323
S"<open file '/home/darshan/web2py/applications/Garbage_Truck/sessions/127.0.0.1-eb5e8630-3789-44cf-90c0-4c0a37fc535a', mode 'rb+' at 0x7f92889d0db0>"
p6324
asbasbasbag57
(g73
g59
NtRp6325
(dp6326
g62
(dp6327
sg71
g4373
sg64
(lp6328
g57
(g78
g59
NtRp6329
(dp6330
g62
(dp6331
g82
g83
ssg71
g6325
sg64
(lp6332
S'session_filename'
p6333
asbag57
(g78
g59
NtRp6334
(dp6335
g62
(dp6336
g89
g90
ssg71
g6325
sg64
(lp6337
S':'
asbag57
(g78
g59
NtRp6338
(dp6339
g62
(dp6340
sg71
g6325
sg64
(lp6341
g57
(g58
g59
NtRp6342
(dp6343
g62
(dp6344
g70
I5
ssg71
g6338
sg64
(lp6345
S'/home/darshan/web2py/applications/Garbage_Truck/sessions/127.0.0.1-eb5e8630-3789-44cf-90c0-4c0a37fc535a'
p6346
asbasbasbag57
(g73
g59
NtRp6347
(dp6348
g62
(dp6349
sg71
g4373
sg64
(lp6350
g57
(g78
g59
NtRp6351
(dp6352
g62
(dp6353
g82
g83
ssg71
g6347
sg64
(lp6354
S'session_id'
p6355
asbag57
(g78
g59
NtRp6356
(dp6357
g62
(dp6358
g89
g90
ssg71
g6347
sg64
(lp6359
S':'
asbag57
(g78
g59
NtRp6360
(dp6361
g62
(dp6362
sg71
g6347
sg64
(lp6363
g57
(g58
g59
NtRp6364
(dp6365
g62
(dp6366
g70
I5
ssg71
g6360
sg64
(lp6367
g661
asbasbasbag57
(g73
g59
NtRp6368
(dp6369
g62
(dp6370
sg71
g4373
sg64
(lp6371
g57
(g78
g59
NtRp6372
(dp6373
g62
(dp6374
g82
g83
ssg71
g6368
sg64
(lp6375
S'session_id_name'
p6376
asbag57
(g78
g59
NtRp6377
(dp6378
g62
(dp6379
g89
g90
ssg71
g6368
sg64
(lp6380
S':'
asbag57
(g78
g59
NtRp6381
(dp6382
g62
(dp6383
sg71
g6368
sg64
(lp6384
g57
(g58
g59
NtRp6385
(dp6386
g62
(dp6387
g70
I5
ssg71
g6381
sg64
(lp6388
g4430
asbasbasbag57
(g73
g59
NtRp6389
(dp6390
g62
(dp6391
sg71
g4373
sg64
(lp6392
g57
(g78
g59
NtRp6393
(dp6394
g62
(dp6395
g82
g83
ssg71
g6389
sg64
(lp6396
S'session_locked'
p6397
asbag57
(g78
g59
NtRp6398
(dp6399
g62
(dp6400
g89
g90
ssg71
g6389
sg64
(lp6401
S':'
asbag57
(g78
g59
NtRp6402
(dp6403
g62
(dp6404
sg71
g6389
sg64
(lp6405
g57
(g58
g59
NtRp6406
(dp6407
g62
(dp6408
g70
I5
ssg71
g6402
sg64
(lp6409
g2370
asbasbasbag57
(g73
g59
NtRp6410
(dp6411
g62
(dp6412
sg71
g4373
sg64
(lp6413
g57
(g78
g59
NtRp6414
(dp6415
g62
(dp6416
g82
g83
ssg71
g6410
sg64
(lp6417
S'session_new'
p6418
asbag57
(g78
g59
NtRp6419
(dp6420
g62
(dp6421
g89
g90
ssg71
g6410
sg64
(lp6422
S':'
asbag57
(g78
g59
NtRp6423
(dp6424
g62
(dp6425
sg71
g6410
sg64
(lp6426
g57
(g58
g59
NtRp6427
(dp6428
g62
(dp6429
g70
I5
ssg71
g6423
sg64
(lp6430
g100
asbasbasbag57
(g73
g59
NtRp6431
(dp6432
g62
(dp6433
sg71
g4373
sg64
(lp6434
g57
(g78
g59
NtRp6435
(dp6436
g62
(dp6437
g82
g83
ssg71
g6431
sg64
(lp6438
S'session_storage_type'
p6439
asbag57
(g78
g59
NtRp6440
(dp6441
g62
(dp6442
g89
g90
ssg71
g6431
sg64
(lp6443
S':'
asbag57
(g78
g59
NtRp6444
(dp6445
g62
(dp6446
sg71
g6431
sg64
(lp6447
g57
(g58
g59
NtRp6448
(dp6449
g62
(dp6450
g70
I5
ssg71
g6444
sg64
(lp6451
g3843
asbasbasbag57
(g73
g59
NtRp6452
(dp6453
g62
(dp6454
sg71
g4373
sg64
(lp6455
g57
(g78
g59
NtRp6456
(dp6457
g62
(dp6458
g82
g83
ssg71
g6452
sg64
(lp6459
S'status'
p6460
asbag57
(g78
g59
NtRp6461
(dp6462
g62
(dp6463
g89
g90
ssg71
g6452
sg64
(lp6464
S':'
asbag57
(g78
g59
NtRp6465
(dp6466
g62
(dp6467
sg71
g6452
sg64
(lp6468
g57
(g58
g59
NtRp6469
(dp6470
g62
(dp6471
g70
I5
ssg71
g6465
sg64
(lp6472
S'200'
p6473
asbasbasbag57
(g73
g59
NtRp6474
(dp6475
g62
(dp6476
sg71
g4373
sg64
(lp6477
g57
(g78
g59
NtRp6478
(dp6479
g62
(dp6480
g82
g83
ssg71
g6474
sg64
(lp6481
S'subtitle'
p6482
asbag57
(g78
g59
NtRp6483
(dp6484
g62
(dp6485
g89
g90
ssg71
g6474
sg64
(lp6486
S':'
asbag57
(g78
g59
NtRp6487
(dp6488
g62
(dp6489
sg71
g6474
sg64
(lp6490
g57
(g58
g59
NtRp6491
(dp6492
g62
(dp6493
g70
I5
ssg71
g6487
sg64
(lp6494
g4985
(S's\r\x00\x00\x00customize me!'
tRp6495
asbasbasbag57
(g73
g59
NtRp6496
(dp6497
g62
(dp6498
sg71
g4373
sg64
(lp6499
g57
(g78
g59
NtRp6500
(dp6501
g62
(dp6502
g82
g83
ssg71
g6496
sg64
(lp6503
S'title'
p6504
asbag57
(g78
g59
NtRp6505
(dp6506
g62
(dp6507
g89
g90
ssg71
g6496
sg64
(lp6508
S':'
asbag57
(g78
g59
NtRp6509
(dp6510
g62
(dp6511
sg71
g6496
sg64
(lp6512
g57
(g58
g59
NtRp6513
(dp6514
g62
(dp6515
g70
I5
ssg71
g6509
sg64
(lp6516
S'Garbage Truck'
p6517
asbasbasbag57
(g73
g59
NtRp6518
(dp6519
g62
(dp6520
sg71
g4373
sg64
(lp6521
g57
(g78
g59
NtRp6522
(dp6523
g62
(dp6524
g82
g83
ssg71
g6518
sg64
(lp6525
S'view'
p6526
asbag57
(g78
g59
NtRp6527
(dp6528
g62
(dp6529
g89
g90
ssg71
g6518
sg64
(lp6530
S':'
asbag57
(g78
g59
NtRp6531
(dp6532
g62
(dp6533
sg71
g6518
sg64
(lp6534
g57
(g58
g59
NtRp6535
(dp6536
g62
(dp6537
g70
I5
ssg71
g6531
sg64
(lp6538
S'default/request_reservior_view.html'
p6539
asbasbasbasbasbsS'locals'
p6540
(dp6541
S'disp'
p6542
S"''"
p6543
sS'Service'
p6544
S"<class 'gluon.tools.Service'>"
p6545
sS'OBJECT'
p6546
S"<class 'gluon.html.OBJECT'>"
p6547
sS'SQLDB'
p6548
S"<class 'gluon.dal.DAL'>"
p6549
sg3892
S"<Storage {'_formkey[report_present/create]': 'c8...det/2]': '521f1423-3d42-4024-90be-fea26ce71b3e'}>"
p6550
sS'LINK'
p6551
S"<class 'gluon.html.LINK'>"
p6552
sS'BR'
p6553
S"<class 'gluon.html.BR'>"
p6554
sS'local_import'
p6555
S'<function <lambda>>'
p6556
sS'OPTGROUP'
p6557
S"<class 'gluon.html.OPTGROUP'>"
p6558
sS'nam'
p6559
S"'Nurender chowdhary'"
p6560
sS'PRE'
p6561
S"<class 'gluon.html.PRE'>"
p6562
sS'IS_INT_IN_RANGE'
p6563
S"<class 'gluon.validators.IS_INT_IN_RANGE'>"
p6564
sS'IS_LOWER'
p6565
S"<class 'gluon.validators.IS_LOWER'>"
p6566
sS'IS_STRONG'
p6567
S"<class 'gluon.validators.IS_STRONG'>"
p6568
sS'cache'
p6569
S'<gluon.cache.Cache object>'
p6570
sS'IS_IN_DB'
p6571
S"<class 'gluon.validators.IS_IN_DB'>"
p6572
sS'TAG'
p6573
S'<gluon.html.__TAG__ object>'
p6574
sS'SQLField'
p6575
S"<class 'gluon.dal.Field'>"
p6576
sS'mail'
p6577
S'<gluon.tools.Mail object>'
p6578
sS'BODY'
p6579
S"<class 'gluon.html.BODY'>"
p6580
sS'IS_DATE_IN_RANGE'
p6581
S"<class 'gluon.validators.IS_DATE_IN_RANGE'>"
p6582
sS'IFRAME'
p6583
S"<class 'gluon.html.IFRAME'>"
p6584
sS'URL'
p6585
S'<function URL>'
p6586
sS'__file__'
p6587
S"'/home/darshan/web2py/applications/Garbage_Truck/views/default/request_reservior_view.html'"
p6588
sS'db'
p6589
S'<DAL uri="sqlite://storage.sqlite">'
p6590
sS'auth'
p6591
S'<gluon.tools.Auth object>'
p6592
sS'P'
S"<class 'gluon.html.P'>"
p6593
sS'TFOOT'
p6594
S"<class 'gluon.html.TFOOT'>"
p6595
sS'XHTML'
p6596
S"<class 'gluon.html.XHTML'>"
p6597
sS'ON'
p6598
g2370
sS'OL'
p6599
S"<class 'gluon.html.OL'>"
p6600
sS'd'
S"{datetime.date(2014, 9, 28): [<Row {'auth_user': {'username': '410231231', 'fi...c_ward': {'user_id': 5, 'id': 1, 'pin': 500038}}>]}"
p6601
sS'TEXTAREA'
p6602
S"<class 'gluon.html.TEXTAREA'>"
p6603
sS'MENU'
p6604
S"<class 'gluon.html.MENU'>"
p6605
sS'STYLE'
p6606
S"<class 'gluon.html.STYLE'>"
p6607
sS'__package__'
p6608
S'None'
p6609
sS'IS_IMAGE'
p6610
S"<class 'gluon.validators.IS_IMAGE'>"
p6611
sS'EM'
p6612
S"<class 'gluon.html.EM'>"
p6613
sS'CODE'
p6614
S"<class 'gluon.html.CODE'>"
p6615
sS'HTTP'
p6616
S"<class 'gluon.http.HTTP'>"
p6617
sS'HR'
p6618
S"<class 'gluon.html.HR'>"
p6619
sS'IS_DATETIME'
p6620
S"<class 'gluon.validators.IS_DATETIME'>"
p6621
sS'stat'
p6622
S'1'
sS'LABEL'
p6623
S"<class 'gluon.html.LABEL'>"
p6624
sS'CLEANUP'
p6625
S"<class 'gluon.validators.CLEANUP'>"
p6626
sS'plugins'
p6627
S'<gluon.tools.PluginManager object>'
p6628
sS'SELECT'
p6629
S"<class 'gluon.html.SELECT'>"
p6630
sS'use_janrain'
p6631
S'<function use_janrain>'
p6632
sS'CENTER'
p6633
S"<class 'gluon.html.CENTER'>"
p6634
sS'prettydate'
p6635
S'<function prettydate>'
p6636
sS'Crud'
p6637
S"<class 'gluon.tools.Crud'>"
p6638
sS'Auth'
p6639
S"<class 'gluon.tools.Auth'>"
p6640
sS'DEVELOPMENT_MENU'
p6641
g2370
sS'__builtins__'
p6642
S"{'ArithmeticError': <type 'exceptions.ArithmeticError'>, 'AssertionError': <type 'exceptions.AssertionError'>, 'AttributeError': <type 'exceptions.AttributeError'>, 'BaseException': <type 'exceptions.BaseException'>, 'BufferError': <type 'exceptions.BufferError'>, 'BytesWarning': <type 'exceptions.BytesWarning'>, 'DeprecationWarning': <type 'exceptions.DeprecationWarning'>, 'EOFError': <type 'exceptions.EOFError'>, 'Ellipsis': Ellipsis, 'EnvironmentError': <type 'exceptions.EnvironmentError'>, ...}"
p6643
sS'HTML'
p6644
S"<class 'gluon.html.HTML'>"
p6645
sS'SQLFORM'
p6646
S"<class 'gluon.sqlhtml.SQLFORM'>"
p6647
sS'LOAD'
p6648
S'<function LOAD>'
p6649
sS'redirect'
p6650
S'<function redirect>'
p6651
sS'FIELDSET'
p6652
S"<class 'gluon.html.FIELDSET'>"
p6653
sS'IS_EQUAL_TO'
p6654
S"<class 'gluon.validators.IS_EQUAL_TO'>"
p6655
sS'embed64'
p6656
S'<function embed64>'
p6657
sS'IS_LIST_OF'
p6658
S"<class 'gluon.validators.IS_LIST_OF'>"
p6659
sS'INPUT'
p6660
S"<class 'gluon.html.INPUT'>"
p6661
sS'EMBED'
p6662
S"<class 'gluon.html.EMBED'>"
p6663
sS'_'
S'<function _>'
p6664
sS'H2'
p6665
S"<class 'gluon.html.H2'>"
p6666
sS'H3'
p6667
S"<class 'gluon.html.H3'>"
p6668
sS'BUTTON'
p6669
S"<class 'gluon.html.BUTTON'>"
p6670
sS'H1'
p6671
S"<class 'gluon.html.H1'>"
p6672
sS'H6'
p6673
S"<class 'gluon.html.H6'>"
p6674
sS'H4'
p6675
S"<class 'gluon.html.H4'>"
p6676
sS'H5'
p6677
S"<class 'gluon.html.H5'>"
p6678
sS'UL'
p6679
S"<class 'gluon.html.UL'>"
p6680
sS's'
S"[<Row {'auth_user': {'username': '410231231', 'fi...c_ward': {'user_id': 5, 'id': 1, 'pin': 500038}}>]"
p6681
sS'IS_UPPER'
p6682
S"<class 'gluon.validators.IS_UPPER'>"
p6683
sS'xmlescape'
p6684
S'<function xmlescape>'
p6685
sS'IS_TIME'
p6686
S"<class 'gluon.validators.IS_TIME'>"
p6687
sS'OPTION'
p6688
S"<class 'gluon.html.OPTION'>"
p6689
sS'TITLE'
p6690
S"<class 'gluon.html.TITLE'>"
p6691
sS'CRYPT'
p6692
S"<class 'gluon.validators.CRYPT'>"
p6693
sS'IS_EMPTY_OR'
p6694
S"<class 'gluon.validators.IS_EMPTY_OR'>"
p6695
sS'MARKMIN'
p6696
S"<class 'gluon.html.MARKMIN'>"
p6697
sS'__name__'
p6698
S"'__restricted__'"
p6699
sS'STRONG'
p6700
S"<class 'gluon.html.STRONG'>"
p6701
sS'COL'
p6702
S"<class 'gluon.html.COL'>"
p6703
sS'service'
p6704
S'<gluon.tools.Service object>'
p6705
sS'SCRIPT'
p6706
S"<class 'gluon.html.SCRIPT'>"
p6707
sS'TABLE'
p6708
S"<class 'gluon.html.TABLE'>"
p6709
sS'IS_IPV4'
p6710
S"<class 'gluon.validators.IS_IPV4'>"
p6711
sS'IS_LENGTH'
p6712
S"<class 'gluon.validators.IS_LENGTH'>"
p6713
sS'XML'
p6714
S"<class 'gluon.html.XML'>"
p6715
sS'B'
S"<class 'gluon.html.B'>"
p6716
sS'IMG'
p6717
S"<class 'gluon.html.IMG'>"
p6718
sS'SQLTABLE'
p6719
S"<class 'gluon.sqlhtml.SQLTABLE'>"
p6720
sS'IS_MATCH'
p6721
S"<class 'gluon.validators.IS_MATCH'>"
p6722
sS'IS_ALPHANUMERIC'
p6723
S"<class 'gluon.validators.IS_ALPHANUMERIC'>"
p6724
sS'SPAN'
p6725
S"<class 'gluon.html.SPAN'>"
p6726
sS'j'
S"<Row {'auth_user': {'username': '410231231', 'fi...c_ward': {'user_id': 5, 'id': 1, 'pin': 500038}}>"
p6727
sS'IS_SLUG'
p6728
S"<class 'gluon.validators.IS_SLUG'>"
p6729
sS'BEAUTIFY'
p6730
S"<class 'gluon.html.BEAUTIFY'>"
p6731
sS'META'
p6732
S"<class 'gluon.html.META'>"
p6733
sS'IS_DATE'
p6734
S"<class 'gluon.validators.IS_DATE'>"
p6735
sS'IS_EMAIL'
p6736
S"<class 'gluon.validators.IS_EMAIL'>"
p6737
sS'IS_NOT_EMPTY'
p6738
S"<class 'gluon.validators.IS_NOT_EMPTY'>"
p6739
sS'IS_FLOAT_IN_RANGE'
p6740
S"<class 'gluon.validators.IS_FLOAT_IN_RANGE'>"
p6741
sS'TBODY'
p6742
S"<class 'gluon.html.TBODY'>"
p6743
sS'CAT'
p6744
S"<class 'gluon.html.CAT'>"
p6745
sS'Field'
p6746
S"<class 'gluon.dal.Field'>"
p6747
sS'DIV'
p6748
S"<class 'gluon.html.DIV'>"
p6749
sS'LEGEND'
p6750
S"<class 'gluon.html.LEGEND'>"
p6751
sS'COLGROUP'
p6752
S"<class 'gluon.html.COLGROUP'>"
p6753
sS'DAL'
p6754
S"<class 'gluon.dal.DAL'>"
p6755
sS'TT'
p6756
S"<class 'gluon.html.TT'>"
p6757
sS'TR'
p6758
S"<class 'gluon.html.TR'>"
p6759
sS'LI'
p6760
S"<class 'gluon.html.LI'>"
p6761
sS'TH'
p6762
S"<class 'gluon.html.TH'>"
p6763
sS'TD'
p6764
S"<class 'gluon.html.TD'>"
p6765
sS'PluginManager'
p6766
S"<class 'gluon.tools.PluginManager'>"
p6767
sS'IS_URL'
p6768
S"<class 'gluon.validators.IS_URL'>"
p6769
sS'A'
S"<class 'gluon.html.A'>"
p6770
sS'HEAD'
p6771
S"<class 'gluon.html.HEAD'>"
p6772
sS'IS_DATETIME_IN_RANGE'
p6773
S"<class 'gluon.validators.IS_DATETIME_IN_RANGE'>"
p6774
sS'FORM'
p6775
S"<class 'gluon.html.FORM'>"
p6776
sS'I'
S"<class 'gluon.html.I'>"
p6777
sS'crud'
p6778
S'<gluon.tools.Crud object>'
p6779
sS'IS_NOT_IN_DB'
p6780
S"<class 'gluon.validators.IS_NOT_IN_DB'>"
p6781
sg4368
S"<Storage {'body': <cStringIO.StringO object at 0..., 'view': 'default/request_reservior_view.html'}>"
p6782
sS'THEAD'
p6783
S"<class 'gluon.html.THEAD'>"
p6784
sS'IS_NULL_OR'
p6785
S"<class 'gluon.validators.IS_EMPTY_OR'>"
p6786
sS'i'
S'datetime.date(2014, 9, 28)'
p6787
sg56
S"<Storage {'function': 'request_reservior_view', ...ions/Garbage_Truck/', 'post_vars': <Storage {}>}>"
p6788
sS'IS_EXPR'
p6789
S"<class 'gluon.validators.IS_EXPR'>"
p6790
sS'T'
S'<gluon.languages.translator object>'
p6791
sS'IS_IN_SET'
p6792
S"<class 'gluon.validators.IS_IN_SET'>"
p6793
sS'IS_UPLOAD_FILENAME'
p6794
S"<class 'gluon.validators.IS_UPLOAD_FILENAME'>"
p6795
sS'IS_DECIMAL_IN_RANGE'
p6796
S"<class 'gluon.validators.IS_DECIMAL_IN_RANGE'>"
p6797
sssS'traceback'
p6798
S'Traceback (most recent call last):\n  File "/home/darshan/web2py/gluon/restricted.py", line 212, in restricted\n    exec ccode in environment\n  File "/home/darshan/web2py/applications/Garbage_Truck/views/default/request_reservior_view.html", line 66, in <module>\nAttributeError: \'list\' object has no attribute \'request_collection\'\n'
p6799
s.