(dp1
S'output'
p2
S"<type 'exceptions.AttributeError'> 'Row' object has no attribute 'report_absent'"
p3
sS'layer'
p4
S'/home/darshan/web2py/applications/Garbage_Truck/controllers/default.py'
p5
sS'code'
p6
S'# -*- coding: utf-8 -*-\n# this file is released under public domain and you can use without limitations\n\n#########################################################################\n## This is a samples controller\n## - index is the default action of any application\n## - user is required for authentication and authorization\n## - download is for downloading files uploaded in the db (does streaming)\n## - call exposes all registered services (none by default)\n#########################################################################\nimport datetime\nf = \'%Y-%m-%d %H:%M:%S\'\n\n@auth.requires_login()\ndef index():\n    session.user_id=auth.user.id\n    session.user_name=auth.user.first_name\n    if auth.has_membership(role=\'ghmc_admin\'):\n        redirect(URL(\'ghmc_official\'))\n\n    """\n    example action using the internationalization operator T and flash\n    rendered by views/default/index.html or views/generic.html\n\n    if you need a simple wiki simple replace the two lines below with:\n    return auth.wiki()\n    """\n    return dict()\n\n@auth.requires_login()\n@auth.requires_membership(\'ghmc_admin\')\ndef ghmc_official():\n    return dict()\n\n"""    \ndef groupadd(check_group):\n\tif not db(db.auth_group.role==check_group).count():\n        db.auth_group.insert(role=check_group)\n"""\n\ndef worker_report():\n    return dict()\n\n@auth.requires_login()\ndef report_absence():\n    form=SQLFORM(db.report_absent)\n    if form.process().accepted:\n        session.flash = \'form accepted\'\n        redirect(URL(\'index\'))\n    elif form.errors:\n        response.flash = \'form has errors\'\n    else:\n        response.flash = \'please fill the form\'\n    return dict(form=form)\n\n@auth.requires_login()\ndef rate_presence():\n    form=SQLFORM(db.report_present)\n    if form.process().accepted:\n        session.flash = \'form accepted\'\n        redirect(URL(\'index\'))\n    elif form.errors:\n        response.flash = \'form has errors\'\n    else:\n        response.flash = \'please fill the form\'\n    return dict(form=form)\n\n@auth.requires_login()\ndef request_urgent():\n    form=SQLFORM(db.request_festive)\n    if form.process().accepted:\n        session.flash = \'form accepted\'\n        redirect(URL(\'index\'))\n    elif form.errors:\n        response.flash = \'form has errors\'\n    else:\n        response.flash = \'please fill the form\'\n    return dict(form=form)\n\n@auth.requires_login()\ndef request_reservior():\n    form=SQLFORM(db.request_collection)\n    if form.process().accepted:\n        session.flash = \'form accepted\'\n        redirect(URL(\'index\'))\n    elif form.errors:\n        response.flash = \'form has errors\'\n    else:\n        response.flash = \'please fill the form\'\n    return dict(form=form)\n\n@auth.requires_login()\n@auth.requires_membership(\'ghmc_admin\')\ndef request_reservior_view():\n    s=db((db.request_collection.id>0) & (db.request_collection.user_id==db.auth_user.id) & (db.gmc_ward.user_id==auth.user.id)&(db.request_collection.pin==db.gmc_ward.pin)).select()\n    d={}\n    for i in s:\n        #dat=i.request_festive.request_on.date()\n        dat = i.report_absent.request_on.split()[0]\n        if dat in d:\n            d[dat]=d[dat]+[i]\n        else:\n            d[dat]=[i]\n    return dict(d=d)\n\n@auth.requires_login()\n@auth.requires_membership(\'ghmc_admin\')\ndef edit_status():\n    cid=request.args[0]\n    d[\'Received\']=1\n    d[\'Observed\']=2\n    d[\'Verified\']=3\n    d[\'Processing\']=4\n    d[\'Completed\']=5\n    form=FORM(\'Edit Status\', \n            _INPUT(_name=\'status\',requires=IS_IN_SET(d.values())),\n            _INPUT(_type=\'submit\'))\n    if form.process().accepted:\n        db(db.request_collection.id==cid).update(status=d[form.vars.status])\n        session.flash = \'form accepted\'\n        redirect(URL(\'index\'))\n    elif form.errors:\n        response.flash = \'form has errors\'\n    else:\n        response.flash = \'please fill the form\'\n    return dict(form=form)\n\n\n@auth.requires_login()\n@auth.requires_membership(\'ghmc_admin\')\ndef request_urgent_view():\n    s=db((db.request_festive.id>0) & (db.auth_user.id==db.request_festive.user_id)).select(orderby=~db.request_festive.request_on)\n    d={}\n    for i in s:\n        #dat = i.request_festive.request_on.split()[0]\n        dat = i.request_festive.request_on.date()\n        if dat in d:\n            d[dat]=d[dat]+[[i.auth_user.first_name, i.auth_user.last_name, i.request_festive.comment1,i.request_festive.reason]]\n        else:\n            d[dat]=[[i.auth_user.first_name, i.auth_user.last_name, i.request_festive.comment1, i.request_festive.reason]]\n    return dict(d=d)    \n            \n@auth.requires_login()\n@auth.requires_membership(\'ghmc_admin\')\ndef absence_view():\n    s=db((db.report_absent.id>0) & (db.report_absent.user_id==db.auth_user.id) & (db.auth_user.id==db.consumer.user_id) & (db.gmc_ward.user_id==auth.user.id)&(db.consumer.pin==db.gmc_ward.pin)).select(db.auth_user.first_name, db.auth_user.last_name, db.report_absent.request_on, db.report_absent.comment1,db.consumer.pin, orderby=~db.report_absent.request_on)\n    d={}\n    for i in s:\n        #dat=datetime.datetime.strptime(i.report_absent.request_on,f).date()\n        dat = i.report_absent.request_on.split()[0]\n        if dat in d:\n            d[dat]=d[dat]+[[i.auth_user.first_name, i.auth_user.last_name, i.report_absent.comment1]]\n        else:\n            d[dat]=[[i.auth_user.first_name, i.auth_user.last_name, i.report_absent.comment1]]\n    return dict(d=d)\ndef presence_view():\n    s=db((db.report_present.id>0) & (db.report_present.user_id==db.auth_user.id) & (db.auth_user.id==db.consumer.user_id) & (db.gmc_ward.user_id==auth.user.id)&(db.consumer.pin==db.gmc_ward.pin)&(db.report_present.ghmc_no==db.gmc_det.id)).select(db.auth_user.first_name, db.auth_user.last_name, db.report_present.request_on, db.report_present.comment1,db.consumer.pin,db.report_present.rating, db.gmc_det.worker_id, db.gmc_det.area, db.gmc_det.name, orderby=~db.report_present.rating)\n    return dict(s=s)\n\ndef user():\n    """\n    exposes:\n    http://..../[app]/default/user/login\n    http://..../[app]/default/user/logout\n    http://..../[app]/default/user/register\n    http://..../[app]/default/user/profile\n    http://..../[app]/default/user/retrieve_password\n    http://..../[app]/default/user/change_password\n    use @auth.requires_login()\n        @auth.requires_membership(\'group name\')\n        @auth.requires_permission(\'read\',\'table name\',record_id)\n    to decorate functions that need access control\n    """\n    return dict(form=auth())\n\n\ndef download():\n    """\n    allows downloading of uploaded files\n    http://..../[app]/default/download/[filename]\n    """\n    return response.download(request, db)\n\n\ndef call():\n    """\n    exposes services. for example:\n    http://..../[app]/default/call/jsonrpc\n    decorate with @services.jsonrpc the functions to expose\n    supports xml, json, xmlrpc, jsonrpc, amfrpc, rss, csv\n    """\n    return service()\n\n\n@auth.requires_signature()\ndef data():\n    """\n    http://..../[app]/default/data/tables\n    http://..../[app]/default/data/create/[table]\n    http://..../[app]/default/data/read/[table]/[id]\n    http://..../[app]/default/data/update/[table]/[id]\n    http://..../[app]/default/data/delete/[table]/[id]\n    http://..../[app]/default/data/select/[table]\n    http://..../[app]/default/data/search/[table]\n    but URLs must be signed, i.e. linked with\n      A(\'table\',_href=URL(\'data/tables\',user_signature=True))\n    or with the signed load operator\n      LOAD(\'default\',\'data.load\',args=\'tables\',ajax=True,user_signature=True)\n    """\n    return dict(form=crud())\n\nresponse._vars=response._caller(request_reservior_view)\n'
p7
sS'snapshot'
p8
(dp9
S'exception'
p10
(dp11
S'__hash__'
p12
S"<method-wrapper '__hash__' of exceptions.AttributeError object>"
p13
sS'__setattr__'
p14
S"<method-wrapper '__setattr__' of exceptions.AttributeError object>"
p15
sS'__reduce_ex__'
p16
S'<built-in method __reduce_ex__ of exceptions.AttributeError object>'
p17
sS'__getslice__'
p18
S"<method-wrapper '__getslice__' of exceptions.AttributeError object>"
p19
sS'__getitem__'
p20
S"<method-wrapper '__getitem__' of exceptions.AttributeError object>"
p21
sS'__setstate__'
p22
S'<built-in method __setstate__ of exceptions.AttributeError object>'
p23
sS'args'
p24
S'("\'Row\' object has no attribute \'report_absent\'",)'
p25
sS'__reduce__'
p26
S'<built-in method __reduce__ of exceptions.AttributeError object>'
p27
sS'__str__'
p28
S"<method-wrapper '__str__' of exceptions.AttributeError object>"
p29
sS'__format__'
p30
S'<built-in method __format__ of exceptions.AttributeError object>'
p31
sS'__getattribute__'
p32
S"<method-wrapper '__getattribute__' of exceptions.AttributeError object>"
p33
sS'__class__'
p34
S"<type 'exceptions.AttributeError'>"
p35
sS'__unicode__'
p36
S'<built-in method __unicode__ of exceptions.AttributeError object>'
p37
sS'__delattr__'
p38
S"<method-wrapper '__delattr__' of exceptions.AttributeError object>"
p39
sS'__subclasshook__'
p40
S'<built-in method __subclasshook__ of type object>'
p41
sS'__repr__'
p42
S"<method-wrapper '__repr__' of exceptions.AttributeError object>"
p43
sS'__dict__'
p44
S'{}'
p45
sS'__sizeof__'
p46
S'<built-in method __sizeof__ of exceptions.AttributeError object>'
p47
sS'__doc__'
p48
S"'Attribute not found.'"
p49
sS'__init__'
p50
S"<method-wrapper '__init__' of exceptions.AttributeError object>"
p51
sS'__new__'
p52
S'<built-in method __new__ of type object>'
p53
ssS'evalue'
p54
S"'Row' object has no attribute 'report_absent'"
p55
sS'request'
p56
ccopy_reg
_reconstructor
p57
(cgluon.html
BEAUTIFY
p58
c__builtin__
object
p59
NtRp60
(dp61
S'attributes'
p62
(dp63
sS'components'
p64
(lp65
g57
(cgluon.html
TABLE
p66
g59
NtRp67
(dp68
g62
(dp69
S'level'
p70
I5
ssS'parent'
p71
Nsg64
(lp72
g57
(cgluon.html
TR
p73
g59
NtRp74
(dp75
g62
(dp76
sg71
g67
sg64
(lp77
g57
(cgluon.html
TD
p78
g59
NtRp79
(dp80
g62
(dp81
S'_style'
p82
S'font-weight:bold;vertical-align:top'
p83
ssg71
g74
sg64
(lp84
S'ajax'
p85
asbag57
(g78
g59
NtRp86
(dp87
g62
(dp88
S'_valign'
p89
S'top'
p90
ssg71
g74
sg64
(lp91
S':'
asbag57
(g78
g59
NtRp92
(dp93
g62
(dp94
sg71
g74
sg64
(lp95
g57
(g58
g59
NtRp96
(dp97
g62
(dp98
g70
I5
ssg71
g92
sg64
(lp99
S'False'
p100
asbasbasbag57
(g73
g59
NtRp101
(dp102
g62
(dp103
sg71
g67
sg64
(lp104
g57
(g78
g59
NtRp105
(dp106
g62
(dp107
g82
g83
ssg71
g101
sg64
(lp108
S'application'
p109
asbag57
(g78
g59
NtRp110
(dp111
g62
(dp112
g89
g90
ssg71
g101
sg64
(lp113
S':'
asbag57
(g78
g59
NtRp114
(dp115
g62
(dp116
sg71
g101
sg64
(lp117
g57
(g58
g59
NtRp118
(dp119
g62
(dp120
g70
I5
ssg71
g114
sg64
(lp121
S'Garbage_Truck'
p122
asbasbasbag57
(g73
g59
NtRp123
(dp124
g62
(dp125
sg71
g67
sg64
(lp126
g57
(g78
g59
NtRp127
(dp128
g62
(dp129
g82
g83
ssg71
g123
sg64
(lp130
g24
asbag57
(g78
g59
NtRp131
(dp132
g62
(dp133
g89
g90
ssg71
g123
sg64
(lp134
S':'
asbag57
(g78
g59
NtRp135
(dp136
g62
(dp137
sg71
g123
sg64
(lp138
g57
(g58
g59
NtRp139
(dp140
g62
(dp141
g70
I5
ssg71
g135
sg64
(lp142
g57
(g66
g59
NtRp143
(dp144
g62
(dp145
g70
I4
ssg71
Nsg64
(lp146
sbasbasbasbag57
(g73
g59
NtRp147
(dp148
g62
(dp149
sg71
g67
sg64
(lp150
g57
(g78
g59
NtRp151
(dp152
g62
(dp153
g82
g83
ssg71
g147
sg64
(lp154
S'body'
p155
asbag57
(g78
g59
NtRp156
(dp157
g62
(dp158
g89
g90
ssg71
g147
sg64
(lp159
S':'
asbag57
(g78
g59
NtRp160
(dp161
g62
(dp162
sg71
g147
sg64
(lp163
g57
(g58
g59
NtRp164
(dp165
g62
(dp166
g70
I5
ssg71
g160
sg64
(lp167
S'<cStringIO.StringO object at 0x7f9288e93848>'
p168
asbasbasbag57
(g73
g59
NtRp169
(dp170
g62
(dp171
sg71
g67
sg64
(lp172
g57
(g78
g59
NtRp173
(dp174
g62
(dp175
g82
g83
ssg71
g169
sg64
(lp176
S'cid'
p177
asbag57
(g78
g59
NtRp178
(dp179
g62
(dp180
g89
g90
ssg71
g169
sg64
(lp181
S':'
asbag57
(g78
g59
NtRp182
(dp183
g62
(dp184
sg71
g169
sg64
(lp185
g57
(g58
g59
NtRp186
(dp187
g62
(dp188
g70
I5
ssg71
g182
sg64
(lp189
S'None'
p190
asbasbasbag57
(g73
g59
NtRp191
(dp192
g62
(dp193
sg71
g67
sg64
(lp194
g57
(g78
g59
NtRp195
(dp196
g62
(dp197
g82
g83
ssg71
g191
sg64
(lp198
S'client'
p199
asbag57
(g78
g59
NtRp200
(dp201
g62
(dp202
g89
g90
ssg71
g191
sg64
(lp203
S':'
asbag57
(g78
g59
NtRp204
(dp205
g62
(dp206
sg71
g191
sg64
(lp207
g57
(g58
g59
NtRp208
(dp209
g62
(dp210
g70
I5
ssg71
g204
sg64
(lp211
S'127.0.0.1'
p212
asbasbasbag57
(g73
g59
NtRp213
(dp214
g62
(dp215
sg71
g67
sg64
(lp216
g57
(g78
g59
NtRp217
(dp218
g62
(dp219
g82
g83
ssg71
g213
sg64
(lp220
S'controller'
p221
asbag57
(g78
g59
NtRp222
(dp223
g62
(dp224
g89
g90
ssg71
g213
sg64
(lp225
S':'
asbag57
(g78
g59
NtRp226
(dp227
g62
(dp228
sg71
g213
sg64
(lp229
g57
(g58
g59
NtRp230
(dp231
g62
(dp232
g70
I5
ssg71
g226
sg64
(lp233
S'default'
p234
asbasbasbag57
(g73
g59
NtRp235
(dp236
g62
(dp237
sg71
g67
sg64
(lp238
g57
(g78
g59
NtRp239
(dp240
g62
(dp241
g82
g83
ssg71
g235
sg64
(lp242
S'cookies'
p243
asbag57
(g78
g59
NtRp244
(dp245
g62
(dp246
g89
g90
ssg71
g235
sg64
(lp247
S':'
asbag57
(g78
g59
NtRp248
(dp249
g62
(dp250
sg71
g235
sg64
(lp251
g57
(g58
g59
NtRp252
(dp253
g62
(dp254
g70
I5
ssg71
g248
sg64
(lp255
g57
(g66
g59
NtRp256
(dp257
g62
(dp258
g70
I4
ssg71
Nsg64
(lp259
g57
(g73
g59
NtRp260
(dp261
g62
(dp262
sg71
g256
sg64
(lp263
g57
(g78
g59
NtRp264
(dp265
g62
(dp266
g82
g83
ssg71
g260
sg64
(lp267
S'csrftoken'
p268
asbag57
(g78
g59
NtRp269
(dp270
g62
(dp271
g89
g90
ssg71
g260
sg64
(lp272
S':'
asbag57
(g78
g59
NtRp273
(dp274
g62
(dp275
sg71
g260
sg64
(lp276
g57
(g58
g59
NtRp277
(dp278
g62
(dp279
g70
I4
ssg71
g273
sg64
(lp280
S'a9lCt5w7Q4OG437IZNwjtNB3YEdWYXWm'
p281
ag57
(g66
g59
NtRp282
(dp283
g62
(dp284
g70
I3
ssg71
Nsg64
(lp285
g57
(g73
g59
NtRp286
(dp287
g62
(dp288
sg71
g282
sg64
(lp289
g57
(g78
g59
NtRp290
(dp291
g62
(dp292
g82
g83
ssg71
g286
sg64
(lp293
S'comment'
p294
asbag57
(g78
g59
NtRp295
(dp296
g62
(dp297
g89
g90
ssg71
g286
sg64
(lp298
S':'
asbag57
(g78
g59
NtRp299
(dp300
g62
(dp301
sg71
g286
sg64
(lp302
g57
(g58
g59
NtRp303
(dp304
g62
(dp305
g70
I3
ssg71
g299
sg64
(lp306
S''
asbasbasbag57
(g73
g59
NtRp307
(dp308
g62
(dp309
sg71
g282
sg64
(lp310
g57
(g78
g59
NtRp311
(dp312
g62
(dp313
g82
g83
ssg71
g307
sg64
(lp314
S'domain'
p315
asbag57
(g78
g59
NtRp316
(dp317
g62
(dp318
g89
g90
ssg71
g307
sg64
(lp319
S':'
asbag57
(g78
g59
NtRp320
(dp321
g62
(dp322
sg71
g307
sg64
(lp323
g57
(g58
g59
NtRp324
(dp325
g62
(dp326
g70
I3
ssg71
g320
sg64
(lp327
S''
asbasbasbag57
(g73
g59
NtRp328
(dp329
g62
(dp330
sg71
g282
sg64
(lp331
g57
(g78
g59
NtRp332
(dp333
g62
(dp334
g82
g83
ssg71
g328
sg64
(lp335
S'expires'
p336
asbag57
(g78
g59
NtRp337
(dp338
g62
(dp339
g89
g90
ssg71
g328
sg64
(lp340
S':'
asbag57
(g78
g59
NtRp341
(dp342
g62
(dp343
sg71
g328
sg64
(lp344
g57
(g58
g59
NtRp345
(dp346
g62
(dp347
g70
I3
ssg71
g341
sg64
(lp348
S''
asbasbasbag57
(g73
g59
NtRp349
(dp350
g62
(dp351
sg71
g282
sg64
(lp352
g57
(g78
g59
NtRp353
(dp354
g62
(dp355
g82
g83
ssg71
g349
sg64
(lp356
S'httponly'
p357
asbag57
(g78
g59
NtRp358
(dp359
g62
(dp360
g89
g90
ssg71
g349
sg64
(lp361
S':'
asbag57
(g78
g59
NtRp362
(dp363
g62
(dp364
sg71
g349
sg64
(lp365
g57
(g58
g59
NtRp366
(dp367
g62
(dp368
g70
I3
ssg71
g362
sg64
(lp369
S''
asbasbasbag57
(g73
g59
NtRp370
(dp371
g62
(dp372
sg71
g282
sg64
(lp373
g57
(g78
g59
NtRp374
(dp375
g62
(dp376
g82
g83
ssg71
g370
sg64
(lp377
S'max-age'
p378
asbag57
(g78
g59
NtRp379
(dp380
g62
(dp381
g89
g90
ssg71
g370
sg64
(lp382
S':'
asbag57
(g78
g59
NtRp383
(dp384
g62
(dp385
sg71
g370
sg64
(lp386
g57
(g58
g59
NtRp387
(dp388
g62
(dp389
g70
I3
ssg71
g383
sg64
(lp390
S''
asbasbasbag57
(g73
g59
NtRp391
(dp392
g62
(dp393
sg71
g282
sg64
(lp394
g57
(g78
g59
NtRp395
(dp396
g62
(dp397
g82
g83
ssg71
g391
sg64
(lp398
S'path'
p399
asbag57
(g78
g59
NtRp400
(dp401
g62
(dp402
g89
g90
ssg71
g391
sg64
(lp403
S':'
asbag57
(g78
g59
NtRp404
(dp405
g62
(dp406
sg71
g391
sg64
(lp407
g57
(g58
g59
NtRp408
(dp409
g62
(dp410
g70
I3
ssg71
g404
sg64
(lp411
S''
asbasbasbag57
(g73
g59
NtRp412
(dp413
g62
(dp414
sg71
g282
sg64
(lp415
g57
(g78
g59
NtRp416
(dp417
g62
(dp418
g82
g83
ssg71
g412
sg64
(lp419
S'secure'
p420
asbag57
(g78
g59
NtRp421
(dp422
g62
(dp423
g89
g90
ssg71
g412
sg64
(lp424
S':'
asbag57
(g78
g59
NtRp425
(dp426
g62
(dp427
sg71
g412
sg64
(lp428
g57
(g58
g59
NtRp429
(dp430
g62
(dp431
g70
I3
ssg71
g425
sg64
(lp432
S''
asbasbasbag57
(g73
g59
NtRp433
(dp434
g62
(dp435
sg71
g282
sg64
(lp436
g57
(g78
g59
NtRp437
(dp438
g62
(dp439
g82
g83
ssg71
g433
sg64
(lp440
S'version'
p441
asbag57
(g78
g59
NtRp442
(dp443
g62
(dp444
g89
g90
ssg71
g433
sg64
(lp445
S':'
asbag57
(g78
g59
NtRp446
(dp447
g62
(dp448
sg71
g433
sg64
(lp449
g57
(g58
g59
NtRp450
(dp451
g62
(dp452
g70
I3
ssg71
g446
sg64
(lp453
S''
asbasbasbasbasbasbasbag57
(g73
g59
NtRp454
(dp455
g62
(dp456
sg71
g256
sg64
(lp457
g57
(g78
g59
NtRp458
(dp459
g62
(dp460
g82
g83
ssg71
g454
sg64
(lp461
S'session_id_admin'
p462
asbag57
(g78
g59
NtRp463
(dp464
g62
(dp465
g89
g90
ssg71
g454
sg64
(lp466
S':'
asbag57
(g78
g59
NtRp467
(dp468
g62
(dp469
sg71
g454
sg64
(lp470
g57
(g58
g59
NtRp471
(dp472
g62
(dp473
g70
I4
ssg71
g467
sg64
(lp474
S'127.0.0.1-e6c203e9-d008-4610-8523-5a0e93da9abb'
p475
ag57
(g66
g59
NtRp476
(dp477
g62
(dp478
g70
I3
ssg71
Nsg64
(lp479
g57
(g73
g59
NtRp480
(dp481
g62
(dp482
sg71
g476
sg64
(lp483
g57
(g78
g59
NtRp484
(dp485
g62
(dp486
g82
g83
ssg71
g480
sg64
(lp487
g294
asbag57
(g78
g59
NtRp488
(dp489
g62
(dp490
g89
g90
ssg71
g480
sg64
(lp491
S':'
asbag57
(g78
g59
NtRp492
(dp493
g62
(dp494
sg71
g480
sg64
(lp495
g57
(g58
g59
NtRp496
(dp497
g62
(dp498
g70
I3
ssg71
g492
sg64
(lp499
S''
asbasbasbag57
(g73
g59
NtRp500
(dp501
g62
(dp502
sg71
g476
sg64
(lp503
g57
(g78
g59
NtRp504
(dp505
g62
(dp506
g82
g83
ssg71
g500
sg64
(lp507
g315
asbag57
(g78
g59
NtRp508
(dp509
g62
(dp510
g89
g90
ssg71
g500
sg64
(lp511
S':'
asbag57
(g78
g59
NtRp512
(dp513
g62
(dp514
sg71
g500
sg64
(lp515
g57
(g58
g59
NtRp516
(dp517
g62
(dp518
g70
I3
ssg71
g512
sg64
(lp519
S''
asbasbasbag57
(g73
g59
NtRp520
(dp521
g62
(dp522
sg71
g476
sg64
(lp523
g57
(g78
g59
NtRp524
(dp525
g62
(dp526
g82
g83
ssg71
g520
sg64
(lp527
g336
asbag57
(g78
g59
NtRp528
(dp529
g62
(dp530
g89
g90
ssg71
g520
sg64
(lp531
S':'
asbag57
(g78
g59
NtRp532
(dp533
g62
(dp534
sg71
g520
sg64
(lp535
g57
(g58
g59
NtRp536
(dp537
g62
(dp538
g70
I3
ssg71
g532
sg64
(lp539
S''
asbasbasbag57
(g73
g59
NtRp540
(dp541
g62
(dp542
sg71
g476
sg64
(lp543
g57
(g78
g59
NtRp544
(dp545
g62
(dp546
g82
g83
ssg71
g540
sg64
(lp547
g357
asbag57
(g78
g59
NtRp548
(dp549
g62
(dp550
g89
g90
ssg71
g540
sg64
(lp551
S':'
asbag57
(g78
g59
NtRp552
(dp553
g62
(dp554
sg71
g540
sg64
(lp555
g57
(g58
g59
NtRp556
(dp557
g62
(dp558
g70
I3
ssg71
g552
sg64
(lp559
S''
asbasbasbag57
(g73
g59
NtRp560
(dp561
g62
(dp562
sg71
g476
sg64
(lp563
g57
(g78
g59
NtRp564
(dp565
g62
(dp566
g82
g83
ssg71
g560
sg64
(lp567
g378
asbag57
(g78
g59
NtRp568
(dp569
g62
(dp570
g89
g90
ssg71
g560
sg64
(lp571
S':'
asbag57
(g78
g59
NtRp572
(dp573
g62
(dp574
sg71
g560
sg64
(lp575
g57
(g58
g59
NtRp576
(dp577
g62
(dp578
g70
I3
ssg71
g572
sg64
(lp579
S''
asbasbasbag57
(g73
g59
NtRp580
(dp581
g62
(dp582
sg71
g476
sg64
(lp583
g57
(g78
g59
NtRp584
(dp585
g62
(dp586
g82
g83
ssg71
g580
sg64
(lp587
g399
asbag57
(g78
g59
NtRp588
(dp589
g62
(dp590
g89
g90
ssg71
g580
sg64
(lp591
S':'
asbag57
(g78
g59
NtRp592
(dp593
g62
(dp594
sg71
g580
sg64
(lp595
g57
(g58
g59
NtRp596
(dp597
g62
(dp598
g70
I3
ssg71
g592
sg64
(lp599
S''
asbasbasbag57
(g73
g59
NtRp600
(dp601
g62
(dp602
sg71
g476
sg64
(lp603
g57
(g78
g59
NtRp604
(dp605
g62
(dp606
g82
g83
ssg71
g600
sg64
(lp607
g420
asbag57
(g78
g59
NtRp608
(dp609
g62
(dp610
g89
g90
ssg71
g600
sg64
(lp611
S':'
asbag57
(g78
g59
NtRp612
(dp613
g62
(dp614
sg71
g600
sg64
(lp615
g57
(g58
g59
NtRp616
(dp617
g62
(dp618
g70
I3
ssg71
g612
sg64
(lp619
S''
asbasbasbag57
(g73
g59
NtRp620
(dp621
g62
(dp622
sg71
g476
sg64
(lp623
g57
(g78
g59
NtRp624
(dp625
g62
(dp626
g82
g83
ssg71
g620
sg64
(lp627
g441
asbag57
(g78
g59
NtRp628
(dp629
g62
(dp630
g89
g90
ssg71
g620
sg64
(lp631
S':'
asbag57
(g78
g59
NtRp632
(dp633
g62
(dp634
sg71
g620
sg64
(lp635
g57
(g58
g59
NtRp636
(dp637
g62
(dp638
g70
I3
ssg71
g632
sg64
(lp639
S''
asbasbasbasbasbasbasbag57
(g73
g59
NtRp640
(dp641
g62
(dp642
sg71
g256
sg64
(lp643
g57
(g78
g59
NtRp644
(dp645
g62
(dp646
g82
g83
ssg71
g640
sg64
(lp647
S'session_id_garbage_truck'
p648
asbag57
(g78
g59
NtRp649
(dp650
g62
(dp651
g89
g90
ssg71
g640
sg64
(lp652
S':'
asbag57
(g78
g59
NtRp653
(dp654
g62
(dp655
sg71
g640
sg64
(lp656
g57
(g58
g59
NtRp657
(dp658
g62
(dp659
g70
I4
ssg71
g653
sg64
(lp660
S'127.0.0.1-eb5e8630-3789-44cf-90c0-4c0a37fc535a'
p661
ag57
(g66
g59
NtRp662
(dp663
g62
(dp664
g70
I3
ssg71
Nsg64
(lp665
g57
(g73
g59
NtRp666
(dp667
g62
(dp668
sg71
g662
sg64
(lp669
g57
(g78
g59
NtRp670
(dp671
g62
(dp672
g82
g83
ssg71
g666
sg64
(lp673
g294
asbag57
(g78
g59
NtRp674
(dp675
g62
(dp676
g89
g90
ssg71
g666
sg64
(lp677
S':'
asbag57
(g78
g59
NtRp678
(dp679
g62
(dp680
sg71
g666
sg64
(lp681
g57
(g58
g59
NtRp682
(dp683
g62
(dp684
g70
I3
ssg71
g678
sg64
(lp685
S''
asbasbasbag57
(g73
g59
NtRp686
(dp687
g62
(dp688
sg71
g662
sg64
(lp689
g57
(g78
g59
NtRp690
(dp691
g62
(dp692
g82
g83
ssg71
g686
sg64
(lp693
g315
asbag57
(g78
g59
NtRp694
(dp695
g62
(dp696
g89
g90
ssg71
g686
sg64
(lp697
S':'
asbag57
(g78
g59
NtRp698
(dp699
g62
(dp700
sg71
g686
sg64
(lp701
g57
(g58
g59
NtRp702
(dp703
g62
(dp704
g70
I3
ssg71
g698
sg64
(lp705
S''
asbasbasbag57
(g73
g59
NtRp706
(dp707
g62
(dp708
sg71
g662
sg64
(lp709
g57
(g78
g59
NtRp710
(dp711
g62
(dp712
g82
g83
ssg71
g706
sg64
(lp713
g336
asbag57
(g78
g59
NtRp714
(dp715
g62
(dp716
g89
g90
ssg71
g706
sg64
(lp717
S':'
asbag57
(g78
g59
NtRp718
(dp719
g62
(dp720
sg71
g706
sg64
(lp721
g57
(g58
g59
NtRp722
(dp723
g62
(dp724
g70
I3
ssg71
g718
sg64
(lp725
S''
asbasbasbag57
(g73
g59
NtRp726
(dp727
g62
(dp728
sg71
g662
sg64
(lp729
g57
(g78
g59
NtRp730
(dp731
g62
(dp732
g82
g83
ssg71
g726
sg64
(lp733
g357
asbag57
(g78
g59
NtRp734
(dp735
g62
(dp736
g89
g90
ssg71
g726
sg64
(lp737
S':'
asbag57
(g78
g59
NtRp738
(dp739
g62
(dp740
sg71
g726
sg64
(lp741
g57
(g58
g59
NtRp742
(dp743
g62
(dp744
g70
I3
ssg71
g738
sg64
(lp745
S''
asbasbasbag57
(g73
g59
NtRp746
(dp747
g62
(dp748
sg71
g662
sg64
(lp749
g57
(g78
g59
NtRp750
(dp751
g62
(dp752
g82
g83
ssg71
g746
sg64
(lp753
g378
asbag57
(g78
g59
NtRp754
(dp755
g62
(dp756
g89
g90
ssg71
g746
sg64
(lp757
S':'
asbag57
(g78
g59
NtRp758
(dp759
g62
(dp760
sg71
g746
sg64
(lp761
g57
(g58
g59
NtRp762
(dp763
g62
(dp764
g70
I3
ssg71
g758
sg64
(lp765
S''
asbasbasbag57
(g73
g59
NtRp766
(dp767
g62
(dp768
sg71
g662
sg64
(lp769
g57
(g78
g59
NtRp770
(dp771
g62
(dp772
g82
g83
ssg71
g766
sg64
(lp773
g399
asbag57
(g78
g59
NtRp774
(dp775
g62
(dp776
g89
g90
ssg71
g766
sg64
(lp777
S':'
asbag57
(g78
g59
NtRp778
(dp779
g62
(dp780
sg71
g766
sg64
(lp781
g57
(g58
g59
NtRp782
(dp783
g62
(dp784
g70
I3
ssg71
g778
sg64
(lp785
S''
asbasbasbag57
(g73
g59
NtRp786
(dp787
g62
(dp788
sg71
g662
sg64
(lp789
g57
(g78
g59
NtRp790
(dp791
g62
(dp792
g82
g83
ssg71
g786
sg64
(lp793
g420
asbag57
(g78
g59
NtRp794
(dp795
g62
(dp796
g89
g90
ssg71
g786
sg64
(lp797
S':'
asbag57
(g78
g59
NtRp798
(dp799
g62
(dp800
sg71
g786
sg64
(lp801
g57
(g58
g59
NtRp802
(dp803
g62
(dp804
g70
I3
ssg71
g798
sg64
(lp805
S''
asbasbasbag57
(g73
g59
NtRp806
(dp807
g62
(dp808
sg71
g662
sg64
(lp809
g57
(g78
g59
NtRp810
(dp811
g62
(dp812
g82
g83
ssg71
g806
sg64
(lp813
g441
asbag57
(g78
g59
NtRp814
(dp815
g62
(dp816
g89
g90
ssg71
g806
sg64
(lp817
S':'
asbag57
(g78
g59
NtRp818
(dp819
g62
(dp820
sg71
g806
sg64
(lp821
g57
(g58
g59
NtRp822
(dp823
g62
(dp824
g70
I3
ssg71
g818
sg64
(lp825
S''
asbasbasbasbasbasbasbag57
(g73
g59
NtRp826
(dp827
g62
(dp828
sg71
g256
sg64
(lp829
g57
(g78
g59
NtRp830
(dp831
g62
(dp832
g82
g83
ssg71
g826
sg64
(lp833
S'session_id_isas'
p834
asbag57
(g78
g59
NtRp835
(dp836
g62
(dp837
g89
g90
ssg71
g826
sg64
(lp838
S':'
asbag57
(g78
g59
NtRp839
(dp840
g62
(dp841
sg71
g826
sg64
(lp842
g57
(g58
g59
NtRp843
(dp844
g62
(dp845
g70
I4
ssg71
g839
sg64
(lp846
S'127.0.0.1-46261fb6-868f-4eb5-ae61-7251ec9ac039'
p847
ag57
(g66
g59
NtRp848
(dp849
g62
(dp850
g70
I3
ssg71
Nsg64
(lp851
g57
(g73
g59
NtRp852
(dp853
g62
(dp854
sg71
g848
sg64
(lp855
g57
(g78
g59
NtRp856
(dp857
g62
(dp858
g82
g83
ssg71
g852
sg64
(lp859
g294
asbag57
(g78
g59
NtRp860
(dp861
g62
(dp862
g89
g90
ssg71
g852
sg64
(lp863
S':'
asbag57
(g78
g59
NtRp864
(dp865
g62
(dp866
sg71
g852
sg64
(lp867
g57
(g58
g59
NtRp868
(dp869
g62
(dp870
g70
I3
ssg71
g864
sg64
(lp871
S''
asbasbasbag57
(g73
g59
NtRp872
(dp873
g62
(dp874
sg71
g848
sg64
(lp875
g57
(g78
g59
NtRp876
(dp877
g62
(dp878
g82
g83
ssg71
g872
sg64
(lp879
g315
asbag57
(g78
g59
NtRp880
(dp881
g62
(dp882
g89
g90
ssg71
g872
sg64
(lp883
S':'
asbag57
(g78
g59
NtRp884
(dp885
g62
(dp886
sg71
g872
sg64
(lp887
g57
(g58
g59
NtRp888
(dp889
g62
(dp890
g70
I3
ssg71
g884
sg64
(lp891
S''
asbasbasbag57
(g73
g59
NtRp892
(dp893
g62
(dp894
sg71
g848
sg64
(lp895
g57
(g78
g59
NtRp896
(dp897
g62
(dp898
g82
g83
ssg71
g892
sg64
(lp899
g336
asbag57
(g78
g59
NtRp900
(dp901
g62
(dp902
g89
g90
ssg71
g892
sg64
(lp903
S':'
asbag57
(g78
g59
NtRp904
(dp905
g62
(dp906
sg71
g892
sg64
(lp907
g57
(g58
g59
NtRp908
(dp909
g62
(dp910
g70
I3
ssg71
g904
sg64
(lp911
S''
asbasbasbag57
(g73
g59
NtRp912
(dp913
g62
(dp914
sg71
g848
sg64
(lp915
g57
(g78
g59
NtRp916
(dp917
g62
(dp918
g82
g83
ssg71
g912
sg64
(lp919
g357
asbag57
(g78
g59
NtRp920
(dp921
g62
(dp922
g89
g90
ssg71
g912
sg64
(lp923
S':'
asbag57
(g78
g59
NtRp924
(dp925
g62
(dp926
sg71
g912
sg64
(lp927
g57
(g58
g59
NtRp928
(dp929
g62
(dp930
g70
I3
ssg71
g924
sg64
(lp931
S''
asbasbasbag57
(g73
g59
NtRp932
(dp933
g62
(dp934
sg71
g848
sg64
(lp935
g57
(g78
g59
NtRp936
(dp937
g62
(dp938
g82
g83
ssg71
g932
sg64
(lp939
g378
asbag57
(g78
g59
NtRp940
(dp941
g62
(dp942
g89
g90
ssg71
g932
sg64
(lp943
S':'
asbag57
(g78
g59
NtRp944
(dp945
g62
(dp946
sg71
g932
sg64
(lp947
g57
(g58
g59
NtRp948
(dp949
g62
(dp950
g70
I3
ssg71
g944
sg64
(lp951
S''
asbasbasbag57
(g73
g59
NtRp952
(dp953
g62
(dp954
sg71
g848
sg64
(lp955
g57
(g78
g59
NtRp956
(dp957
g62
(dp958
g82
g83
ssg71
g952
sg64
(lp959
g399
asbag57
(g78
g59
NtRp960
(dp961
g62
(dp962
g89
g90
ssg71
g952
sg64
(lp963
S':'
asbag57
(g78
g59
NtRp964
(dp965
g62
(dp966
sg71
g952
sg64
(lp967
g57
(g58
g59
NtRp968
(dp969
g62
(dp970
g70
I3
ssg71
g964
sg64
(lp971
S''
asbasbasbag57
(g73
g59
NtRp972
(dp973
g62
(dp974
sg71
g848
sg64
(lp975
g57
(g78
g59
NtRp976
(dp977
g62
(dp978
g82
g83
ssg71
g972
sg64
(lp979
g420
asbag57
(g78
g59
NtRp980
(dp981
g62
(dp982
g89
g90
ssg71
g972
sg64
(lp983
S':'
asbag57
(g78
g59
NtRp984
(dp985
g62
(dp986
sg71
g972
sg64
(lp987
g57
(g58
g59
NtRp988
(dp989
g62
(dp990
g70
I3
ssg71
g984
sg64
(lp991
S''
asbasbasbag57
(g73
g59
NtRp992
(dp993
g62
(dp994
sg71
g848
sg64
(lp995
g57
(g78
g59
NtRp996
(dp997
g62
(dp998
g82
g83
ssg71
g992
sg64
(lp999
g441
asbag57
(g78
g59
NtRp1000
(dp1001
g62
(dp1002
g89
g90
ssg71
g992
sg64
(lp1003
S':'
asbag57
(g78
g59
NtRp1004
(dp1005
g62
(dp1006
sg71
g992
sg64
(lp1007
g57
(g58
g59
NtRp1008
(dp1009
g62
(dp1010
g70
I3
ssg71
g1004
sg64
(lp1011
S''
asbasbasbasbasbasbasbag57
(g73
g59
NtRp1012
(dp1013
g62
(dp1014
sg71
g256
sg64
(lp1015
g57
(g78
g59
NtRp1016
(dp1017
g62
(dp1018
g82
g83
ssg71
g1012
sg64
(lp1019
S'session_id_readit'
p1020
asbag57
(g78
g59
NtRp1021
(dp1022
g62
(dp1023
g89
g90
ssg71
g1012
sg64
(lp1024
S':'
asbag57
(g78
g59
NtRp1025
(dp1026
g62
(dp1027
sg71
g1012
sg64
(lp1028
g57
(g58
g59
NtRp1029
(dp1030
g62
(dp1031
g70
I4
ssg71
g1025
sg64
(lp1032
S'127.0.0.1-e391c20a-8d22-4e6d-a1c8-f85c00f99b3d'
p1033
ag57
(g66
g59
NtRp1034
(dp1035
g62
(dp1036
g70
I3
ssg71
Nsg64
(lp1037
g57
(g73
g59
NtRp1038
(dp1039
g62
(dp1040
sg71
g1034
sg64
(lp1041
g57
(g78
g59
NtRp1042
(dp1043
g62
(dp1044
g82
g83
ssg71
g1038
sg64
(lp1045
g294
asbag57
(g78
g59
NtRp1046
(dp1047
g62
(dp1048
g89
g90
ssg71
g1038
sg64
(lp1049
S':'
asbag57
(g78
g59
NtRp1050
(dp1051
g62
(dp1052
sg71
g1038
sg64
(lp1053
g57
(g58
g59
NtRp1054
(dp1055
g62
(dp1056
g70
I3
ssg71
g1050
sg64
(lp1057
S''
asbasbasbag57
(g73
g59
NtRp1058
(dp1059
g62
(dp1060
sg71
g1034
sg64
(lp1061
g57
(g78
g59
NtRp1062
(dp1063
g62
(dp1064
g82
g83
ssg71
g1058
sg64
(lp1065
g315
asbag57
(g78
g59
NtRp1066
(dp1067
g62
(dp1068
g89
g90
ssg71
g1058
sg64
(lp1069
S':'
asbag57
(g78
g59
NtRp1070
(dp1071
g62
(dp1072
sg71
g1058
sg64
(lp1073
g57
(g58
g59
NtRp1074
(dp1075
g62
(dp1076
g70
I3
ssg71
g1070
sg64
(lp1077
S''
asbasbasbag57
(g73
g59
NtRp1078
(dp1079
g62
(dp1080
sg71
g1034
sg64
(lp1081
g57
(g78
g59
NtRp1082
(dp1083
g62
(dp1084
g82
g83
ssg71
g1078
sg64
(lp1085
g336
asbag57
(g78
g59
NtRp1086
(dp1087
g62
(dp1088
g89
g90
ssg71
g1078
sg64
(lp1089
S':'
asbag57
(g78
g59
NtRp1090
(dp1091
g62
(dp1092
sg71
g1078
sg64
(lp1093
g57
(g58
g59
NtRp1094
(dp1095
g62
(dp1096
g70
I3
ssg71
g1090
sg64
(lp1097
S''
asbasbasbag57
(g73
g59
NtRp1098
(dp1099
g62
(dp1100
sg71
g1034
sg64
(lp1101
g57
(g78
g59
NtRp1102
(dp1103
g62
(dp1104
g82
g83
ssg71
g1098
sg64
(lp1105
g357
asbag57
(g78
g59
NtRp1106
(dp1107
g62
(dp1108
g89
g90
ssg71
g1098
sg64
(lp1109
S':'
asbag57
(g78
g59
NtRp1110
(dp1111
g62
(dp1112
sg71
g1098
sg64
(lp1113
g57
(g58
g59
NtRp1114
(dp1115
g62
(dp1116
g70
I3
ssg71
g1110
sg64
(lp1117
S''
asbasbasbag57
(g73
g59
NtRp1118
(dp1119
g62
(dp1120
sg71
g1034
sg64
(lp1121
g57
(g78
g59
NtRp1122
(dp1123
g62
(dp1124
g82
g83
ssg71
g1118
sg64
(lp1125
g378
asbag57
(g78
g59
NtRp1126
(dp1127
g62
(dp1128
g89
g90
ssg71
g1118
sg64
(lp1129
S':'
asbag57
(g78
g59
NtRp1130
(dp1131
g62
(dp1132
sg71
g1118
sg64
(lp1133
g57
(g58
g59
NtRp1134
(dp1135
g62
(dp1136
g70
I3
ssg71
g1130
sg64
(lp1137
S''
asbasbasbag57
(g73
g59
NtRp1138
(dp1139
g62
(dp1140
sg71
g1034
sg64
(lp1141
g57
(g78
g59
NtRp1142
(dp1143
g62
(dp1144
g82
g83
ssg71
g1138
sg64
(lp1145
g399
asbag57
(g78
g59
NtRp1146
(dp1147
g62
(dp1148
g89
g90
ssg71
g1138
sg64
(lp1149
S':'
asbag57
(g78
g59
NtRp1150
(dp1151
g62
(dp1152
sg71
g1138
sg64
(lp1153
g57
(g58
g59
NtRp1154
(dp1155
g62
(dp1156
g70
I3
ssg71
g1150
sg64
(lp1157
S''
asbasbasbag57
(g73
g59
NtRp1158
(dp1159
g62
(dp1160
sg71
g1034
sg64
(lp1161
g57
(g78
g59
NtRp1162
(dp1163
g62
(dp1164
g82
g83
ssg71
g1158
sg64
(lp1165
g420
asbag57
(g78
g59
NtRp1166
(dp1167
g62
(dp1168
g89
g90
ssg71
g1158
sg64
(lp1169
S':'
asbag57
(g78
g59
NtRp1170
(dp1171
g62
(dp1172
sg71
g1158
sg64
(lp1173
g57
(g58
g59
NtRp1174
(dp1175
g62
(dp1176
g70
I3
ssg71
g1170
sg64
(lp1177
S''
asbasbasbag57
(g73
g59
NtRp1178
(dp1179
g62
(dp1180
sg71
g1034
sg64
(lp1181
g57
(g78
g59
NtRp1182
(dp1183
g62
(dp1184
g82
g83
ssg71
g1178
sg64
(lp1185
g441
asbag57
(g78
g59
NtRp1186
(dp1187
g62
(dp1188
g89
g90
ssg71
g1178
sg64
(lp1189
S':'
asbag57
(g78
g59
NtRp1190
(dp1191
g62
(dp1192
sg71
g1178
sg64
(lp1193
g57
(g58
g59
NtRp1194
(dp1195
g62
(dp1196
g70
I3
ssg71
g1190
sg64
(lp1197
S''
asbasbasbasbasbasbasbag57
(g73
g59
NtRp1198
(dp1199
g62
(dp1200
sg71
g256
sg64
(lp1201
g57
(g78
g59
NtRp1202
(dp1203
g62
(dp1204
g82
g83
ssg71
g1198
sg64
(lp1205
S'session_id_welcome'
p1206
asbag57
(g78
g59
NtRp1207
(dp1208
g62
(dp1209
g89
g90
ssg71
g1198
sg64
(lp1210
S':'
asbag57
(g78
g59
NtRp1211
(dp1212
g62
(dp1213
sg71
g1198
sg64
(lp1214
g57
(g58
g59
NtRp1215
(dp1216
g62
(dp1217
g70
I4
ssg71
g1211
sg64
(lp1218
S'127.0.0.1-2837c0cc-fb0c-4598-b75f-5727d328e2ad'
p1219
ag57
(g66
g59
NtRp1220
(dp1221
g62
(dp1222
g70
I3
ssg71
Nsg64
(lp1223
g57
(g73
g59
NtRp1224
(dp1225
g62
(dp1226
sg71
g1220
sg64
(lp1227
g57
(g78
g59
NtRp1228
(dp1229
g62
(dp1230
g82
g83
ssg71
g1224
sg64
(lp1231
g294
asbag57
(g78
g59
NtRp1232
(dp1233
g62
(dp1234
g89
g90
ssg71
g1224
sg64
(lp1235
S':'
asbag57
(g78
g59
NtRp1236
(dp1237
g62
(dp1238
sg71
g1224
sg64
(lp1239
g57
(g58
g59
NtRp1240
(dp1241
g62
(dp1242
g70
I3
ssg71
g1236
sg64
(lp1243
S''
asbasbasbag57
(g73
g59
NtRp1244
(dp1245
g62
(dp1246
sg71
g1220
sg64
(lp1247
g57
(g78
g59
NtRp1248
(dp1249
g62
(dp1250
g82
g83
ssg71
g1244
sg64
(lp1251
g315
asbag57
(g78
g59
NtRp1252
(dp1253
g62
(dp1254
g89
g90
ssg71
g1244
sg64
(lp1255
S':'
asbag57
(g78
g59
NtRp1256
(dp1257
g62
(dp1258
sg71
g1244
sg64
(lp1259
g57
(g58
g59
NtRp1260
(dp1261
g62
(dp1262
g70
I3
ssg71
g1256
sg64
(lp1263
S''
asbasbasbag57
(g73
g59
NtRp1264
(dp1265
g62
(dp1266
sg71
g1220
sg64
(lp1267
g57
(g78
g59
NtRp1268
(dp1269
g62
(dp1270
g82
g83
ssg71
g1264
sg64
(lp1271
g336
asbag57
(g78
g59
NtRp1272
(dp1273
g62
(dp1274
g89
g90
ssg71
g1264
sg64
(lp1275
S':'
asbag57
(g78
g59
NtRp1276
(dp1277
g62
(dp1278
sg71
g1264
sg64
(lp1279
g57
(g58
g59
NtRp1280
(dp1281
g62
(dp1282
g70
I3
ssg71
g1276
sg64
(lp1283
S''
asbasbasbag57
(g73
g59
NtRp1284
(dp1285
g62
(dp1286
sg71
g1220
sg64
(lp1287
g57
(g78
g59
NtRp1288
(dp1289
g62
(dp1290
g82
g83
ssg71
g1284
sg64
(lp1291
g357
asbag57
(g78
g59
NtRp1292
(dp1293
g62
(dp1294
g89
g90
ssg71
g1284
sg64
(lp1295
S':'
asbag57
(g78
g59
NtRp1296
(dp1297
g62
(dp1298
sg71
g1284
sg64
(lp1299
g57
(g58
g59
NtRp1300
(dp1301
g62
(dp1302
g70
I3
ssg71
g1296
sg64
(lp1303
S''
asbasbasbag57
(g73
g59
NtRp1304
(dp1305
g62
(dp1306
sg71
g1220
sg64
(lp1307
g57
(g78
g59
NtRp1308
(dp1309
g62
(dp1310
g82
g83
ssg71
g1304
sg64
(lp1311
g378
asbag57
(g78
g59
NtRp1312
(dp1313
g62
(dp1314
g89
g90
ssg71
g1304
sg64
(lp1315
S':'
asbag57
(g78
g59
NtRp1316
(dp1317
g62
(dp1318
sg71
g1304
sg64
(lp1319
g57
(g58
g59
NtRp1320
(dp1321
g62
(dp1322
g70
I3
ssg71
g1316
sg64
(lp1323
S''
asbasbasbag57
(g73
g59
NtRp1324
(dp1325
g62
(dp1326
sg71
g1220
sg64
(lp1327
g57
(g78
g59
NtRp1328
(dp1329
g62
(dp1330
g82
g83
ssg71
g1324
sg64
(lp1331
g399
asbag57
(g78
g59
NtRp1332
(dp1333
g62
(dp1334
g89
g90
ssg71
g1324
sg64
(lp1335
S':'
asbag57
(g78
g59
NtRp1336
(dp1337
g62
(dp1338
sg71
g1324
sg64
(lp1339
g57
(g58
g59
NtRp1340
(dp1341
g62
(dp1342
g70
I3
ssg71
g1336
sg64
(lp1343
S''
asbasbasbag57
(g73
g59
NtRp1344
(dp1345
g62
(dp1346
sg71
g1220
sg64
(lp1347
g57
(g78
g59
NtRp1348
(dp1349
g62
(dp1350
g82
g83
ssg71
g1344
sg64
(lp1351
g420
asbag57
(g78
g59
NtRp1352
(dp1353
g62
(dp1354
g89
g90
ssg71
g1344
sg64
(lp1355
S':'
asbag57
(g78
g59
NtRp1356
(dp1357
g62
(dp1358
sg71
g1344
sg64
(lp1359
g57
(g58
g59
NtRp1360
(dp1361
g62
(dp1362
g70
I3
ssg71
g1356
sg64
(lp1363
S''
asbasbasbag57
(g73
g59
NtRp1364
(dp1365
g62
(dp1366
sg71
g1220
sg64
(lp1367
g57
(g78
g59
NtRp1368
(dp1369
g62
(dp1370
g82
g83
ssg71
g1364
sg64
(lp1371
g441
asbag57
(g78
g59
NtRp1372
(dp1373
g62
(dp1374
g89
g90
ssg71
g1364
sg64
(lp1375
S':'
asbag57
(g78
g59
NtRp1376
(dp1377
g62
(dp1378
sg71
g1364
sg64
(lp1379
g57
(g58
g59
NtRp1380
(dp1381
g62
(dp1382
g70
I3
ssg71
g1376
sg64
(lp1383
S''
asbasbasbasbasbasbasbasbasbasbasbag57
(g73
g59
NtRp1384
(dp1385
g62
(dp1386
sg71
g67
sg64
(lp1387
g57
(g78
g59
NtRp1388
(dp1389
g62
(dp1390
g82
g83
ssg71
g1384
sg64
(lp1391
S'env'
p1392
asbag57
(g78
g59
NtRp1393
(dp1394
g62
(dp1395
g89
g90
ssg71
g1384
sg64
(lp1396
S':'
asbag57
(g78
g59
NtRp1397
(dp1398
g62
(dp1399
sg71
g1384
sg64
(lp1400
g57
(g58
g59
NtRp1401
(dp1402
g62
(dp1403
g70
I5
ssg71
g1397
sg64
(lp1404
g57
(g66
g59
NtRp1405
(dp1406
g62
(dp1407
g70
I4
ssg71
Nsg64
(lp1408
g57
(g73
g59
NtRp1409
(dp1410
g62
(dp1411
sg71
g1405
sg64
(lp1412
g57
(g78
g59
NtRp1413
(dp1414
g62
(dp1415
g82
g83
ssg71
g1409
sg64
(lp1416
S'app_folders'
p1417
asbag57
(g78
g59
NtRp1418
(dp1419
g62
(dp1420
g89
g90
ssg71
g1409
sg64
(lp1421
S':'
asbag57
(g78
g59
NtRp1422
(dp1423
g62
(dp1424
sg71
g1409
sg64
(lp1425
g57
(g58
g59
NtRp1426
(dp1427
g62
(dp1428
g70
I4
ssg71
g1422
sg64
(lp1429
S"set(['/home/darshan/web2py/applications/Isas/', '/home/darshan/web2py/applications/examples/', '/home/darshan/web2py/applications/readit/', '/home/darshan/web2py/applications/admin/', '/home/darshan/web2py/applications/Garbage_Truck/', '/home/darshan/web2py/applications/welcome/', '/home/darshan/web2py/applications/isas/'])"
p1430
asbasbasbag57
(g73
g59
NtRp1431
(dp1432
g62
(dp1433
sg71
g1405
sg64
(lp1434
g57
(g78
g59
NtRp1435
(dp1436
g62
(dp1437
g82
g83
ssg71
g1431
sg64
(lp1438
S'applications_parent'
p1439
asbag57
(g78
g59
NtRp1440
(dp1441
g62
(dp1442
g89
g90
ssg71
g1431
sg64
(lp1443
S':'
asbag57
(g78
g59
NtRp1444
(dp1445
g62
(dp1446
sg71
g1431
sg64
(lp1447
g57
(g58
g59
NtRp1448
(dp1449
g62
(dp1450
g70
I4
ssg71
g1444
sg64
(lp1451
S'/home/darshan/web2py'
p1452
asbasbasbag57
(g73
g59
NtRp1453
(dp1454
g62
(dp1455
sg71
g1405
sg64
(lp1456
g57
(g78
g59
NtRp1457
(dp1458
g62
(dp1459
g82
g83
ssg71
g1453
sg64
(lp1460
S'cmd_args'
p1461
asbag57
(g78
g59
NtRp1462
(dp1463
g62
(dp1464
g89
g90
ssg71
g1453
sg64
(lp1465
S':'
asbag57
(g78
g59
NtRp1466
(dp1467
g62
(dp1468
sg71
g1453
sg64
(lp1469
g57
(g58
g59
NtRp1470
(dp1471
g62
(dp1472
g70
I4
ssg71
g1466
sg64
(lp1473
g57
(g66
g59
NtRp1474
(dp1475
g62
(dp1476
g70
I3
ssg71
Nsg64
(lp1477
sbasbasbasbag57
(g73
g59
NtRp1478
(dp1479
g62
(dp1480
sg71
g1405
sg64
(lp1481
g57
(g78
g59
NtRp1482
(dp1483
g62
(dp1484
g82
g83
ssg71
g1478
sg64
(lp1485
S'cmd_options'
p1486
asbag57
(g78
g59
NtRp1487
(dp1488
g62
(dp1489
g89
g90
ssg71
g1478
sg64
(lp1490
S':'
asbag57
(g78
g59
NtRp1491
(dp1492
g62
(dp1493
sg71
g1478
sg64
(lp1494
g57
(g58
g59
NtRp1495
(dp1496
g62
(dp1497
g70
I4
ssg71
g1491
sg64
(lp1498
S"<Values at 0x7f92baaf7f80: {'verbose': False, 'ip': '127.0.0.1', 'with_scheduler': False, 'ips': [], 'shutdown_timeout': 5, 'taskbar': False, 'port': 8000, 'maxthreads': None, 'softcron': False, 'server_name': 'darshan-Inspiron-5520', 'bpython': False, 'nogui': False, 'pid_filename': 'httpserver.pid', 'extcron': False, 'runcron': False, 'run_system_tests': False, 'test': None, 'folder': '/home/darshan/web2py', 'config': '', 'minthreads': None, 'winservice': '', 'shell': None, 'run': '', 'log_filename': 'httpserver.log', 'debuglevel': 30, 'args': [''], 'socket_timeout': 5, 'ssl_ca_certificate': None, 'scheduler': None, 'profiler_filename': None, 'ssl_private_key': '', 'scheduler_groups': None, 'password': '<ask>', 'request_queue_size': 5, 'ssl_certificate': '', 'cronjob': False, 'numthreads': None, 'quiet': False, 'interfaces': None, 'import_models': False, 'timeout': 10, 'plain': False, 'nobanner': False}>"
p1499
asbasbasbag57
(g73
g59
NtRp1500
(dp1501
g62
(dp1502
sg71
g1405
sg64
(lp1503
g57
(g78
g59
NtRp1504
(dp1505
g62
(dp1506
g82
g83
ssg71
g1500
sg64
(lp1507
S'db_sessions'
p1508
asbag57
(g78
g59
NtRp1509
(dp1510
g62
(dp1511
g89
g90
ssg71
g1500
sg64
(lp1512
S':'
asbag57
(g78
g59
NtRp1513
(dp1514
g62
(dp1515
sg71
g1500
sg64
(lp1516
g57
(g58
g59
NtRp1517
(dp1518
g62
(dp1519
g70
I4
ssg71
g1513
sg64
(lp1520
S'set([])'
p1521
asbasbasbag57
(g73
g59
NtRp1522
(dp1523
g62
(dp1524
sg71
g1405
sg64
(lp1525
g57
(g78
g59
NtRp1526
(dp1527
g62
(dp1528
g82
g83
ssg71
g1522
sg64
(lp1529
S'debugging'
p1530
asbag57
(g78
g59
NtRp1531
(dp1532
g62
(dp1533
g89
g90
ssg71
g1522
sg64
(lp1534
S':'
asbag57
(g78
g59
NtRp1535
(dp1536
g62
(dp1537
sg71
g1522
sg64
(lp1538
g57
(g58
g59
NtRp1539
(dp1540
g62
(dp1541
g70
I4
ssg71
g1535
sg64
(lp1542
g100
asbasbasbag57
(g73
g59
NtRp1543
(dp1544
g62
(dp1545
sg71
g1405
sg64
(lp1546
g57
(g78
g59
NtRp1547
(dp1548
g62
(dp1549
g82
g83
ssg71
g1543
sg64
(lp1550
S'gluon_parent'
p1551
asbag57
(g78
g59
NtRp1552
(dp1553
g62
(dp1554
g89
g90
ssg71
g1543
sg64
(lp1555
S':'
asbag57
(g78
g59
NtRp1556
(dp1557
g62
(dp1558
sg71
g1543
sg64
(lp1559
g57
(g58
g59
NtRp1560
(dp1561
g62
(dp1562
g70
I4
ssg71
g1556
sg64
(lp1563
S'/home/darshan/web2py'
p1564
asbasbasbag57
(g73
g59
NtRp1565
(dp1566
g62
(dp1567
sg71
g1405
sg64
(lp1568
g57
(g78
g59
NtRp1569
(dp1570
g62
(dp1571
g82
g83
ssg71
g1565
sg64
(lp1572
S'http_accept'
p1573
asbag57
(g78
g59
NtRp1574
(dp1575
g62
(dp1576
g89
g90
ssg71
g1565
sg64
(lp1577
S':'
asbag57
(g78
g59
NtRp1578
(dp1579
g62
(dp1580
sg71
g1565
sg64
(lp1581
g57
(g58
g59
NtRp1582
(dp1583
g62
(dp1584
g70
I4
ssg71
g1578
sg64
(lp1585
S'text/html,application/xhtml+xml,application/xml;q=0.9,*/*;q=0.8'
p1586
asbasbasbag57
(g73
g59
NtRp1587
(dp1588
g62
(dp1589
sg71
g1405
sg64
(lp1590
g57
(g78
g59
NtRp1591
(dp1592
g62
(dp1593
g82
g83
ssg71
g1587
sg64
(lp1594
S'http_accept_encoding'
p1595
asbag57
(g78
g59
NtRp1596
(dp1597
g62
(dp1598
g89
g90
ssg71
g1587
sg64
(lp1599
S':'
asbag57
(g78
g59
NtRp1600
(dp1601
g62
(dp1602
sg71
g1587
sg64
(lp1603
g57
(g58
g59
NtRp1604
(dp1605
g62
(dp1606
g70
I4
ssg71
g1600
sg64
(lp1607
S'gzip, deflate'
p1608
asbasbasbag57
(g73
g59
NtRp1609
(dp1610
g62
(dp1611
sg71
g1405
sg64
(lp1612
g57
(g78
g59
NtRp1613
(dp1614
g62
(dp1615
g82
g83
ssg71
g1609
sg64
(lp1616
S'http_accept_language'
p1617
asbag57
(g78
g59
NtRp1618
(dp1619
g62
(dp1620
g89
g90
ssg71
g1609
sg64
(lp1621
S':'
asbag57
(g78
g59
NtRp1622
(dp1623
g62
(dp1624
sg71
g1609
sg64
(lp1625
g57
(g58
g59
NtRp1626
(dp1627
g62
(dp1628
g70
I4
ssg71
g1622
sg64
(lp1629
S'en-US,en;q=0.5'
p1630
asbasbasbag57
(g73
g59
NtRp1631
(dp1632
g62
(dp1633
sg71
g1405
sg64
(lp1634
g57
(g78
g59
NtRp1635
(dp1636
g62
(dp1637
g82
g83
ssg71
g1631
sg64
(lp1638
S'http_connection'
p1639
asbag57
(g78
g59
NtRp1640
(dp1641
g62
(dp1642
g89
g90
ssg71
g1631
sg64
(lp1643
S':'
asbag57
(g78
g59
NtRp1644
(dp1645
g62
(dp1646
sg71
g1631
sg64
(lp1647
g57
(g58
g59
NtRp1648
(dp1649
g62
(dp1650
g70
I4
ssg71
g1644
sg64
(lp1651
S'keep-alive'
p1652
asbasbasbag57
(g73
g59
NtRp1653
(dp1654
g62
(dp1655
sg71
g1405
sg64
(lp1656
g57
(g78
g59
NtRp1657
(dp1658
g62
(dp1659
g82
g83
ssg71
g1653
sg64
(lp1660
S'http_cookie'
p1661
asbag57
(g78
g59
NtRp1662
(dp1663
g62
(dp1664
g89
g90
ssg71
g1653
sg64
(lp1665
S':'
asbag57
(g78
g59
NtRp1666
(dp1667
g62
(dp1668
sg71
g1653
sg64
(lp1669
g57
(g58
g59
NtRp1670
(dp1671
g62
(dp1672
g70
I4
ssg71
g1666
sg64
(lp1673
S'csrftoken=a9lCt5w7Q4OG437IZNwjtNB3YEdWYXWm; session_id_admin=127.0.0.1-e6c203e9-d008-4610-8523-5a0e93da9abb; session_id_welcome=127.0.0.1-2837c0cc-fb0c-4598-b75f-5727d328e2ad; session_id_readit=127.0.0.1-e391c20a-8d22-4e6d-a1c8-f85c00f99b3d; session_id_isas=127.0.0.1-46261fb6-868f-4eb5-ae61-7251ec9ac039; session_id_garbage_truck=127.0.0.1-eb5e8630-3789-44cf-90c0-4c0a37fc535a'
p1674
asbasbasbag57
(g73
g59
NtRp1675
(dp1676
g62
(dp1677
sg71
g1405
sg64
(lp1678
g57
(g78
g59
NtRp1679
(dp1680
g62
(dp1681
g82
g83
ssg71
g1675
sg64
(lp1682
S'http_dnt'
p1683
asbag57
(g78
g59
NtRp1684
(dp1685
g62
(dp1686
g89
g90
ssg71
g1675
sg64
(lp1687
S':'
asbag57
(g78
g59
NtRp1688
(dp1689
g62
(dp1690
sg71
g1675
sg64
(lp1691
g57
(g58
g59
NtRp1692
(dp1693
g62
(dp1694
g70
I4
ssg71
g1688
sg64
(lp1695
S'1'
asbasbasbag57
(g73
g59
NtRp1696
(dp1697
g62
(dp1698
sg71
g1405
sg64
(lp1699
g57
(g78
g59
NtRp1700
(dp1701
g62
(dp1702
g82
g83
ssg71
g1696
sg64
(lp1703
S'http_host'
p1704
asbag57
(g78
g59
NtRp1705
(dp1706
g62
(dp1707
g89
g90
ssg71
g1696
sg64
(lp1708
S':'
asbag57
(g78
g59
NtRp1709
(dp1710
g62
(dp1711
sg71
g1696
sg64
(lp1712
g57
(g58
g59
NtRp1713
(dp1714
g62
(dp1715
g70
I4
ssg71
g1709
sg64
(lp1716
S'127.0.0.1:8000'
p1717
asbasbasbag57
(g73
g59
NtRp1718
(dp1719
g62
(dp1720
sg71
g1405
sg64
(lp1721
g57
(g78
g59
NtRp1722
(dp1723
g62
(dp1724
g82
g83
ssg71
g1718
sg64
(lp1725
S'http_referer'
p1726
asbag57
(g78
g59
NtRp1727
(dp1728
g62
(dp1729
g89
g90
ssg71
g1718
sg64
(lp1730
S':'
asbag57
(g78
g59
NtRp1731
(dp1732
g62
(dp1733
sg71
g1718
sg64
(lp1734
g57
(g58
g59
NtRp1735
(dp1736
g62
(dp1737
g70
I4
ssg71
g1731
sg64
(lp1738
S'http://127.0.0.1:8000/Garbage_Truck/default/ghmc_official'
p1739
asbasbasbag57
(g73
g59
NtRp1740
(dp1741
g62
(dp1742
sg71
g1405
sg64
(lp1743
g57
(g78
g59
NtRp1744
(dp1745
g62
(dp1746
g82
g83
ssg71
g1740
sg64
(lp1747
S'http_user_agent'
p1748
asbag57
(g78
g59
NtRp1749
(dp1750
g62
(dp1751
g89
g90
ssg71
g1740
sg64
(lp1752
S':'
asbag57
(g78
g59
NtRp1753
(dp1754
g62
(dp1755
sg71
g1740
sg64
(lp1756
g57
(g58
g59
NtRp1757
(dp1758
g62
(dp1759
g70
I4
ssg71
g1753
sg64
(lp1760
S'Mozilla/5.0 (X11; Ubuntu; Linux x86_64; rv:32.0) Gecko/20100101 Firefox/32.0'
p1761
asbasbasbag57
(g73
g59
NtRp1762
(dp1763
g62
(dp1764
sg71
g1405
sg64
(lp1765
g57
(g78
g59
NtRp1766
(dp1767
g62
(dp1768
g82
g83
ssg71
g1762
sg64
(lp1769
S'is_jython'
p1770
asbag57
(g78
g59
NtRp1771
(dp1772
g62
(dp1773
g89
g90
ssg71
g1762
sg64
(lp1774
S':'
asbag57
(g78
g59
NtRp1775
(dp1776
g62
(dp1777
sg71
g1762
sg64
(lp1778
g57
(g58
g59
NtRp1779
(dp1780
g62
(dp1781
g70
I4
ssg71
g1775
sg64
(lp1782
g100
asbasbasbag57
(g73
g59
NtRp1783
(dp1784
g62
(dp1785
sg71
g1405
sg64
(lp1786
g57
(g78
g59
NtRp1787
(dp1788
g62
(dp1789
g82
g83
ssg71
g1783
sg64
(lp1790
S'is_pypy'
p1791
asbag57
(g78
g59
NtRp1792
(dp1793
g62
(dp1794
g89
g90
ssg71
g1783
sg64
(lp1795
S':'
asbag57
(g78
g59
NtRp1796
(dp1797
g62
(dp1798
sg71
g1783
sg64
(lp1799
g57
(g58
g59
NtRp1800
(dp1801
g62
(dp1802
g70
I4
ssg71
g1796
sg64
(lp1803
g100
asbasbasbag57
(g73
g59
NtRp1804
(dp1805
g62
(dp1806
sg71
g1405
sg64
(lp1807
g57
(g78
g59
NtRp1808
(dp1809
g62
(dp1810
g82
g83
ssg71
g1804
sg64
(lp1811
S'local_hosts'
p1812
asbag57
(g78
g59
NtRp1813
(dp1814
g62
(dp1815
g89
g90
ssg71
g1804
sg64
(lp1816
S':'
asbag57
(g78
g59
NtRp1817
(dp1818
g62
(dp1819
sg71
g1804
sg64
(lp1820
g57
(g58
g59
NtRp1821
(dp1822
g62
(dp1823
g70
I4
ssg71
g1817
sg64
(lp1824
g57
(g66
g59
NtRp1825
(dp1826
g62
(dp1827
g70
I3
ssg71
Nsg64
(lp1828
g57
(g73
g59
NtRp1829
(dp1830
g62
(dp1831
sg71
g1825
sg64
(lp1832
g57
(g78
g59
NtRp1833
(dp1834
g62
(dp1835
sg71
g1829
sg64
(lp1836
g57
(g58
g59
NtRp1837
(dp1838
g62
(dp1839
g70
I3
ssg71
g1833
sg64
(lp1840
S'::1'
p1841
asbasbasbag57
(g73
g59
NtRp1842
(dp1843
g62
(dp1844
sg71
g1825
sg64
(lp1845
g57
(g78
g59
NtRp1846
(dp1847
g62
(dp1848
sg71
g1842
sg64
(lp1849
g57
(g58
g59
NtRp1850
(dp1851
g62
(dp1852
g70
I3
ssg71
g1846
sg64
(lp1853
S'127.0.1.1'
p1854
asbasbasbag57
(g73
g59
NtRp1855
(dp1856
g62
(dp1857
sg71
g1825
sg64
(lp1858
g57
(g78
g59
NtRp1859
(dp1860
g62
(dp1861
sg71
g1855
sg64
(lp1862
g57
(g58
g59
NtRp1863
(dp1864
g62
(dp1865
g70
I3
ssg71
g1859
sg64
(lp1866
S'darshan-Inspiron-5520'
p1867
asbasbasbag57
(g73
g59
NtRp1868
(dp1869
g62
(dp1870
sg71
g1825
sg64
(lp1871
g57
(g78
g59
NtRp1872
(dp1873
g62
(dp1874
sg71
g1868
sg64
(lp1875
g57
(g58
g59
NtRp1876
(dp1877
g62
(dp1878
g70
I3
ssg71
g1872
sg64
(lp1879
S'::ffff:127.0.0.1'
p1880
asbasbasbag57
(g73
g59
NtRp1881
(dp1882
g62
(dp1883
sg71
g1825
sg64
(lp1884
g57
(g78
g59
NtRp1885
(dp1886
g62
(dp1887
sg71
g1881
sg64
(lp1888
g57
(g58
g59
NtRp1889
(dp1890
g62
(dp1891
g70
I3
ssg71
g1885
sg64
(lp1892
S'127.0.0.1'
p1893
asbasbasbasbasbasbasbag57
(g73
g59
NtRp1894
(dp1895
g62
(dp1896
sg71
g1405
sg64
(lp1897
g57
(g78
g59
NtRp1898
(dp1899
g62
(dp1900
g82
g83
ssg71
g1894
sg64
(lp1901
S'path_info'
p1902
asbag57
(g78
g59
NtRp1903
(dp1904
g62
(dp1905
g89
g90
ssg71
g1894
sg64
(lp1906
S':'
asbag57
(g78
g59
NtRp1907
(dp1908
g62
(dp1909
sg71
g1894
sg64
(lp1910
g57
(g58
g59
NtRp1911
(dp1912
g62
(dp1913
g70
I4
ssg71
g1907
sg64
(lp1914
S'/Garbage_Truck/default/request_reservior_view'
p1915
asbasbasbag57
(g73
g59
NtRp1916
(dp1917
g62
(dp1918
sg71
g1405
sg64
(lp1919
g57
(g78
g59
NtRp1920
(dp1921
g62
(dp1922
g82
g83
ssg71
g1916
sg64
(lp1923
S'query_string'
p1924
asbag57
(g78
g59
NtRp1925
(dp1926
g62
(dp1927
g89
g90
ssg71
g1916
sg64
(lp1928
S':'
asbag57
(g78
g59
NtRp1929
(dp1930
g62
(dp1931
sg71
g1916
sg64
(lp1932
g57
(g58
g59
NtRp1933
(dp1934
g62
(dp1935
g70
I4
ssg71
g1929
sg64
(lp1936
S''
asbasbasbag57
(g73
g59
NtRp1937
(dp1938
g62
(dp1939
sg71
g1405
sg64
(lp1940
g57
(g78
g59
NtRp1941
(dp1942
g62
(dp1943
g82
g83
ssg71
g1937
sg64
(lp1944
S'remote_addr'
p1945
asbag57
(g78
g59
NtRp1946
(dp1947
g62
(dp1948
g89
g90
ssg71
g1937
sg64
(lp1949
S':'
asbag57
(g78
g59
NtRp1950
(dp1951
g62
(dp1952
sg71
g1937
sg64
(lp1953
g57
(g58
g59
NtRp1954
(dp1955
g62
(dp1956
g70
I4
ssg71
g1950
sg64
(lp1957
g212
asbasbasbag57
(g73
g59
NtRp1958
(dp1959
g62
(dp1960
sg71
g1405
sg64
(lp1961
g57
(g78
g59
NtRp1962
(dp1963
g62
(dp1964
g82
g83
ssg71
g1958
sg64
(lp1965
S'remote_port'
p1966
asbag57
(g78
g59
NtRp1967
(dp1968
g62
(dp1969
g89
g90
ssg71
g1958
sg64
(lp1970
S':'
asbag57
(g78
g59
NtRp1971
(dp1972
g62
(dp1973
sg71
g1958
sg64
(lp1974
g57
(g58
g59
NtRp1975
(dp1976
g62
(dp1977
g70
I4
ssg71
g1971
sg64
(lp1978
S'34713'
p1979
asbasbasbag57
(g73
g59
NtRp1980
(dp1981
g62
(dp1982
sg71
g1405
sg64
(lp1983
g57
(g78
g59
NtRp1984
(dp1985
g62
(dp1986
g82
g83
ssg71
g1980
sg64
(lp1987
S'request_method'
p1988
asbag57
(g78
g59
NtRp1989
(dp1990
g62
(dp1991
g89
g90
ssg71
g1980
sg64
(lp1992
S':'
asbag57
(g78
g59
NtRp1993
(dp1994
g62
(dp1995
sg71
g1980
sg64
(lp1996
g57
(g58
g59
NtRp1997
(dp1998
g62
(dp1999
g70
I4
ssg71
g1993
sg64
(lp2000
S'GET'
p2001
asbasbasbag57
(g73
g59
NtRp2002
(dp2003
g62
(dp2004
sg71
g1405
sg64
(lp2005
g57
(g78
g59
NtRp2006
(dp2007
g62
(dp2008
g82
g83
ssg71
g2002
sg64
(lp2009
S'request_uri'
p2010
asbag57
(g78
g59
NtRp2011
(dp2012
g62
(dp2013
g89
g90
ssg71
g2002
sg64
(lp2014
S':'
asbag57
(g78
g59
NtRp2015
(dp2016
g62
(dp2017
sg71
g2002
sg64
(lp2018
g57
(g58
g59
NtRp2019
(dp2020
g62
(dp2021
g70
I4
ssg71
g2015
sg64
(lp2022
g1915
asbasbasbag57
(g73
g59
NtRp2023
(dp2024
g62
(dp2025
sg71
g1405
sg64
(lp2026
g57
(g78
g59
NtRp2027
(dp2028
g62
(dp2029
g82
g83
ssg71
g2023
sg64
(lp2030
S'script_name'
p2031
asbag57
(g78
g59
NtRp2032
(dp2033
g62
(dp2034
g89
g90
ssg71
g2023
sg64
(lp2035
S':'
asbag57
(g78
g59
NtRp2036
(dp2037
g62
(dp2038
sg71
g2023
sg64
(lp2039
g57
(g58
g59
NtRp2040
(dp2041
g62
(dp2042
g70
I4
ssg71
g2036
sg64
(lp2043
S''
asbasbasbag57
(g73
g59
NtRp2044
(dp2045
g62
(dp2046
sg71
g1405
sg64
(lp2047
g57
(g78
g59
NtRp2048
(dp2049
g62
(dp2050
g82
g83
ssg71
g2044
sg64
(lp2051
S'server_name'
p2052
asbag57
(g78
g59
NtRp2053
(dp2054
g62
(dp2055
g89
g90
ssg71
g2044
sg64
(lp2056
S':'
asbag57
(g78
g59
NtRp2057
(dp2058
g62
(dp2059
sg71
g2044
sg64
(lp2060
g57
(g58
g59
NtRp2061
(dp2062
g62
(dp2063
g70
I4
ssg71
g2057
sg64
(lp2064
S'darshan-Inspiron-5520'
p2065
asbasbasbag57
(g73
g59
NtRp2066
(dp2067
g62
(dp2068
sg71
g1405
sg64
(lp2069
g57
(g78
g59
NtRp2070
(dp2071
g62
(dp2072
g82
g83
ssg71
g2066
sg64
(lp2073
S'server_port'
p2074
asbag57
(g78
g59
NtRp2075
(dp2076
g62
(dp2077
g89
g90
ssg71
g2066
sg64
(lp2078
S':'
asbag57
(g78
g59
NtRp2079
(dp2080
g62
(dp2081
sg71
g2066
sg64
(lp2082
g57
(g58
g59
NtRp2083
(dp2084
g62
(dp2085
g70
I4
ssg71
g2079
sg64
(lp2086
S'8000'
p2087
asbasbasbag57
(g73
g59
NtRp2088
(dp2089
g62
(dp2090
sg71
g1405
sg64
(lp2091
g57
(g78
g59
NtRp2092
(dp2093
g62
(dp2094
g82
g83
ssg71
g2088
sg64
(lp2095
S'server_protocol'
p2096
asbag57
(g78
g59
NtRp2097
(dp2098
g62
(dp2099
g89
g90
ssg71
g2088
sg64
(lp2100
S':'
asbag57
(g78
g59
NtRp2101
(dp2102
g62
(dp2103
sg71
g2088
sg64
(lp2104
g57
(g58
g59
NtRp2105
(dp2106
g62
(dp2107
g70
I4
ssg71
g2101
sg64
(lp2108
S'HTTP/1.1'
p2109
asbasbasbag57
(g73
g59
NtRp2110
(dp2111
g62
(dp2112
sg71
g1405
sg64
(lp2113
g57
(g78
g59
NtRp2114
(dp2115
g62
(dp2116
g82
g83
ssg71
g2110
sg64
(lp2117
S'server_software'
p2118
asbag57
(g78
g59
NtRp2119
(dp2120
g62
(dp2121
g89
g90
ssg71
g2110
sg64
(lp2122
S':'
asbag57
(g78
g59
NtRp2123
(dp2124
g62
(dp2125
sg71
g2110
sg64
(lp2126
g57
(g58
g59
NtRp2127
(dp2128
g62
(dp2129
g70
I4
ssg71
g2123
sg64
(lp2130
S'Rocket 1.2.6'
p2131
asbasbasbag57
(g73
g59
NtRp2132
(dp2133
g62
(dp2134
sg71
g1405
sg64
(lp2135
g57
(g78
g59
NtRp2136
(dp2137
g62
(dp2138
g82
g83
ssg71
g2132
sg64
(lp2139
S'web2py_path'
p2140
asbag57
(g78
g59
NtRp2141
(dp2142
g62
(dp2143
g89
g90
ssg71
g2132
sg64
(lp2144
S':'
asbag57
(g78
g59
NtRp2145
(dp2146
g62
(dp2147
sg71
g2132
sg64
(lp2148
g57
(g58
g59
NtRp2149
(dp2150
g62
(dp2151
g70
I4
ssg71
g2145
sg64
(lp2152
g1452
asbasbasbag57
(g73
g59
NtRp2153
(dp2154
g62
(dp2155
sg71
g1405
sg64
(lp2156
g57
(g78
g59
NtRp2157
(dp2158
g62
(dp2159
g82
g83
ssg71
g2153
sg64
(lp2160
S'web2py_version'
p2161
asbag57
(g78
g59
NtRp2162
(dp2163
g62
(dp2164
g89
g90
ssg71
g2153
sg64
(lp2165
S':'
asbag57
(g78
g59
NtRp2166
(dp2167
g62
(dp2168
sg71
g2153
sg64
(lp2169
g57
(g58
g59
NtRp2170
(dp2171
g62
(dp2172
g70
I4
ssg71
g2166
sg64
(lp2173
g57
(g66
g59
NtRp2174
(dp2175
g62
(dp2176
g70
I3
ssg71
Nsg64
(lp2177
g57
(g73
g59
NtRp2178
(dp2179
g62
(dp2180
sg71
g2174
sg64
(lp2181
g57
(g78
g59
NtRp2182
(dp2183
g62
(dp2184
sg71
g2178
sg64
(lp2185
g57
(g58
g59
NtRp2186
(dp2187
g62
(dp2188
g70
I3
ssg71
g2182
sg64
(lp2189
S'2'
asbasbasbag57
(g73
g59
NtRp2190
(dp2191
g62
(dp2192
sg71
g2174
sg64
(lp2193
g57
(g78
g59
NtRp2194
(dp2195
g62
(dp2196
sg71
g2190
sg64
(lp2197
g57
(g58
g59
NtRp2198
(dp2199
g62
(dp2200
g70
I3
ssg71
g2194
sg64
(lp2201
S'3'
asbasbasbag57
(g73
g59
NtRp2202
(dp2203
g62
(dp2204
sg71
g2174
sg64
(lp2205
g57
(g78
g59
NtRp2206
(dp2207
g62
(dp2208
sg71
g2202
sg64
(lp2209
g57
(g58
g59
NtRp2210
(dp2211
g62
(dp2212
g70
I3
ssg71
g2206
sg64
(lp2213
S'2'
asbasbasbag57
(g73
g59
NtRp2214
(dp2215
g62
(dp2216
sg71
g2174
sg64
(lp2217
g57
(g78
g59
NtRp2218
(dp2219
g62
(dp2220
sg71
g2214
sg64
(lp2221
g57
(g58
g59
NtRp2222
(dp2223
g62
(dp2224
g70
I3
ssg71
g2218
sg64
(lp2225
S'datetime.datetime(2012, 12, 17, 15, 3, 30)'
p2226
asbasbasbag57
(g73
g59
NtRp2227
(dp2228
g62
(dp2229
sg71
g2174
sg64
(lp2230
g57
(g78
g59
NtRp2231
(dp2232
g62
(dp2233
sg71
g2227
sg64
(lp2234
g57
(g58
g59
NtRp2235
(dp2236
g62
(dp2237
g70
I3
ssg71
g2231
sg64
(lp2238
S'stable'
p2239
asbasbasbasbasbasbasbag57
(g73
g59
NtRp2240
(dp2241
g62
(dp2242
sg71
g1405
sg64
(lp2243
g57
(g78
g59
NtRp2244
(dp2245
g62
(dp2246
g82
g83
ssg71
g2240
sg64
(lp2247
S'wsgi_errors'
p2248
asbag57
(g78
g59
NtRp2249
(dp2250
g62
(dp2251
g89
g90
ssg71
g2240
sg64
(lp2252
S':'
asbag57
(g78
g59
NtRp2253
(dp2254
g62
(dp2255
sg71
g2240
sg64
(lp2256
g57
(g58
g59
NtRp2257
(dp2258
g62
(dp2259
g70
I4
ssg71
g2253
sg64
(lp2260
S"<open file '<stderr>', mode 'w' at 0x7f92c1bb41e0>"
p2261
asbasbasbag57
(g73
g59
NtRp2262
(dp2263
g62
(dp2264
sg71
g1405
sg64
(lp2265
g57
(g78
g59
NtRp2266
(dp2267
g62
(dp2268
g82
g83
ssg71
g2262
sg64
(lp2269
S'wsgi_file_wrapper'
p2270
asbag57
(g78
g59
NtRp2271
(dp2272
g62
(dp2273
g89
g90
ssg71
g2262
sg64
(lp2274
S':'
asbag57
(g78
g59
NtRp2275
(dp2276
g62
(dp2277
sg71
g2262
sg64
(lp2278
g57
(g58
g59
NtRp2279
(dp2280
g62
(dp2281
g70
I4
ssg71
g2275
sg64
(lp2282
S'<class wsgiref.util.FileWrapper at 0x7f92bab98808>'
p2283
asbasbasbag57
(g73
g59
NtRp2284
(dp2285
g62
(dp2286
sg71
g1405
sg64
(lp2287
g57
(g78
g59
NtRp2288
(dp2289
g62
(dp2290
g82
g83
ssg71
g2284
sg64
(lp2291
S'wsgi_input'
p2292
asbag57
(g78
g59
NtRp2293
(dp2294
g62
(dp2295
g89
g90
ssg71
g2284
sg64
(lp2296
S':'
asbag57
(g78
g59
NtRp2297
(dp2298
g62
(dp2299
sg71
g2284
sg64
(lp2300
g57
(g58
g59
NtRp2301
(dp2302
g62
(dp2303
g70
I4
ssg71
g2297
sg64
(lp2304
S'<socket._fileobject object at 0x7f92a8412cd0>'
p2305
asbasbasbag57
(g73
g59
NtRp2306
(dp2307
g62
(dp2308
sg71
g1405
sg64
(lp2309
g57
(g78
g59
NtRp2310
(dp2311
g62
(dp2312
g82
g83
ssg71
g2306
sg64
(lp2313
S'wsgi_multiprocess'
p2314
asbag57
(g78
g59
NtRp2315
(dp2316
g62
(dp2317
g89
g90
ssg71
g2306
sg64
(lp2318
S':'
asbag57
(g78
g59
NtRp2319
(dp2320
g62
(dp2321
sg71
g2306
sg64
(lp2322
g57
(g58
g59
NtRp2323
(dp2324
g62
(dp2325
g70
I4
ssg71
g2319
sg64
(lp2326
g100
asbasbasbag57
(g73
g59
NtRp2327
(dp2328
g62
(dp2329
sg71
g1405
sg64
(lp2330
g57
(g78
g59
NtRp2331
(dp2332
g62
(dp2333
g82
g83
ssg71
g2327
sg64
(lp2334
S'wsgi_multithread'
p2335
asbag57
(g78
g59
NtRp2336
(dp2337
g62
(dp2338
g89
g90
ssg71
g2327
sg64
(lp2339
S':'
asbag57
(g78
g59
NtRp2340
(dp2341
g62
(dp2342
sg71
g2327
sg64
(lp2343
g57
(g58
g59
NtRp2344
(dp2345
g62
(dp2346
g70
I4
ssg71
g2340
sg64
(lp2347
S'True'
p2348
asbasbasbag57
(g73
g59
NtRp2349
(dp2350
g62
(dp2351
sg71
g1405
sg64
(lp2352
g57
(g78
g59
NtRp2353
(dp2354
g62
(dp2355
g82
g83
ssg71
g2349
sg64
(lp2356
S'wsgi_run_once'
p2357
asbag57
(g78
g59
NtRp2358
(dp2359
g62
(dp2360
g89
g90
ssg71
g2349
sg64
(lp2361
S':'
asbag57
(g78
g59
NtRp2362
(dp2363
g62
(dp2364
sg71
g2349
sg64
(lp2365
g57
(g58
g59
NtRp2366
(dp2367
g62
(dp2368
g70
I4
ssg71
g2362
sg64
(lp2369
g100
asbasbasbag57
(g73
g59
NtRp2370
(dp2371
g62
(dp2372
sg71
g1405
sg64
(lp2373
g57
(g78
g59
NtRp2374
(dp2375
g62
(dp2376
g82
g83
ssg71
g2370
sg64
(lp2377
S'wsgi_url_scheme'
p2378
asbag57
(g78
g59
NtRp2379
(dp2380
g62
(dp2381
g89
g90
ssg71
g2370
sg64
(lp2382
S':'
asbag57
(g78
g59
NtRp2383
(dp2384
g62
(dp2385
sg71
g2370
sg64
(lp2386
g57
(g58
g59
NtRp2387
(dp2388
g62
(dp2389
g70
I4
ssg71
g2383
sg64
(lp2390
S'http'
p2391
asbasbasbag57
(g73
g59
NtRp2392
(dp2393
g62
(dp2394
sg71
g1405
sg64
(lp2395
g57
(g78
g59
NtRp2396
(dp2397
g62
(dp2398
g82
g83
ssg71
g2392
sg64
(lp2399
S'wsgi_version'
p2400
asbag57
(g78
g59
NtRp2401
(dp2402
g62
(dp2403
g89
g90
ssg71
g2392
sg64
(lp2404
S':'
asbag57
(g78
g59
NtRp2405
(dp2406
g62
(dp2407
sg71
g2392
sg64
(lp2408
g57
(g58
g59
NtRp2409
(dp2410
g62
(dp2411
g70
I4
ssg71
g2405
sg64
(lp2412
g57
(g66
g59
NtRp2413
(dp2414
g62
(dp2415
g70
I3
ssg71
Nsg64
(lp2416
g57
(g73
g59
NtRp2417
(dp2418
g62
(dp2419
sg71
g2413
sg64
(lp2420
g57
(g78
g59
NtRp2421
(dp2422
g62
(dp2423
sg71
g2417
sg64
(lp2424
g57
(g58
g59
NtRp2425
(dp2426
g62
(dp2427
g70
I3
ssg71
g2421
sg64
(lp2428
S'1'
asbasbasbag57
(g73
g59
NtRp2429
(dp2430
g62
(dp2431
sg71
g2413
sg64
(lp2432
g57
(g78
g59
NtRp2433
(dp2434
g62
(dp2435
sg71
g2429
sg64
(lp2436
g57
(g58
g59
NtRp2437
(dp2438
g62
(dp2439
g70
I3
ssg71
g2433
sg64
(lp2440
S'0'
asbasbasbasbasbasbasbasbasbasbasbag57
(g73
g59
NtRp2441
(dp2442
g62
(dp2443
sg71
g67
sg64
(lp2444
g57
(g78
g59
NtRp2445
(dp2446
g62
(dp2447
g82
g83
ssg71
g2441
sg64
(lp2448
S'extension'
p2449
asbag57
(g78
g59
NtRp2450
(dp2451
g62
(dp2452
g89
g90
ssg71
g2441
sg64
(lp2453
S':'
asbag57
(g78
g59
NtRp2454
(dp2455
g62
(dp2456
sg71
g2441
sg64
(lp2457
g57
(g58
g59
NtRp2458
(dp2459
g62
(dp2460
g70
I5
ssg71
g2454
sg64
(lp2461
S'html'
p2462
asbasbasbag57
(g73
g59
NtRp2463
(dp2464
g62
(dp2465
sg71
g67
sg64
(lp2466
g57
(g78
g59
NtRp2467
(dp2468
g62
(dp2469
g82
g83
ssg71
g2463
sg64
(lp2470
S'folder'
p2471
asbag57
(g78
g59
NtRp2472
(dp2473
g62
(dp2474
g89
g90
ssg71
g2463
sg64
(lp2475
S':'
asbag57
(g78
g59
NtRp2476
(dp2477
g62
(dp2478
sg71
g2463
sg64
(lp2479
g57
(g58
g59
NtRp2480
(dp2481
g62
(dp2482
g70
I5
ssg71
g2476
sg64
(lp2483
S'/home/darshan/web2py/applications/Garbage_Truck/'
p2484
asbasbasbag57
(g73
g59
NtRp2485
(dp2486
g62
(dp2487
sg71
g67
sg64
(lp2488
g57
(g78
g59
NtRp2489
(dp2490
g62
(dp2491
g82
g83
ssg71
g2485
sg64
(lp2492
S'function'
p2493
asbag57
(g78
g59
NtRp2494
(dp2495
g62
(dp2496
g89
g90
ssg71
g2485
sg64
(lp2497
S':'
asbag57
(g78
g59
NtRp2498
(dp2499
g62
(dp2500
sg71
g2485
sg64
(lp2501
g57
(g58
g59
NtRp2502
(dp2503
g62
(dp2504
g70
I5
ssg71
g2498
sg64
(lp2505
S'request_reservior_view'
p2506
asbasbasbag57
(g73
g59
NtRp2507
(dp2508
g62
(dp2509
sg71
g67
sg64
(lp2510
g57
(g78
g59
NtRp2511
(dp2512
g62
(dp2513
g82
g83
ssg71
g2507
sg64
(lp2514
S'get_vars'
p2515
asbag57
(g78
g59
NtRp2516
(dp2517
g62
(dp2518
g89
g90
ssg71
g2507
sg64
(lp2519
S':'
asbag57
(g78
g59
NtRp2520
(dp2521
g62
(dp2522
sg71
g2507
sg64
(lp2523
g57
(g58
g59
NtRp2524
(dp2525
g62
(dp2526
g70
I5
ssg71
g2520
sg64
(lp2527
g57
(g66
g59
NtRp2528
(dp2529
g62
(dp2530
g70
I4
ssg71
Nsg64
(lp2531
sbasbasbasbag57
(g73
g59
NtRp2532
(dp2533
g62
(dp2534
sg71
g67
sg64
(lp2535
g57
(g78
g59
NtRp2536
(dp2537
g62
(dp2538
g82
g83
ssg71
g2532
sg64
(lp2539
S'global_settings'
p2540
asbag57
(g78
g59
NtRp2541
(dp2542
g62
(dp2543
g89
g90
ssg71
g2532
sg64
(lp2544
S':'
asbag57
(g78
g59
NtRp2545
(dp2546
g62
(dp2547
sg71
g2532
sg64
(lp2548
g57
(g58
g59
NtRp2549
(dp2550
g62
(dp2551
g70
I5
ssg71
g2545
sg64
(lp2552
g57
(g66
g59
NtRp2553
(dp2554
g62
(dp2555
g70
I4
ssg71
Nsg64
(lp2556
g57
(g73
g59
NtRp2557
(dp2558
g62
(dp2559
sg71
g2553
sg64
(lp2560
g57
(g78
g59
NtRp2561
(dp2562
g62
(dp2563
g82
g83
ssg71
g2557
sg64
(lp2564
g1417
asbag57
(g78
g59
NtRp2565
(dp2566
g62
(dp2567
g89
g90
ssg71
g2557
sg64
(lp2568
S':'
asbag57
(g78
g59
NtRp2569
(dp2570
g62
(dp2571
sg71
g2557
sg64
(lp2572
g57
(g58
g59
NtRp2573
(dp2574
g62
(dp2575
g70
I4
ssg71
g2569
sg64
(lp2576
S"set(['/home/darshan/web2py/applications/Isas/', '/home/darshan/web2py/applications/examples/', '/home/darshan/web2py/applications/readit/', '/home/darshan/web2py/applications/admin/', '/home/darshan/web2py/applications/Garbage_Truck/', '/home/darshan/web2py/applications/welcome/', '/home/darshan/web2py/applications/isas/'])"
p2577
asbasbasbag57
(g73
g59
NtRp2578
(dp2579
g62
(dp2580
sg71
g2553
sg64
(lp2581
g57
(g78
g59
NtRp2582
(dp2583
g62
(dp2584
g82
g83
ssg71
g2578
sg64
(lp2585
g1439
asbag57
(g78
g59
NtRp2586
(dp2587
g62
(dp2588
g89
g90
ssg71
g2578
sg64
(lp2589
S':'
asbag57
(g78
g59
NtRp2590
(dp2591
g62
(dp2592
sg71
g2578
sg64
(lp2593
g57
(g58
g59
NtRp2594
(dp2595
g62
(dp2596
g70
I4
ssg71
g2590
sg64
(lp2597
g1452
asbasbasbag57
(g73
g59
NtRp2598
(dp2599
g62
(dp2600
sg71
g2553
sg64
(lp2601
g57
(g78
g59
NtRp2602
(dp2603
g62
(dp2604
g82
g83
ssg71
g2598
sg64
(lp2605
g1461
asbag57
(g78
g59
NtRp2606
(dp2607
g62
(dp2608
g89
g90
ssg71
g2598
sg64
(lp2609
S':'
asbag57
(g78
g59
NtRp2610
(dp2611
g62
(dp2612
sg71
g2598
sg64
(lp2613
g57
(g58
g59
NtRp2614
(dp2615
g62
(dp2616
g70
I4
ssg71
g2610
sg64
(lp2617
g57
(g66
g59
NtRp2618
(dp2619
g62
(dp2620
g70
I3
ssg71
Nsg64
(lp2621
sbasbasbasbag57
(g73
g59
NtRp2622
(dp2623
g62
(dp2624
sg71
g2553
sg64
(lp2625
g57
(g78
g59
NtRp2626
(dp2627
g62
(dp2628
g82
g83
ssg71
g2622
sg64
(lp2629
g1486
asbag57
(g78
g59
NtRp2630
(dp2631
g62
(dp2632
g89
g90
ssg71
g2622
sg64
(lp2633
S':'
asbag57
(g78
g59
NtRp2634
(dp2635
g62
(dp2636
sg71
g2622
sg64
(lp2637
g57
(g58
g59
NtRp2638
(dp2639
g62
(dp2640
g70
I4
ssg71
g2634
sg64
(lp2641
S"<Values at 0x7f92baaf7f80: {'verbose': False, 'ip': '127.0.0.1', 'with_scheduler': False, 'ips': [], 'shutdown_timeout': 5, 'taskbar': False, 'port': 8000, 'maxthreads': None, 'softcron': False, 'server_name': 'darshan-Inspiron-5520', 'bpython': False, 'nogui': False, 'pid_filename': 'httpserver.pid', 'extcron': False, 'runcron': False, 'run_system_tests': False, 'test': None, 'folder': '/home/darshan/web2py', 'config': '', 'minthreads': None, 'winservice': '', 'shell': None, 'run': '', 'log_filename': 'httpserver.log', 'debuglevel': 30, 'args': [''], 'socket_timeout': 5, 'ssl_ca_certificate': None, 'scheduler': None, 'profiler_filename': None, 'ssl_private_key': '', 'scheduler_groups': None, 'password': '<ask>', 'request_queue_size': 5, 'ssl_certificate': '', 'cronjob': False, 'numthreads': None, 'quiet': False, 'interfaces': None, 'import_models': False, 'timeout': 10, 'plain': False, 'nobanner': False}>"
p2642
asbasbasbag57
(g73
g59
NtRp2643
(dp2644
g62
(dp2645
sg71
g2553
sg64
(lp2646
g57
(g78
g59
NtRp2647
(dp2648
g62
(dp2649
g82
g83
ssg71
g2643
sg64
(lp2650
g1508
asbag57
(g78
g59
NtRp2651
(dp2652
g62
(dp2653
g89
g90
ssg71
g2643
sg64
(lp2654
S':'
asbag57
(g78
g59
NtRp2655
(dp2656
g62
(dp2657
sg71
g2643
sg64
(lp2658
g57
(g58
g59
NtRp2659
(dp2660
g62
(dp2661
g70
I4
ssg71
g2655
sg64
(lp2662
S'set([])'
p2663
asbasbasbag57
(g73
g59
NtRp2664
(dp2665
g62
(dp2666
sg71
g2553
sg64
(lp2667
g57
(g78
g59
NtRp2668
(dp2669
g62
(dp2670
g82
g83
ssg71
g2664
sg64
(lp2671
g1530
asbag57
(g78
g59
NtRp2672
(dp2673
g62
(dp2674
g89
g90
ssg71
g2664
sg64
(lp2675
S':'
asbag57
(g78
g59
NtRp2676
(dp2677
g62
(dp2678
sg71
g2664
sg64
(lp2679
g57
(g58
g59
NtRp2680
(dp2681
g62
(dp2682
g70
I4
ssg71
g2676
sg64
(lp2683
g100
asbasbasbag57
(g73
g59
NtRp2684
(dp2685
g62
(dp2686
sg71
g2553
sg64
(lp2687
g57
(g78
g59
NtRp2688
(dp2689
g62
(dp2690
g82
g83
ssg71
g2684
sg64
(lp2691
g1551
asbag57
(g78
g59
NtRp2692
(dp2693
g62
(dp2694
g89
g90
ssg71
g2684
sg64
(lp2695
S':'
asbag57
(g78
g59
NtRp2696
(dp2697
g62
(dp2698
sg71
g2684
sg64
(lp2699
g57
(g58
g59
NtRp2700
(dp2701
g62
(dp2702
g70
I4
ssg71
g2696
sg64
(lp2703
g1564
asbasbasbag57
(g73
g59
NtRp2704
(dp2705
g62
(dp2706
sg71
g2553
sg64
(lp2707
g57
(g78
g59
NtRp2708
(dp2709
g62
(dp2710
g82
g83
ssg71
g2704
sg64
(lp2711
g1770
asbag57
(g78
g59
NtRp2712
(dp2713
g62
(dp2714
g89
g90
ssg71
g2704
sg64
(lp2715
S':'
asbag57
(g78
g59
NtRp2716
(dp2717
g62
(dp2718
sg71
g2704
sg64
(lp2719
g57
(g58
g59
NtRp2720
(dp2721
g62
(dp2722
g70
I4
ssg71
g2716
sg64
(lp2723
g100
asbasbasbag57
(g73
g59
NtRp2724
(dp2725
g62
(dp2726
sg71
g2553
sg64
(lp2727
g57
(g78
g59
NtRp2728
(dp2729
g62
(dp2730
g82
g83
ssg71
g2724
sg64
(lp2731
g1791
asbag57
(g78
g59
NtRp2732
(dp2733
g62
(dp2734
g89
g90
ssg71
g2724
sg64
(lp2735
S':'
asbag57
(g78
g59
NtRp2736
(dp2737
g62
(dp2738
sg71
g2724
sg64
(lp2739
g57
(g58
g59
NtRp2740
(dp2741
g62
(dp2742
g70
I4
ssg71
g2736
sg64
(lp2743
g100
asbasbasbag57
(g73
g59
NtRp2744
(dp2745
g62
(dp2746
sg71
g2553
sg64
(lp2747
g57
(g78
g59
NtRp2748
(dp2749
g62
(dp2750
g82
g83
ssg71
g2744
sg64
(lp2751
g1812
asbag57
(g78
g59
NtRp2752
(dp2753
g62
(dp2754
g89
g90
ssg71
g2744
sg64
(lp2755
S':'
asbag57
(g78
g59
NtRp2756
(dp2757
g62
(dp2758
sg71
g2744
sg64
(lp2759
g57
(g58
g59
NtRp2760
(dp2761
g62
(dp2762
g70
I4
ssg71
g2756
sg64
(lp2763
g57
(g66
g59
NtRp2764
(dp2765
g62
(dp2766
g70
I3
ssg71
Nsg64
(lp2767
g57
(g73
g59
NtRp2768
(dp2769
g62
(dp2770
sg71
g2764
sg64
(lp2771
g57
(g78
g59
NtRp2772
(dp2773
g62
(dp2774
sg71
g2768
sg64
(lp2775
g57
(g58
g59
NtRp2776
(dp2777
g62
(dp2778
g70
I3
ssg71
g2772
sg64
(lp2779
g1841
asbasbasbag57
(g73
g59
NtRp2780
(dp2781
g62
(dp2782
sg71
g2764
sg64
(lp2783
g57
(g78
g59
NtRp2784
(dp2785
g62
(dp2786
sg71
g2780
sg64
(lp2787
g57
(g58
g59
NtRp2788
(dp2789
g62
(dp2790
g70
I3
ssg71
g2784
sg64
(lp2791
g1854
asbasbasbag57
(g73
g59
NtRp2792
(dp2793
g62
(dp2794
sg71
g2764
sg64
(lp2795
g57
(g78
g59
NtRp2796
(dp2797
g62
(dp2798
sg71
g2792
sg64
(lp2799
g57
(g58
g59
NtRp2800
(dp2801
g62
(dp2802
g70
I3
ssg71
g2796
sg64
(lp2803
g1867
asbasbasbag57
(g73
g59
NtRp2804
(dp2805
g62
(dp2806
sg71
g2764
sg64
(lp2807
g57
(g78
g59
NtRp2808
(dp2809
g62
(dp2810
sg71
g2804
sg64
(lp2811
g57
(g58
g59
NtRp2812
(dp2813
g62
(dp2814
g70
I3
ssg71
g2808
sg64
(lp2815
g1880
asbasbasbag57
(g73
g59
NtRp2816
(dp2817
g62
(dp2818
sg71
g2764
sg64
(lp2819
g57
(g78
g59
NtRp2820
(dp2821
g62
(dp2822
sg71
g2816
sg64
(lp2823
g57
(g58
g59
NtRp2824
(dp2825
g62
(dp2826
g70
I3
ssg71
g2820
sg64
(lp2827
g1893
asbasbasbasbasbasbasbag57
(g73
g59
NtRp2828
(dp2829
g62
(dp2830
sg71
g2553
sg64
(lp2831
g57
(g78
g59
NtRp2832
(dp2833
g62
(dp2834
g82
g83
ssg71
g2828
sg64
(lp2835
g2161
asbag57
(g78
g59
NtRp2836
(dp2837
g62
(dp2838
g89
g90
ssg71
g2828
sg64
(lp2839
S':'
asbag57
(g78
g59
NtRp2840
(dp2841
g62
(dp2842
sg71
g2828
sg64
(lp2843
g57
(g58
g59
NtRp2844
(dp2845
g62
(dp2846
g70
I4
ssg71
g2840
sg64
(lp2847
g57
(g66
g59
NtRp2848
(dp2849
g62
(dp2850
g70
I3
ssg71
Nsg64
(lp2851
g57
(g73
g59
NtRp2852
(dp2853
g62
(dp2854
sg71
g2848
sg64
(lp2855
g57
(g78
g59
NtRp2856
(dp2857
g62
(dp2858
sg71
g2852
sg64
(lp2859
g57
(g58
g59
NtRp2860
(dp2861
g62
(dp2862
g70
I3
ssg71
g2856
sg64
(lp2863
S'2'
asbasbasbag57
(g73
g59
NtRp2864
(dp2865
g62
(dp2866
sg71
g2848
sg64
(lp2867
g57
(g78
g59
NtRp2868
(dp2869
g62
(dp2870
sg71
g2864
sg64
(lp2871
g57
(g58
g59
NtRp2872
(dp2873
g62
(dp2874
g70
I3
ssg71
g2868
sg64
(lp2875
S'3'
asbasbasbag57
(g73
g59
NtRp2876
(dp2877
g62
(dp2878
sg71
g2848
sg64
(lp2879
g57
(g78
g59
NtRp2880
(dp2881
g62
(dp2882
sg71
g2876
sg64
(lp2883
g57
(g58
g59
NtRp2884
(dp2885
g62
(dp2886
g70
I3
ssg71
g2880
sg64
(lp2887
S'2'
asbasbasbag57
(g73
g59
NtRp2888
(dp2889
g62
(dp2890
sg71
g2848
sg64
(lp2891
g57
(g78
g59
NtRp2892
(dp2893
g62
(dp2894
sg71
g2888
sg64
(lp2895
g57
(g58
g59
NtRp2896
(dp2897
g62
(dp2898
g70
I3
ssg71
g2892
sg64
(lp2899
S'datetime.datetime(2012, 12, 17, 15, 3, 30)'
p2900
asbasbasbag57
(g73
g59
NtRp2901
(dp2902
g62
(dp2903
sg71
g2848
sg64
(lp2904
g57
(g78
g59
NtRp2905
(dp2906
g62
(dp2907
sg71
g2901
sg64
(lp2908
g57
(g58
g59
NtRp2909
(dp2910
g62
(dp2911
g70
I3
ssg71
g2905
sg64
(lp2912
g2239
asbasbasbasbasbasbasbasbasbasbasbag57
(g73
g59
NtRp2913
(dp2914
g62
(dp2915
sg71
g67
sg64
(lp2916
g57
(g78
g59
NtRp2917
(dp2918
g62
(dp2919
g82
g83
ssg71
g2913
sg64
(lp2920
S'is_https'
p2921
asbag57
(g78
g59
NtRp2922
(dp2923
g62
(dp2924
g89
g90
ssg71
g2913
sg64
(lp2925
S':'
asbag57
(g78
g59
NtRp2926
(dp2927
g62
(dp2928
sg71
g2913
sg64
(lp2929
g57
(g58
g59
NtRp2930
(dp2931
g62
(dp2932
g70
I5
ssg71
g2926
sg64
(lp2933
g100
asbasbasbag57
(g73
g59
NtRp2934
(dp2935
g62
(dp2936
sg71
g67
sg64
(lp2937
g57
(g78
g59
NtRp2938
(dp2939
g62
(dp2940
g82
g83
ssg71
g2934
sg64
(lp2941
S'is_local'
p2942
asbag57
(g78
g59
NtRp2943
(dp2944
g62
(dp2945
g89
g90
ssg71
g2934
sg64
(lp2946
S':'
asbag57
(g78
g59
NtRp2947
(dp2948
g62
(dp2949
sg71
g2934
sg64
(lp2950
g57
(g58
g59
NtRp2951
(dp2952
g62
(dp2953
g70
I5
ssg71
g2947
sg64
(lp2954
g2348
asbasbasbag57
(g73
g59
NtRp2955
(dp2956
g62
(dp2957
sg71
g67
sg64
(lp2958
g57
(g78
g59
NtRp2959
(dp2960
g62
(dp2961
g82
g83
ssg71
g2955
sg64
(lp2962
S'is_restful'
p2963
asbag57
(g78
g59
NtRp2964
(dp2965
g62
(dp2966
g89
g90
ssg71
g2955
sg64
(lp2967
S':'
asbag57
(g78
g59
NtRp2968
(dp2969
g62
(dp2970
sg71
g2955
sg64
(lp2971
g57
(g58
g59
NtRp2972
(dp2973
g62
(dp2974
g70
I5
ssg71
g2968
sg64
(lp2975
g100
asbasbasbag57
(g73
g59
NtRp2976
(dp2977
g62
(dp2978
sg71
g67
sg64
(lp2979
g57
(g78
g59
NtRp2980
(dp2981
g62
(dp2982
g82
g83
ssg71
g2976
sg64
(lp2983
S'now'
p2984
asbag57
(g78
g59
NtRp2985
(dp2986
g62
(dp2987
g89
g90
ssg71
g2976
sg64
(lp2988
S':'
asbag57
(g78
g59
NtRp2989
(dp2990
g62
(dp2991
sg71
g2976
sg64
(lp2992
g57
(g58
g59
NtRp2993
(dp2994
g62
(dp2995
g70
I5
ssg71
g2989
sg64
(lp2996
S'datetime.datetime(2014, 9, 28, 13, 8, 17, 890239)'
p2997
asbasbasbag57
(g73
g59
NtRp2998
(dp2999
g62
(dp3000
sg71
g67
sg64
(lp3001
g57
(g78
g59
NtRp3002
(dp3003
g62
(dp3004
g82
g83
ssg71
g2998
sg64
(lp3005
S'post_vars'
p3006
asbag57
(g78
g59
NtRp3007
(dp3008
g62
(dp3009
g89
g90
ssg71
g2998
sg64
(lp3010
S':'
asbag57
(g78
g59
NtRp3011
(dp3012
g62
(dp3013
sg71
g2998
sg64
(lp3014
g57
(g58
g59
NtRp3015
(dp3016
g62
(dp3017
g70
I5
ssg71
g3011
sg64
(lp3018
g57
(g66
g59
NtRp3019
(dp3020
g62
(dp3021
g70
I4
ssg71
Nsg64
(lp3022
sbasbasbasbag57
(g73
g59
NtRp3023
(dp3024
g62
(dp3025
sg71
g67
sg64
(lp3026
g57
(g78
g59
NtRp3027
(dp3028
g62
(dp3029
g82
g83
ssg71
g3023
sg64
(lp3030
S'raw_args'
p3031
asbag57
(g78
g59
NtRp3032
(dp3033
g62
(dp3034
g89
g90
ssg71
g3023
sg64
(lp3035
S':'
asbag57
(g78
g59
NtRp3036
(dp3037
g62
(dp3038
sg71
g3023
sg64
(lp3039
g57
(g58
g59
NtRp3040
(dp3041
g62
(dp3042
g70
I5
ssg71
g3036
sg64
(lp3043
S''
asbasbasbag57
(g73
g59
NtRp3044
(dp3045
g62
(dp3046
sg71
g67
sg64
(lp3047
g57
(g78
g59
NtRp3048
(dp3049
g62
(dp3050
g82
g83
ssg71
g3044
sg64
(lp3051
S'raw_extension'
p3052
asbag57
(g78
g59
NtRp3053
(dp3054
g62
(dp3055
g89
g90
ssg71
g3044
sg64
(lp3056
S':'
asbag57
(g78
g59
NtRp3057
(dp3058
g62
(dp3059
sg71
g3044
sg64
(lp3060
g57
(g58
g59
NtRp3061
(dp3062
g62
(dp3063
g70
I5
ssg71
g3057
sg64
(lp3064
S'None'
p3065
asbasbasbag57
(g73
g59
NtRp3066
(dp3067
g62
(dp3068
sg71
g67
sg64
(lp3069
g57
(g78
g59
NtRp3070
(dp3071
g62
(dp3072
g82
g83
ssg71
g3066
sg64
(lp3073
S'url'
p3074
asbag57
(g78
g59
NtRp3075
(dp3076
g62
(dp3077
g89
g90
ssg71
g3066
sg64
(lp3078
S':'
asbag57
(g78
g59
NtRp3079
(dp3080
g62
(dp3081
sg71
g3066
sg64
(lp3082
g57
(g58
g59
NtRp3083
(dp3084
g62
(dp3085
g70
I5
ssg71
g3079
sg64
(lp3086
g1915
asbasbasbag57
(g73
g59
NtRp3087
(dp3088
g62
(dp3089
sg71
g67
sg64
(lp3090
g57
(g78
g59
NtRp3091
(dp3092
g62
(dp3093
g82
g83
ssg71
g3087
sg64
(lp3094
S'utcnow'
p3095
asbag57
(g78
g59
NtRp3096
(dp3097
g62
(dp3098
g89
g90
ssg71
g3087
sg64
(lp3099
S':'
asbag57
(g78
g59
NtRp3100
(dp3101
g62
(dp3102
sg71
g3087
sg64
(lp3103
g57
(g58
g59
NtRp3104
(dp3105
g62
(dp3106
g70
I5
ssg71
g3100
sg64
(lp3107
S'datetime.datetime(2014, 9, 28, 7, 38, 17, 890259)'
p3108
asbasbasbag57
(g73
g59
NtRp3109
(dp3110
g62
(dp3111
sg71
g67
sg64
(lp3112
g57
(g78
g59
NtRp3113
(dp3114
g62
(dp3115
g82
g83
ssg71
g3109
sg64
(lp3116
S'uuid'
p3117
asbag57
(g78
g59
NtRp3118
(dp3119
g62
(dp3120
g89
g90
ssg71
g3109
sg64
(lp3121
S':'
asbag57
(g78
g59
NtRp3122
(dp3123
g62
(dp3124
sg71
g3109
sg64
(lp3125
g57
(g58
g59
NtRp3126
(dp3127
g62
(dp3128
g70
I5
ssg71
g3122
sg64
(lp3129
S'Garbage_Truck/127.0.0.1.2014-09-28.13-08-17.b1cfdb8b-f813-479f-b6a5-9e051dd40b03'
p3130
asbasbasbag57
(g73
g59
NtRp3131
(dp3132
g62
(dp3133
sg71
g67
sg64
(lp3134
g57
(g78
g59
NtRp3135
(dp3136
g62
(dp3137
g82
g83
ssg71
g3131
sg64
(lp3138
S'vars'
p3139
asbag57
(g78
g59
NtRp3140
(dp3141
g62
(dp3142
g89
g90
ssg71
g3131
sg64
(lp3143
S':'
asbag57
(g78
g59
NtRp3144
(dp3145
g62
(dp3146
sg71
g3131
sg64
(lp3147
g57
(g58
g59
NtRp3148
(dp3149
g62
(dp3150
g70
I5
ssg71
g3144
sg64
(lp3151
g57
(g66
g59
NtRp3152
(dp3153
g62
(dp3154
g70
I4
ssg71
Nsg64
(lp3155
sbasbasbasbag57
(g73
g59
NtRp3156
(dp3157
g62
(dp3158
sg71
g67
sg64
(lp3159
g57
(g78
g59
NtRp3160
(dp3161
g62
(dp3162
g82
g83
ssg71
g3156
sg64
(lp3163
S'wsgi'
p3164
asbag57
(g78
g59
NtRp3165
(dp3166
g62
(dp3167
g89
g90
ssg71
g3156
sg64
(lp3168
S':'
asbag57
(g78
g59
NtRp3169
(dp3170
g62
(dp3171
sg71
g3156
sg64
(lp3172
g57
(g58
g59
NtRp3173
(dp3174
g62
(dp3175
g70
I5
ssg71
g3169
sg64
(lp3176
g57
(g66
g59
NtRp3177
(dp3178
g62
(dp3179
g70
I4
ssg71
Nsg64
(lp3180
g57
(g73
g59
NtRp3181
(dp3182
g62
(dp3183
sg71
g3177
sg64
(lp3184
g57
(g78
g59
NtRp3185
(dp3186
g62
(dp3187
g82
g83
ssg71
g3181
sg64
(lp3188
S'environ'
p3189
asbag57
(g78
g59
NtRp3190
(dp3191
g62
(dp3192
g89
g90
ssg71
g3181
sg64
(lp3193
S':'
asbag57
(g78
g59
NtRp3194
(dp3195
g62
(dp3196
sg71
g3181
sg64
(lp3197
g57
(g58
g59
NtRp3198
(dp3199
g62
(dp3200
g70
I4
ssg71
g3194
sg64
(lp3201
g57
(g66
g59
NtRp3202
(dp3203
g62
(dp3204
g70
I3
ssg71
Nsg64
(lp3205
g57
(g73
g59
NtRp3206
(dp3207
g62
(dp3208
sg71
g3202
sg64
(lp3209
g57
(g78
g59
NtRp3210
(dp3211
g62
(dp3212
g82
g83
ssg71
g3206
sg64
(lp3213
S'HTTP_ACCEPT'
p3214
asbag57
(g78
g59
NtRp3215
(dp3216
g62
(dp3217
g89
g90
ssg71
g3206
sg64
(lp3218
S':'
asbag57
(g78
g59
NtRp3219
(dp3220
g62
(dp3221
sg71
g3206
sg64
(lp3222
g57
(g58
g59
NtRp3223
(dp3224
g62
(dp3225
g70
I3
ssg71
g3219
sg64
(lp3226
g1586
asbasbasbag57
(g73
g59
NtRp3227
(dp3228
g62
(dp3229
sg71
g3202
sg64
(lp3230
g57
(g78
g59
NtRp3231
(dp3232
g62
(dp3233
g82
g83
ssg71
g3227
sg64
(lp3234
S'HTTP_ACCEPT_ENCODING'
p3235
asbag57
(g78
g59
NtRp3236
(dp3237
g62
(dp3238
g89
g90
ssg71
g3227
sg64
(lp3239
S':'
asbag57
(g78
g59
NtRp3240
(dp3241
g62
(dp3242
sg71
g3227
sg64
(lp3243
g57
(g58
g59
NtRp3244
(dp3245
g62
(dp3246
g70
I3
ssg71
g3240
sg64
(lp3247
g1608
asbasbasbag57
(g73
g59
NtRp3248
(dp3249
g62
(dp3250
sg71
g3202
sg64
(lp3251
g57
(g78
g59
NtRp3252
(dp3253
g62
(dp3254
g82
g83
ssg71
g3248
sg64
(lp3255
S'HTTP_ACCEPT_LANGUAGE'
p3256
asbag57
(g78
g59
NtRp3257
(dp3258
g62
(dp3259
g89
g90
ssg71
g3248
sg64
(lp3260
S':'
asbag57
(g78
g59
NtRp3261
(dp3262
g62
(dp3263
sg71
g3248
sg64
(lp3264
g57
(g58
g59
NtRp3265
(dp3266
g62
(dp3267
g70
I3
ssg71
g3261
sg64
(lp3268
g1630
asbasbasbag57
(g73
g59
NtRp3269
(dp3270
g62
(dp3271
sg71
g3202
sg64
(lp3272
g57
(g78
g59
NtRp3273
(dp3274
g62
(dp3275
g82
g83
ssg71
g3269
sg64
(lp3276
S'HTTP_CONNECTION'
p3277
asbag57
(g78
g59
NtRp3278
(dp3279
g62
(dp3280
g89
g90
ssg71
g3269
sg64
(lp3281
S':'
asbag57
(g78
g59
NtRp3282
(dp3283
g62
(dp3284
sg71
g3269
sg64
(lp3285
g57
(g58
g59
NtRp3286
(dp3287
g62
(dp3288
g70
I3
ssg71
g3282
sg64
(lp3289
g1652
asbasbasbag57
(g73
g59
NtRp3290
(dp3291
g62
(dp3292
sg71
g3202
sg64
(lp3293
g57
(g78
g59
NtRp3294
(dp3295
g62
(dp3296
g82
g83
ssg71
g3290
sg64
(lp3297
S'HTTP_COOKIE'
p3298
asbag57
(g78
g59
NtRp3299
(dp3300
g62
(dp3301
g89
g90
ssg71
g3290
sg64
(lp3302
S':'
asbag57
(g78
g59
NtRp3303
(dp3304
g62
(dp3305
sg71
g3290
sg64
(lp3306
g57
(g58
g59
NtRp3307
(dp3308
g62
(dp3309
g70
I3
ssg71
g3303
sg64
(lp3310
g1674
asbasbasbag57
(g73
g59
NtRp3311
(dp3312
g62
(dp3313
sg71
g3202
sg64
(lp3314
g57
(g78
g59
NtRp3315
(dp3316
g62
(dp3317
g82
g83
ssg71
g3311
sg64
(lp3318
S'HTTP_DNT'
p3319
asbag57
(g78
g59
NtRp3320
(dp3321
g62
(dp3322
g89
g90
ssg71
g3311
sg64
(lp3323
S':'
asbag57
(g78
g59
NtRp3324
(dp3325
g62
(dp3326
sg71
g3311
sg64
(lp3327
g57
(g58
g59
NtRp3328
(dp3329
g62
(dp3330
g70
I3
ssg71
g3324
sg64
(lp3331
S'1'
asbasbasbag57
(g73
g59
NtRp3332
(dp3333
g62
(dp3334
sg71
g3202
sg64
(lp3335
g57
(g78
g59
NtRp3336
(dp3337
g62
(dp3338
g82
g83
ssg71
g3332
sg64
(lp3339
S'HTTP_HOST'
p3340
asbag57
(g78
g59
NtRp3341
(dp3342
g62
(dp3343
g89
g90
ssg71
g3332
sg64
(lp3344
S':'
asbag57
(g78
g59
NtRp3345
(dp3346
g62
(dp3347
sg71
g3332
sg64
(lp3348
g57
(g58
g59
NtRp3349
(dp3350
g62
(dp3351
g70
I3
ssg71
g3345
sg64
(lp3352
g1717
asbasbasbag57
(g73
g59
NtRp3353
(dp3354
g62
(dp3355
sg71
g3202
sg64
(lp3356
g57
(g78
g59
NtRp3357
(dp3358
g62
(dp3359
g82
g83
ssg71
g3353
sg64
(lp3360
S'HTTP_REFERER'
p3361
asbag57
(g78
g59
NtRp3362
(dp3363
g62
(dp3364
g89
g90
ssg71
g3353
sg64
(lp3365
S':'
asbag57
(g78
g59
NtRp3366
(dp3367
g62
(dp3368
sg71
g3353
sg64
(lp3369
g57
(g58
g59
NtRp3370
(dp3371
g62
(dp3372
g70
I3
ssg71
g3366
sg64
(lp3373
g1739
asbasbasbag57
(g73
g59
NtRp3374
(dp3375
g62
(dp3376
sg71
g3202
sg64
(lp3377
g57
(g78
g59
NtRp3378
(dp3379
g62
(dp3380
g82
g83
ssg71
g3374
sg64
(lp3381
S'HTTP_USER_AGENT'
p3382
asbag57
(g78
g59
NtRp3383
(dp3384
g62
(dp3385
g89
g90
ssg71
g3374
sg64
(lp3386
S':'
asbag57
(g78
g59
NtRp3387
(dp3388
g62
(dp3389
sg71
g3374
sg64
(lp3390
g57
(g58
g59
NtRp3391
(dp3392
g62
(dp3393
g70
I3
ssg71
g3387
sg64
(lp3394
g1761
asbasbasbag57
(g73
g59
NtRp3395
(dp3396
g62
(dp3397
sg71
g3202
sg64
(lp3398
g57
(g78
g59
NtRp3399
(dp3400
g62
(dp3401
g82
g83
ssg71
g3395
sg64
(lp3402
S'PATH_INFO'
p3403
asbag57
(g78
g59
NtRp3404
(dp3405
g62
(dp3406
g89
g90
ssg71
g3395
sg64
(lp3407
S':'
asbag57
(g78
g59
NtRp3408
(dp3409
g62
(dp3410
sg71
g3395
sg64
(lp3411
g57
(g58
g59
NtRp3412
(dp3413
g62
(dp3414
g70
I3
ssg71
g3408
sg64
(lp3415
g1915
asbasbasbag57
(g73
g59
NtRp3416
(dp3417
g62
(dp3418
sg71
g3202
sg64
(lp3419
g57
(g78
g59
NtRp3420
(dp3421
g62
(dp3422
g82
g83
ssg71
g3416
sg64
(lp3423
S'QUERY_STRING'
p3424
asbag57
(g78
g59
NtRp3425
(dp3426
g62
(dp3427
g89
g90
ssg71
g3416
sg64
(lp3428
S':'
asbag57
(g78
g59
NtRp3429
(dp3430
g62
(dp3431
sg71
g3416
sg64
(lp3432
g57
(g58
g59
NtRp3433
(dp3434
g62
(dp3435
g70
I3
ssg71
g3429
sg64
(lp3436
S''
asbasbasbag57
(g73
g59
NtRp3437
(dp3438
g62
(dp3439
sg71
g3202
sg64
(lp3440
g57
(g78
g59
NtRp3441
(dp3442
g62
(dp3443
g82
g83
ssg71
g3437
sg64
(lp3444
S'REMOTE_ADDR'
p3445
asbag57
(g78
g59
NtRp3446
(dp3447
g62
(dp3448
g89
g90
ssg71
g3437
sg64
(lp3449
S':'
asbag57
(g78
g59
NtRp3450
(dp3451
g62
(dp3452
sg71
g3437
sg64
(lp3453
g57
(g58
g59
NtRp3454
(dp3455
g62
(dp3456
g70
I3
ssg71
g3450
sg64
(lp3457
g212
asbasbasbag57
(g73
g59
NtRp3458
(dp3459
g62
(dp3460
sg71
g3202
sg64
(lp3461
g57
(g78
g59
NtRp3462
(dp3463
g62
(dp3464
g82
g83
ssg71
g3458
sg64
(lp3465
S'REMOTE_PORT'
p3466
asbag57
(g78
g59
NtRp3467
(dp3468
g62
(dp3469
g89
g90
ssg71
g3458
sg64
(lp3470
S':'
asbag57
(g78
g59
NtRp3471
(dp3472
g62
(dp3473
sg71
g3458
sg64
(lp3474
g57
(g58
g59
NtRp3475
(dp3476
g62
(dp3477
g70
I3
ssg71
g3471
sg64
(lp3478
g1979
asbasbasbag57
(g73
g59
NtRp3479
(dp3480
g62
(dp3481
sg71
g3202
sg64
(lp3482
g57
(g78
g59
NtRp3483
(dp3484
g62
(dp3485
g82
g83
ssg71
g3479
sg64
(lp3486
S'REQUEST_METHOD'
p3487
asbag57
(g78
g59
NtRp3488
(dp3489
g62
(dp3490
g89
g90
ssg71
g3479
sg64
(lp3491
S':'
asbag57
(g78
g59
NtRp3492
(dp3493
g62
(dp3494
sg71
g3479
sg64
(lp3495
g57
(g58
g59
NtRp3496
(dp3497
g62
(dp3498
g70
I3
ssg71
g3492
sg64
(lp3499
g2001
asbasbasbag57
(g73
g59
NtRp3500
(dp3501
g62
(dp3502
sg71
g3202
sg64
(lp3503
g57
(g78
g59
NtRp3504
(dp3505
g62
(dp3506
g82
g83
ssg71
g3500
sg64
(lp3507
S'REQUEST_URI'
p3508
asbag57
(g78
g59
NtRp3509
(dp3510
g62
(dp3511
g89
g90
ssg71
g3500
sg64
(lp3512
S':'
asbag57
(g78
g59
NtRp3513
(dp3514
g62
(dp3515
sg71
g3500
sg64
(lp3516
g57
(g58
g59
NtRp3517
(dp3518
g62
(dp3519
g70
I3
ssg71
g3513
sg64
(lp3520
g1915
asbasbasbag57
(g73
g59
NtRp3521
(dp3522
g62
(dp3523
sg71
g3202
sg64
(lp3524
g57
(g78
g59
NtRp3525
(dp3526
g62
(dp3527
g82
g83
ssg71
g3521
sg64
(lp3528
S'SCRIPT_NAME'
p3529
asbag57
(g78
g59
NtRp3530
(dp3531
g62
(dp3532
g89
g90
ssg71
g3521
sg64
(lp3533
S':'
asbag57
(g78
g59
NtRp3534
(dp3535
g62
(dp3536
sg71
g3521
sg64
(lp3537
g57
(g58
g59
NtRp3538
(dp3539
g62
(dp3540
g70
I3
ssg71
g3534
sg64
(lp3541
S''
asbasbasbag57
(g73
g59
NtRp3542
(dp3543
g62
(dp3544
sg71
g3202
sg64
(lp3545
g57
(g78
g59
NtRp3546
(dp3547
g62
(dp3548
g82
g83
ssg71
g3542
sg64
(lp3549
S'SERVER_NAME'
p3550
asbag57
(g78
g59
NtRp3551
(dp3552
g62
(dp3553
g89
g90
ssg71
g3542
sg64
(lp3554
S':'
asbag57
(g78
g59
NtRp3555
(dp3556
g62
(dp3557
sg71
g3542
sg64
(lp3558
g57
(g58
g59
NtRp3559
(dp3560
g62
(dp3561
g70
I3
ssg71
g3555
sg64
(lp3562
g2065
asbasbasbag57
(g73
g59
NtRp3563
(dp3564
g62
(dp3565
sg71
g3202
sg64
(lp3566
g57
(g78
g59
NtRp3567
(dp3568
g62
(dp3569
g82
g83
ssg71
g3563
sg64
(lp3570
S'SERVER_PORT'
p3571
asbag57
(g78
g59
NtRp3572
(dp3573
g62
(dp3574
g89
g90
ssg71
g3563
sg64
(lp3575
S':'
asbag57
(g78
g59
NtRp3576
(dp3577
g62
(dp3578
sg71
g3563
sg64
(lp3579
g57
(g58
g59
NtRp3580
(dp3581
g62
(dp3582
g70
I3
ssg71
g3576
sg64
(lp3583
g2087
asbasbasbag57
(g73
g59
NtRp3584
(dp3585
g62
(dp3586
sg71
g3202
sg64
(lp3587
g57
(g78
g59
NtRp3588
(dp3589
g62
(dp3590
g82
g83
ssg71
g3584
sg64
(lp3591
S'SERVER_PROTOCOL'
p3592
asbag57
(g78
g59
NtRp3593
(dp3594
g62
(dp3595
g89
g90
ssg71
g3584
sg64
(lp3596
S':'
asbag57
(g78
g59
NtRp3597
(dp3598
g62
(dp3599
sg71
g3584
sg64
(lp3600
g57
(g58
g59
NtRp3601
(dp3602
g62
(dp3603
g70
I3
ssg71
g3597
sg64
(lp3604
g2109
asbasbasbag57
(g73
g59
NtRp3605
(dp3606
g62
(dp3607
sg71
g3202
sg64
(lp3608
g57
(g78
g59
NtRp3609
(dp3610
g62
(dp3611
g82
g83
ssg71
g3605
sg64
(lp3612
S'SERVER_SOFTWARE'
p3613
asbag57
(g78
g59
NtRp3614
(dp3615
g62
(dp3616
g89
g90
ssg71
g3605
sg64
(lp3617
S':'
asbag57
(g78
g59
NtRp3618
(dp3619
g62
(dp3620
sg71
g3605
sg64
(lp3621
g57
(g58
g59
NtRp3622
(dp3623
g62
(dp3624
g70
I3
ssg71
g3618
sg64
(lp3625
g2131
asbasbasbag57
(g73
g59
NtRp3626
(dp3627
g62
(dp3628
sg71
g3202
sg64
(lp3629
g57
(g78
g59
NtRp3630
(dp3631
g62
(dp3632
g82
g83
ssg71
g3626
sg64
(lp3633
S'wsgi.errors'
p3634
asbag57
(g78
g59
NtRp3635
(dp3636
g62
(dp3637
g89
g90
ssg71
g3626
sg64
(lp3638
S':'
asbag57
(g78
g59
NtRp3639
(dp3640
g62
(dp3641
sg71
g3626
sg64
(lp3642
g57
(g58
g59
NtRp3643
(dp3644
g62
(dp3645
g70
I3
ssg71
g3639
sg64
(lp3646
S"<open file '<stderr>', mode 'w' at 0x7f92c1bb41e0>"
p3647
asbasbasbag57
(g73
g59
NtRp3648
(dp3649
g62
(dp3650
sg71
g3202
sg64
(lp3651
g57
(g78
g59
NtRp3652
(dp3653
g62
(dp3654
g82
g83
ssg71
g3648
sg64
(lp3655
S'wsgi.file_wrapper'
p3656
asbag57
(g78
g59
NtRp3657
(dp3658
g62
(dp3659
g89
g90
ssg71
g3648
sg64
(lp3660
S':'
asbag57
(g78
g59
NtRp3661
(dp3662
g62
(dp3663
sg71
g3648
sg64
(lp3664
g57
(g58
g59
NtRp3665
(dp3666
g62
(dp3667
g70
I3
ssg71
g3661
sg64
(lp3668
S'<class wsgiref.util.FileWrapper at 0x7f92bab98808>'
p3669
asbasbasbag57
(g73
g59
NtRp3670
(dp3671
g62
(dp3672
sg71
g3202
sg64
(lp3673
g57
(g78
g59
NtRp3674
(dp3675
g62
(dp3676
g82
g83
ssg71
g3670
sg64
(lp3677
S'wsgi.input'
p3678
asbag57
(g78
g59
NtRp3679
(dp3680
g62
(dp3681
g89
g90
ssg71
g3670
sg64
(lp3682
S':'
asbag57
(g78
g59
NtRp3683
(dp3684
g62
(dp3685
sg71
g3670
sg64
(lp3686
g57
(g58
g59
NtRp3687
(dp3688
g62
(dp3689
g70
I3
ssg71
g3683
sg64
(lp3690
S'<cStringIO.StringO object at 0x7f9288e93848>'
p3691
asbasbasbag57
(g73
g59
NtRp3692
(dp3693
g62
(dp3694
sg71
g3202
sg64
(lp3695
g57
(g78
g59
NtRp3696
(dp3697
g62
(dp3698
g82
g83
ssg71
g3692
sg64
(lp3699
S'wsgi.multiprocess'
p3700
asbag57
(g78
g59
NtRp3701
(dp3702
g62
(dp3703
g89
g90
ssg71
g3692
sg64
(lp3704
S':'
asbag57
(g78
g59
NtRp3705
(dp3706
g62
(dp3707
sg71
g3692
sg64
(lp3708
g57
(g58
g59
NtRp3709
(dp3710
g62
(dp3711
g70
I3
ssg71
g3705
sg64
(lp3712
g100
asbasbasbag57
(g73
g59
NtRp3713
(dp3714
g62
(dp3715
sg71
g3202
sg64
(lp3716
g57
(g78
g59
NtRp3717
(dp3718
g62
(dp3719
g82
g83
ssg71
g3713
sg64
(lp3720
S'wsgi.multithread'
p3721
asbag57
(g78
g59
NtRp3722
(dp3723
g62
(dp3724
g89
g90
ssg71
g3713
sg64
(lp3725
S':'
asbag57
(g78
g59
NtRp3726
(dp3727
g62
(dp3728
sg71
g3713
sg64
(lp3729
g57
(g58
g59
NtRp3730
(dp3731
g62
(dp3732
g70
I3
ssg71
g3726
sg64
(lp3733
g2348
asbasbasbag57
(g73
g59
NtRp3734
(dp3735
g62
(dp3736
sg71
g3202
sg64
(lp3737
g57
(g78
g59
NtRp3738
(dp3739
g62
(dp3740
g82
g83
ssg71
g3734
sg64
(lp3741
S'wsgi.run_once'
p3742
asbag57
(g78
g59
NtRp3743
(dp3744
g62
(dp3745
g89
g90
ssg71
g3734
sg64
(lp3746
S':'
asbag57
(g78
g59
NtRp3747
(dp3748
g62
(dp3749
sg71
g3734
sg64
(lp3750
g57
(g58
g59
NtRp3751
(dp3752
g62
(dp3753
g70
I3
ssg71
g3747
sg64
(lp3754
g100
asbasbasbag57
(g73
g59
NtRp3755
(dp3756
g62
(dp3757
sg71
g3202
sg64
(lp3758
g57
(g78
g59
NtRp3759
(dp3760
g62
(dp3761
g82
g83
ssg71
g3755
sg64
(lp3762
S'wsgi.url_scheme'
p3763
asbag57
(g78
g59
NtRp3764
(dp3765
g62
(dp3766
g89
g90
ssg71
g3755
sg64
(lp3767
S':'
asbag57
(g78
g59
NtRp3768
(dp3769
g62
(dp3770
sg71
g3755
sg64
(lp3771
g57
(g58
g59
NtRp3772
(dp3773
g62
(dp3774
g70
I3
ssg71
g3768
sg64
(lp3775
g2391
asbasbasbag57
(g73
g59
NtRp3776
(dp3777
g62
(dp3778
sg71
g3202
sg64
(lp3779
g57
(g78
g59
NtRp3780
(dp3781
g62
(dp3782
g82
g83
ssg71
g3776
sg64
(lp3783
S'wsgi.version'
p3784
asbag57
(g78
g59
NtRp3785
(dp3786
g62
(dp3787
g89
g90
ssg71
g3776
sg64
(lp3788
S':'
asbag57
(g78
g59
NtRp3789
(dp3790
g62
(dp3791
sg71
g3776
sg64
(lp3792
g57
(g58
g59
NtRp3793
(dp3794
g62
(dp3795
g70
I3
ssg71
g3789
sg64
(lp3796
S'1'
asbasbasbasbasbasbasbasbasbasbasbasbasbsS'frames'
p3797
(lp3798
(dp3799
S'file'
p3800
S'/home/darshan/web2py/gluon/restricted.py'
p3801
sS'dump'
p3802
(dp3803
S'environment'
p3804
S"{'A': <class 'gluon.html.A'>, 'Auth': <class 'gluon.tools.Auth'>, 'B': <class 'gluon.html.B'>, 'BEAUTIFY': <class 'gluon.html.BEAUTIFY'>, 'BODY': <class 'gluon.html.BODY'>, 'BR': <class 'gluon.html.BR'>, 'BUTTON': <class 'gluon.html.BUTTON'>, 'CAT': <class 'gluon.html.CAT'>, 'CENTER': <class 'gluon.html.CENTER'>, 'CLEANUP': <class 'gluon.validators.CLEANUP'>, ...}"
p3805
sS'ccode'
p3806
S'<code object <module> at 0x7f9289407e30, file "/...s/Garbage_Truck/controllers/default.py", line 11>'
p3807
ssS'lnum'
p3808
I212
sS'lines'
p3809
(dp3810
I207
S'    try:'
p3811
sI208
S'        if isinstance(code, types.CodeType):'
p3812
sI209
S'            ccode = code'
p3813
sI210
S'        else:'
p3814
sI211
S'            ccode = compile2(code, layer)'
p3815
sI212
S'        exec ccode in environment'
p3816
sI213
S'    except HTTP:'
p3817
sI214
S'        raise'
p3818
sI215
S'    except RestrictedError:'
p3819
sI216
S'        # do not encapsulate (obfuscate) the original RestrictedError'
p3820
ssS'call'
p3821
S"(code='# -*- coding: utf-8 -*-\\n# this file is released ...e._vars=response._caller(request_reservior_view)\\n', environment={'A': <class 'gluon.html.A'>, 'Auth': <class 'gluon.tools.Auth'>, 'B': <class 'gluon.html.B'>, 'BEAUTIFY': <class 'gluon.html.BEAUTIFY'>, 'BODY': <class 'gluon.html.BODY'>, 'BR': <class 'gluon.html.BR'>, 'BUTTON': <class 'gluon.html.BUTTON'>, 'CAT': <class 'gluon.html.CAT'>, 'CENTER': <class 'gluon.html.CENTER'>, 'CLEANUP': <class 'gluon.validators.CLEANUP'>, ...}, layer='/home/darshan/web2py/applications/Garbage_Truck/controllers/default.py')"
p3822
sS'func'
p3823
S'restricted'
p3824
sa(dp3825
g3800
S'/home/darshan/web2py/applications/Garbage_Truck/controllers/default.py'
p3826
sg3802
(dp3827
sg3808
I212
sg3809
(dp3828
I201
S'    http://..../[app]/default/data/update/[table]/[id]'
p3829
sI202
S'    http://..../[app]/default/data/delete/[table]/[id]'
p3830
sI203
S'    http://..../[app]/default/data/select/[table]'
p3831
sI204
S'    http://..../[app]/default/data/search/[table]'
p3832
sI205
S'    but URLs must be signed, i.e. linked with'
p3833
sI206
S"      A('table',_href=URL('data/tables',user_signature=True))"
p3834
sI207
S'    or with the signed load operator'
p3835
sI208
S"      LOAD('default','data.load',args='tables',ajax=True,user_signature=True)"
p3836
sI209
S'    """'
p3837
sI210
S'    return dict(form=crud())'
p3838
ssg3821
S'()'
p3839
sg3823
S'<module>'
p3840
sa(dp3841
g3800
S'/home/darshan/web2py/gluon/globals.py'
p3842
sg3802
(dp3843
S'self'
p3844
S'undefined'
p3845
sS'f'
S'<function request_reservior_view>'
p3846
ssg3808
I193
sg3809
(dp3847
I192
S'        self._vars = None'
p3848
sI193
S'        self._caller = lambda f: f()'
p3849
sI194
S'        self._view_environment = None'
p3850
sI195
S'        self._custom_commit = None'
p3851
sI196
S'        self._custom_rollback = None'
p3852
sI197
S''
sI188
S'        self.menu = []             # used by the default view layout'
p3853
sI189
S'        self.files = []            # used by web2py_ajax.html'
p3854
sI190
S'        self.generic_patterns = []  # patterns to allow generic views'
p3855
sI191
S"        self.delimiters = ('{{', '}}')"
p3856
ssg3821
S'(f=<function request_reservior_view>)'
p3857
sg3823
S'<lambda>'
p3858
sa(dp3859
g3800
S'/home/darshan/web2py/gluon/tools.py'
p3860
sg3802
(dp3861
S'action'
p3862
S'<function request_reservior_view>'
p3863
sS'a'
S'()'
p3864
sS'b'
g45
ssg3808
I2929
sg3809
(dp3865
I2924
S'                    flag = condition'
p3866
sI2925
S'                if not flag:'
p3867
sI2926
S'                    current.session.flash = self.messages.access_denied'
p3868
sI2927
S'                    return call_or_redirect('
p3869
sI2928
S'                        self.settings.on_failed_authorization)'
p3870
sI2929
S'                return action(*a, **b)'
p3871
sI2930
S'            f.__doc__ = action.__doc__'
p3872
sI2931
S'            f.__name__ = action.__name__'
p3873
sI2932
S'            f.__dict__.update(action.__dict__)'
p3874
sI2933
S'            return f'
p3875
ssg3821
S'(*a=(), **b={})'
p3876
sg3823
S'f'
sa(dp3877
g3800
S'/home/darshan/web2py/gluon/tools.py'
p3878
sg3802
(dp3879
S'action'
p3880
S'<function request_reservior_view>'
p3881
sS'a'
S'()'
p3882
sS'b'
g45
ssg3808
I2929
sg3809
(dp3883
I2924
S'                    flag = condition'
p3884
sI2925
S'                if not flag:'
p3885
sI2926
S'                    current.session.flash = self.messages.access_denied'
p3886
sI2927
S'                    return call_or_redirect('
p3887
sI2928
S'                        self.settings.on_failed_authorization)'
p3888
sI2929
S'                return action(*a, **b)'
p3889
sI2930
S'            f.__doc__ = action.__doc__'
p3890
sI2931
S'            f.__name__ = action.__name__'
p3891
sI2932
S'            f.__dict__.update(action.__dict__)'
p3892
sI2933
S'            return f'
p3893
ssg3821
S'(*a=(), **b={})'
p3894
sg3823
S'f'
sa(dp3895
g3800
S'/home/darshan/web2py/applications/Garbage_Truck/controllers/default.py'
p3896
sg3802
(dp3897
S'dat'
p3898
g3845
sS'i'
S"<Row {'auth_user': {'username': '410231231', 'fi...c_ward': {'user_id': 5, 'id': 1, 'pin': 500038}}>"
p3899
sS'i.report_absent'
p3900
g3845
ssg3808
I99
sg3809
(dp3901
I96
S'    d={}'
p3902
sI97
S'    for i in s:'
p3903
sI98
S'        #dat=i.request_festive.request_on.date()'
p3904
sI99
S'        dat = i.report_absent.request_on.split()[0]'
p3905
sI100
S'        if dat in d:'
p3906
sI101
S'            d[dat]=d[dat]+[i]'
p3907
sI102
S'        else:'
p3908
sI103
S'            d[dat]=[i]'
p3909
sI94
S'def request_reservior_view():'
p3910
sI95
S'    s=db((db.request_collection.id>0) & (db.request_collection.user_id==db.auth_user.id) & (db.gmc_ward.user_id==auth.user.id)&(db.request_collection.pin==db.gmc_ward.pin)).select()'
p3911
ssg3821
S'()'
p3912
sg3823
S'request_reservior_view'
p3913
sasS'pyver'
p3914
S'Python 2.7.6: /usr/bin/python'
p3915
sS'session'
p3916
g57
(g58
g59
NtRp3917
(dp3918
g62
(dp3919
sg64
(lp3920
g57
(g66
g59
NtRp3921
(dp3922
g62
(dp3923
g70
I5
ssg71
Nsg64
(lp3924
g57
(g73
g59
NtRp3925
(dp3926
g62
(dp3927
sg71
g3921
sg64
(lp3928
g57
(g78
g59
NtRp3929
(dp3930
g62
(dp3931
g82
g83
ssg71
g3925
sg64
(lp3932
S'auth'
p3933
asbag57
(g78
g59
NtRp3934
(dp3935
g62
(dp3936
g89
g90
ssg71
g3925
sg64
(lp3937
S':'
asbag57
(g78
g59
NtRp3938
(dp3939
g62
(dp3940
sg71
g3925
sg64
(lp3941
g57
(g58
g59
NtRp3942
(dp3943
g62
(dp3944
g70
I5
ssg71
g3938
sg64
(lp3945
g57
(g66
g59
NtRp3946
(dp3947
g62
(dp3948
g70
I4
ssg71
Nsg64
(lp3949
g57
(g73
g59
NtRp3950
(dp3951
g62
(dp3952
sg71
g3946
sg64
(lp3953
g57
(g78
g59
NtRp3954
(dp3955
g62
(dp3956
g82
g83
ssg71
g3950
sg64
(lp3957
S'expiration'
p3958
asbag57
(g78
g59
NtRp3959
(dp3960
g62
(dp3961
g89
g90
ssg71
g3950
sg64
(lp3962
S':'
asbag57
(g78
g59
NtRp3963
(dp3964
g62
(dp3965
sg71
g3950
sg64
(lp3966
g57
(g58
g59
NtRp3967
(dp3968
g62
(dp3969
g70
I4
ssg71
g3963
sg64
(lp3970
S'3600'
p3971
asbasbasbag57
(g73
g59
NtRp3972
(dp3973
g62
(dp3974
sg71
g3946
sg64
(lp3975
g57
(g78
g59
NtRp3976
(dp3977
g62
(dp3978
g82
g83
ssg71
g3972
sg64
(lp3979
S'hmac_key'
p3980
asbag57
(g78
g59
NtRp3981
(dp3982
g62
(dp3983
g89
g90
ssg71
g3972
sg64
(lp3984
S':'
asbag57
(g78
g59
NtRp3985
(dp3986
g62
(dp3987
sg71
g3972
sg64
(lp3988
g57
(g58
g59
NtRp3989
(dp3990
g62
(dp3991
g70
I4
ssg71
g3985
sg64
(lp3992
S'd4d241e7-6afc-422e-a638-d1cb724bb071'
p3993
asbasbasbag57
(g73
g59
NtRp3994
(dp3995
g62
(dp3996
sg71
g3946
sg64
(lp3997
g57
(g78
g59
NtRp3998
(dp3999
g62
(dp4000
g82
g83
ssg71
g3994
sg64
(lp4001
S'last_visit'
p4002
asbag57
(g78
g59
NtRp4003
(dp4004
g62
(dp4005
g89
g90
ssg71
g3994
sg64
(lp4006
S':'
asbag57
(g78
g59
NtRp4007
(dp4008
g62
(dp4009
sg71
g3994
sg64
(lp4010
g57
(g58
g59
NtRp4011
(dp4012
g62
(dp4013
g70
I4
ssg71
g4007
sg64
(lp4014
S'datetime.datetime(2014, 9, 28, 13, 8, 15, 564831)'
p4015
asbasbasbag57
(g73
g59
NtRp4016
(dp4017
g62
(dp4018
sg71
g3946
sg64
(lp4019
g57
(g78
g59
NtRp4020
(dp4021
g62
(dp4022
g82
g83
ssg71
g4016
sg64
(lp4023
S'remember'
p4024
asbag57
(g78
g59
NtRp4025
(dp4026
g62
(dp4027
g89
g90
ssg71
g4016
sg64
(lp4028
S':'
asbag57
(g78
g59
NtRp4029
(dp4030
g62
(dp4031
sg71
g4016
sg64
(lp4032
g57
(g58
g59
NtRp4033
(dp4034
g62
(dp4035
g70
I4
ssg71
g4029
sg64
(lp4036
g100
asbasbasbag57
(g73
g59
NtRp4037
(dp4038
g62
(dp4039
sg71
g3946
sg64
(lp4040
g57
(g78
g59
NtRp4041
(dp4042
g62
(dp4043
g82
g83
ssg71
g4037
sg64
(lp4044
S'user'
p4045
asbag57
(g78
g59
NtRp4046
(dp4047
g62
(dp4048
g89
g90
ssg71
g4037
sg64
(lp4049
S':'
asbag57
(g78
g59
NtRp4050
(dp4051
g62
(dp4052
sg71
g4037
sg64
(lp4053
g57
(g58
g59
NtRp4054
(dp4055
g62
(dp4056
g70
I4
ssg71
g4050
sg64
(lp4057
g57
(g66
g59
NtRp4058
(dp4059
g62
(dp4060
g70
I3
ssg71
Nsg64
(lp4061
g57
(g73
g59
NtRp4062
(dp4063
g62
(dp4064
sg71
g4058
sg64
(lp4065
g57
(g78
g59
NtRp4066
(dp4067
g62
(dp4068
g82
g83
ssg71
g4062
sg64
(lp4069
S'email'
p4070
asbag57
(g78
g59
NtRp4071
(dp4072
g62
(dp4073
g89
g90
ssg71
g4062
sg64
(lp4074
S':'
asbag57
(g78
g59
NtRp4075
(dp4076
g62
(dp4077
sg71
g4062
sg64
(lp4078
g57
(g58
g59
NtRp4079
(dp4080
g62
(dp4081
g70
I3
ssg71
g4075
sg64
(lp4082
S'rahul@gmail.com'
p4083
asbasbasbag57
(g73
g59
NtRp4084
(dp4085
g62
(dp4086
sg71
g4058
sg64
(lp4087
g57
(g78
g59
NtRp4088
(dp4089
g62
(dp4090
g82
g83
ssg71
g4084
sg64
(lp4091
S'first_name'
p4092
asbag57
(g78
g59
NtRp4093
(dp4094
g62
(dp4095
g89
g90
ssg71
g4084
sg64
(lp4096
S':'
asbag57
(g78
g59
NtRp4097
(dp4098
g62
(dp4099
sg71
g4084
sg64
(lp4100
g57
(g58
g59
NtRp4101
(dp4102
g62
(dp4103
g70
I3
ssg71
g4097
sg64
(lp4104
S'Rahul'
p4105
asbasbasbag57
(g73
g59
NtRp4106
(dp4107
g62
(dp4108
sg71
g4058
sg64
(lp4109
g57
(g78
g59
NtRp4110
(dp4111
g62
(dp4112
g82
g83
ssg71
g4106
sg64
(lp4113
S'id'
p4114
asbag57
(g78
g59
NtRp4115
(dp4116
g62
(dp4117
g89
g90
ssg71
g4106
sg64
(lp4118
S':'
asbag57
(g78
g59
NtRp4119
(dp4120
g62
(dp4121
sg71
g4106
sg64
(lp4122
g57
(g58
g59
NtRp4123
(dp4124
g62
(dp4125
g70
I3
ssg71
g4119
sg64
(lp4126
S'5'
asbasbasbag57
(g73
g59
NtRp4127
(dp4128
g62
(dp4129
sg71
g4058
sg64
(lp4130
g57
(g78
g59
NtRp4131
(dp4132
g62
(dp4133
g82
g83
ssg71
g4127
sg64
(lp4134
S'last_name'
p4135
asbag57
(g78
g59
NtRp4136
(dp4137
g62
(dp4138
g89
g90
ssg71
g4127
sg64
(lp4139
S':'
asbag57
(g78
g59
NtRp4140
(dp4141
g62
(dp4142
sg71
g4127
sg64
(lp4143
g57
(g58
g59
NtRp4144
(dp4145
g62
(dp4146
g70
I3
ssg71
g4140
sg64
(lp4147
S'Sharma'
p4148
asbasbasbag57
(g73
g59
NtRp4149
(dp4150
g62
(dp4151
sg71
g4058
sg64
(lp4152
g57
(g78
g59
NtRp4153
(dp4154
g62
(dp4155
g82
g83
ssg71
g4149
sg64
(lp4156
S'registration_id'
p4157
asbag57
(g78
g59
NtRp4158
(dp4159
g62
(dp4160
g89
g90
ssg71
g4149
sg64
(lp4161
S':'
asbag57
(g78
g59
NtRp4162
(dp4163
g62
(dp4164
sg71
g4149
sg64
(lp4165
g57
(g58
g59
NtRp4166
(dp4167
g62
(dp4168
g70
I3
ssg71
g4162
sg64
(lp4169
S''
asbasbasbag57
(g73
g59
NtRp4170
(dp4171
g62
(dp4172
sg71
g4058
sg64
(lp4173
g57
(g78
g59
NtRp4174
(dp4175
g62
(dp4176
g82
g83
ssg71
g4170
sg64
(lp4177
S'registration_key'
p4178
asbag57
(g78
g59
NtRp4179
(dp4180
g62
(dp4181
g89
g90
ssg71
g4170
sg64
(lp4182
S':'
asbag57
(g78
g59
NtRp4183
(dp4184
g62
(dp4185
sg71
g4170
sg64
(lp4186
g57
(g58
g59
NtRp4187
(dp4188
g62
(dp4189
g70
I3
ssg71
g4183
sg64
(lp4190
S''
asbasbasbag57
(g73
g59
NtRp4191
(dp4192
g62
(dp4193
sg71
g4058
sg64
(lp4194
g57
(g78
g59
NtRp4195
(dp4196
g62
(dp4197
g82
g83
ssg71
g4191
sg64
(lp4198
S'reset_password_key'
p4199
asbag57
(g78
g59
NtRp4200
(dp4201
g62
(dp4202
g89
g90
ssg71
g4191
sg64
(lp4203
S':'
asbag57
(g78
g59
NtRp4204
(dp4205
g62
(dp4206
sg71
g4191
sg64
(lp4207
g57
(g58
g59
NtRp4208
(dp4209
g62
(dp4210
g70
I3
ssg71
g4204
sg64
(lp4211
S''
asbasbasbag57
(g73
g59
NtRp4212
(dp4213
g62
(dp4214
sg71
g4058
sg64
(lp4215
g57
(g78
g59
NtRp4216
(dp4217
g62
(dp4218
g82
g83
ssg71
g4212
sg64
(lp4219
S'username'
p4220
asbag57
(g78
g59
NtRp4221
(dp4222
g62
(dp4223
g89
g90
ssg71
g4212
sg64
(lp4224
S':'
asbag57
(g78
g59
NtRp4225
(dp4226
g62
(dp4227
sg71
g4212
sg64
(lp4228
g57
(g58
g59
NtRp4229
(dp4230
g62
(dp4231
g70
I3
ssg71
g4225
sg64
(lp4232
S'321567890'
p4233
asbasbasbasbasbasbasbag57
(g73
g59
NtRp4234
(dp4235
g62
(dp4236
sg71
g3946
sg64
(lp4237
g57
(g78
g59
NtRp4238
(dp4239
g62
(dp4240
g82
g83
ssg71
g4234
sg64
(lp4241
S'user_groups'
p4242
asbag57
(g78
g59
NtRp4243
(dp4244
g62
(dp4245
g89
g90
ssg71
g4234
sg64
(lp4246
S':'
asbag57
(g78
g59
NtRp4247
(dp4248
g62
(dp4249
sg71
g4234
sg64
(lp4250
g57
(g58
g59
NtRp4251
(dp4252
g62
(dp4253
g70
I4
ssg71
g4247
sg64
(lp4254
g57
(g66
g59
NtRp4255
(dp4256
g62
(dp4257
g70
I3
ssg71
Nsg64
(lp4258
g57
(g73
g59
NtRp4259
(dp4260
g62
(dp4261
sg71
g4255
sg64
(lp4262
g57
(g78
g59
NtRp4263
(dp4264
g62
(dp4265
g82
g83
ssg71
g4259
sg64
(lp4266
S'2'
asbag57
(g78
g59
NtRp4267
(dp4268
g62
(dp4269
g89
g90
ssg71
g4259
sg64
(lp4270
S':'
asbag57
(g78
g59
NtRp4271
(dp4272
g62
(dp4273
sg71
g4259
sg64
(lp4274
g57
(g58
g59
NtRp4275
(dp4276
g62
(dp4277
g70
I3
ssg71
g4271
sg64
(lp4278
S'ghmc_admin'
p4279
asbasbasbasbasbasbasbasbasbasbasbag57
(g73
g59
NtRp4280
(dp4281
g62
(dp4282
sg71
g3921
sg64
(lp4283
g57
(g78
g59
NtRp4284
(dp4285
g62
(dp4286
g82
g83
ssg71
g4280
sg64
(lp4287
S'flash'
p4288
asbag57
(g78
g59
NtRp4289
(dp4290
g62
(dp4291
g89
g90
ssg71
g4280
sg64
(lp4292
S':'
asbag57
(g78
g59
NtRp4293
(dp4294
g62
(dp4295
sg71
g4280
sg64
(lp4296
g57
(g58
g59
NtRp4297
(dp4298
g62
(dp4299
g70
I5
ssg71
g4293
sg64
(lp4300
S'None'
p4301
asbasbasbag57
(g73
g59
NtRp4302
(dp4303
g62
(dp4304
sg71
g3921
sg64
(lp4305
g57
(g78
g59
NtRp4306
(dp4307
g62
(dp4308
g82
g83
ssg71
g4302
sg64
(lp4309
S'last_orderby'
p4310
asbag57
(g78
g59
NtRp4311
(dp4312
g62
(dp4313
g89
g90
ssg71
g4302
sg64
(lp4314
S':'
asbag57
(g78
g59
NtRp4315
(dp4316
g62
(dp4317
sg71
g4302
sg64
(lp4318
g57
(g58
g59
NtRp4319
(dp4320
g62
(dp4321
g70
I5
ssg71
g4315
sg64
(lp4322
S'None'
p4323
asbasbasbag57
(g73
g59
NtRp4324
(dp4325
g62
(dp4326
sg71
g3921
sg64
(lp4327
g57
(g78
g59
NtRp4328
(dp4329
g62
(dp4330
g82
g83
ssg71
g4324
sg64
(lp4331
S'last_query'
p4332
asbag57
(g78
g59
NtRp4333
(dp4334
g62
(dp4335
g89
g90
ssg71
g4324
sg64
(lp4336
S':'
asbag57
(g78
g59
NtRp4337
(dp4338
g62
(dp4339
sg71
g4324
sg64
(lp4340
g57
(g58
g59
NtRp4341
(dp4342
g62
(dp4343
g70
I5
ssg71
g4337
sg64
(lp4344
S'db.gmc_det.id>0'
p4345
asbasbasbag57
(g73
g59
NtRp4346
(dp4347
g62
(dp4348
sg71
g3921
sg64
(lp4349
g57
(g78
g59
NtRp4350
(dp4351
g62
(dp4352
g82
g83
ssg71
g4346
sg64
(lp4353
S'user_id'
p4354
asbag57
(g78
g59
NtRp4355
(dp4356
g62
(dp4357
g89
g90
ssg71
g4346
sg64
(lp4358
S':'
asbag57
(g78
g59
NtRp4359
(dp4360
g62
(dp4361
sg71
g4346
sg64
(lp4362
g57
(g58
g59
NtRp4363
(dp4364
g62
(dp4365
g70
I5
ssg71
g4359
sg64
(lp4366
S'5'
asbasbasbag57
(g73
g59
NtRp4367
(dp4368
g62
(dp4369
sg71
g3921
sg64
(lp4370
g57
(g78
g59
NtRp4371
(dp4372
g62
(dp4373
g82
g83
ssg71
g4367
sg64
(lp4374
S'user_name'
p4375
asbag57
(g78
g59
NtRp4376
(dp4377
g62
(dp4378
g89
g90
ssg71
g4367
sg64
(lp4379
S':'
asbag57
(g78
g59
NtRp4380
(dp4381
g62
(dp4382
sg71
g4367
sg64
(lp4383
g57
(g58
g59
NtRp4384
(dp4385
g62
(dp4386
g70
I5
ssg71
g4380
sg64
(lp4387
g4105
asbasbasbasbasbsS'etype'
p4388
S"<type 'exceptions.AttributeError'>"
p4389
sS'date'
p4390
S'Sun Sep 28 13:08:17 2014'
p4391
sS'response'
p4392
g57
(g58
g59
NtRp4393
(dp4394
g62
(dp4395
sg64
(lp4396
g57
(g66
g59
NtRp4397
(dp4398
g62
(dp4399
g70
I5
ssg71
Nsg64
(lp4400
g57
(g73
g59
NtRp4401
(dp4402
g62
(dp4403
sg71
g4397
sg64
(lp4404
g57
(g78
g59
NtRp4405
(dp4406
g62
(dp4407
g82
g83
ssg71
g4401
sg64
(lp4408
g155
asbag57
(g78
g59
NtRp4409
(dp4410
g62
(dp4411
g89
g90
ssg71
g4401
sg64
(lp4412
S':'
asbag57
(g78
g59
NtRp4413
(dp4414
g62
(dp4415
sg71
g4401
sg64
(lp4416
g57
(g58
g59
NtRp4417
(dp4418
g62
(dp4419
g70
I5
ssg71
g4413
sg64
(lp4420
S'<cStringIO.StringO object at 0x7f9289621618>'
p4421
asbasbasbag57
(g73
g59
NtRp4422
(dp4423
g62
(dp4424
sg71
g4397
sg64
(lp4425
g57
(g78
g59
NtRp4426
(dp4427
g62
(dp4428
g82
g83
ssg71
g4422
sg64
(lp4429
g243
asbag57
(g78
g59
NtRp4430
(dp4431
g62
(dp4432
g89
g90
ssg71
g4422
sg64
(lp4433
S':'
asbag57
(g78
g59
NtRp4434
(dp4435
g62
(dp4436
sg71
g4422
sg64
(lp4437
g57
(g58
g59
NtRp4438
(dp4439
g62
(dp4440
g70
I5
ssg71
g4434
sg64
(lp4441
g57
(g66
g59
NtRp4442
(dp4443
g62
(dp4444
g70
I4
ssg71
Nsg64
(lp4445
g57
(g73
g59
NtRp4446
(dp4447
g62
(dp4448
sg71
g4442
sg64
(lp4449
g57
(g78
g59
NtRp4450
(dp4451
g62
(dp4452
g82
g83
ssg71
g4446
sg64
(lp4453
S'session_id_garbage_truck'
p4454
asbag57
(g78
g59
NtRp4455
(dp4456
g62
(dp4457
g89
g90
ssg71
g4446
sg64
(lp4458
S':'
asbag57
(g78
g59
NtRp4459
(dp4460
g62
(dp4461
sg71
g4446
sg64
(lp4462
g57
(g58
g59
NtRp4463
(dp4464
g62
(dp4465
g70
I4
ssg71
g4459
sg64
(lp4466
g661
ag57
(g66
g59
NtRp4467
(dp4468
g62
(dp4469
g70
I3
ssg71
Nsg64
(lp4470
g57
(g73
g59
NtRp4471
(dp4472
g62
(dp4473
sg71
g4467
sg64
(lp4474
g57
(g78
g59
NtRp4475
(dp4476
g62
(dp4477
g82
g83
ssg71
g4471
sg64
(lp4478
g294
asbag57
(g78
g59
NtRp4479
(dp4480
g62
(dp4481
g89
g90
ssg71
g4471
sg64
(lp4482
S':'
asbag57
(g78
g59
NtRp4483
(dp4484
g62
(dp4485
sg71
g4471
sg64
(lp4486
g57
(g58
g59
NtRp4487
(dp4488
g62
(dp4489
g70
I3
ssg71
g4483
sg64
(lp4490
S''
asbasbasbag57
(g73
g59
NtRp4491
(dp4492
g62
(dp4493
sg71
g4467
sg64
(lp4494
g57
(g78
g59
NtRp4495
(dp4496
g62
(dp4497
g82
g83
ssg71
g4491
sg64
(lp4498
g315
asbag57
(g78
g59
NtRp4499
(dp4500
g62
(dp4501
g89
g90
ssg71
g4491
sg64
(lp4502
S':'
asbag57
(g78
g59
NtRp4503
(dp4504
g62
(dp4505
sg71
g4491
sg64
(lp4506
g57
(g58
g59
NtRp4507
(dp4508
g62
(dp4509
g70
I3
ssg71
g4503
sg64
(lp4510
S''
asbasbasbag57
(g73
g59
NtRp4511
(dp4512
g62
(dp4513
sg71
g4467
sg64
(lp4514
g57
(g78
g59
NtRp4515
(dp4516
g62
(dp4517
g82
g83
ssg71
g4511
sg64
(lp4518
g336
asbag57
(g78
g59
NtRp4519
(dp4520
g62
(dp4521
g89
g90
ssg71
g4511
sg64
(lp4522
S':'
asbag57
(g78
g59
NtRp4523
(dp4524
g62
(dp4525
sg71
g4511
sg64
(lp4526
g57
(g58
g59
NtRp4527
(dp4528
g62
(dp4529
g70
I3
ssg71
g4523
sg64
(lp4530
S''
asbasbasbag57
(g73
g59
NtRp4531
(dp4532
g62
(dp4533
sg71
g4467
sg64
(lp4534
g57
(g78
g59
NtRp4535
(dp4536
g62
(dp4537
g82
g83
ssg71
g4531
sg64
(lp4538
g357
asbag57
(g78
g59
NtRp4539
(dp4540
g62
(dp4541
g89
g90
ssg71
g4531
sg64
(lp4542
S':'
asbag57
(g78
g59
NtRp4543
(dp4544
g62
(dp4545
sg71
g4531
sg64
(lp4546
g57
(g58
g59
NtRp4547
(dp4548
g62
(dp4549
g70
I3
ssg71
g4543
sg64
(lp4550
S''
asbasbasbag57
(g73
g59
NtRp4551
(dp4552
g62
(dp4553
sg71
g4467
sg64
(lp4554
g57
(g78
g59
NtRp4555
(dp4556
g62
(dp4557
g82
g83
ssg71
g4551
sg64
(lp4558
g378
asbag57
(g78
g59
NtRp4559
(dp4560
g62
(dp4561
g89
g90
ssg71
g4551
sg64
(lp4562
S':'
asbag57
(g78
g59
NtRp4563
(dp4564
g62
(dp4565
sg71
g4551
sg64
(lp4566
g57
(g58
g59
NtRp4567
(dp4568
g62
(dp4569
g70
I3
ssg71
g4563
sg64
(lp4570
S''
asbasbasbag57
(g73
g59
NtRp4571
(dp4572
g62
(dp4573
sg71
g4467
sg64
(lp4574
g57
(g78
g59
NtRp4575
(dp4576
g62
(dp4577
g82
g83
ssg71
g4571
sg64
(lp4578
g399
asbag57
(g78
g59
NtRp4579
(dp4580
g62
(dp4581
g89
g90
ssg71
g4571
sg64
(lp4582
S':'
asbag57
(g78
g59
NtRp4583
(dp4584
g62
(dp4585
sg71
g4571
sg64
(lp4586
g57
(g58
g59
NtRp4587
(dp4588
g62
(dp4589
g70
I3
ssg71
g4583
sg64
(lp4590
S'/'
asbasbasbag57
(g73
g59
NtRp4591
(dp4592
g62
(dp4593
sg71
g4467
sg64
(lp4594
g57
(g78
g59
NtRp4595
(dp4596
g62
(dp4597
g82
g83
ssg71
g4591
sg64
(lp4598
g420
asbag57
(g78
g59
NtRp4599
(dp4600
g62
(dp4601
g89
g90
ssg71
g4591
sg64
(lp4602
S':'
asbag57
(g78
g59
NtRp4603
(dp4604
g62
(dp4605
sg71
g4591
sg64
(lp4606
g57
(g58
g59
NtRp4607
(dp4608
g62
(dp4609
g70
I3
ssg71
g4603
sg64
(lp4610
S''
asbasbasbag57
(g73
g59
NtRp4611
(dp4612
g62
(dp4613
sg71
g4467
sg64
(lp4614
g57
(g78
g59
NtRp4615
(dp4616
g62
(dp4617
g82
g83
ssg71
g4611
sg64
(lp4618
g441
asbag57
(g78
g59
NtRp4619
(dp4620
g62
(dp4621
g89
g90
ssg71
g4611
sg64
(lp4622
S':'
asbag57
(g78
g59
NtRp4623
(dp4624
g62
(dp4625
sg71
g4611
sg64
(lp4626
g57
(g58
g59
NtRp4627
(dp4628
g62
(dp4629
g70
I3
ssg71
g4623
sg64
(lp4630
S''
asbasbasbasbasbasbasbasbasbasbasbag57
(g73
g59
NtRp4631
(dp4632
g62
(dp4633
sg71
g4397
sg64
(lp4634
g57
(g78
g59
NtRp4635
(dp4636
g62
(dp4637
g82
g83
ssg71
g4631
sg64
(lp4638
S'delimiters'
p4639
asbag57
(g78
g59
NtRp4640
(dp4641
g62
(dp4642
g89
g90
ssg71
g4631
sg64
(lp4643
S':'
asbag57
(g78
g59
NtRp4644
(dp4645
g62
(dp4646
sg71
g4631
sg64
(lp4647
g57
(g58
g59
NtRp4648
(dp4649
g62
(dp4650
g70
I5
ssg71
g4644
sg64
(lp4651
g57
(g66
g59
NtRp4652
(dp4653
g62
(dp4654
g70
I4
ssg71
Nsg64
(lp4655
g57
(g73
g59
NtRp4656
(dp4657
g62
(dp4658
sg71
g4652
sg64
(lp4659
g57
(g78
g59
NtRp4660
(dp4661
g62
(dp4662
sg71
g4656
sg64
(lp4663
g57
(g58
g59
NtRp4664
(dp4665
g62
(dp4666
g70
I4
ssg71
g4660
sg64
(lp4667
S'{{'
p4668
asbasbasbag57
(g73
g59
NtRp4669
(dp4670
g62
(dp4671
sg71
g4652
sg64
(lp4672
g57
(g78
g59
NtRp4673
(dp4674
g62
(dp4675
sg71
g4669
sg64
(lp4676
g57
(g58
g59
NtRp4677
(dp4678
g62
(dp4679
g70
I4
ssg71
g4673
sg64
(lp4680
S'}}'
p4681
asbasbasbasbasbasbasbag57
(g73
g59
NtRp4682
(dp4683
g62
(dp4684
sg71
g4397
sg64
(lp4685
g57
(g78
g59
NtRp4686
(dp4687
g62
(dp4688
g82
g83
ssg71
g4682
sg64
(lp4689
S'files'
p4690
asbag57
(g78
g59
NtRp4691
(dp4692
g62
(dp4693
g89
g90
ssg71
g4682
sg64
(lp4694
S':'
asbag57
(g78
g59
NtRp4695
(dp4696
g62
(dp4697
sg71
g4682
sg64
(lp4698
g57
(g58
g59
NtRp4699
(dp4700
g62
(dp4701
g70
I5
ssg71
g4695
sg64
(lp4702
g57
(g66
g59
NtRp4703
(dp4704
g62
(dp4705
g70
I4
ssg71
Nsg64
(lp4706
sbasbasbasbag57
(g73
g59
NtRp4707
(dp4708
g62
(dp4709
sg71
g4397
sg64
(lp4710
g57
(g78
g59
NtRp4711
(dp4712
g62
(dp4713
g82
g83
ssg71
g4707
sg64
(lp4714
S'flash'
p4715
asbag57
(g78
g59
NtRp4716
(dp4717
g62
(dp4718
g89
g90
ssg71
g4707
sg64
(lp4719
S':'
asbag57
(g78
g59
NtRp4720
(dp4721
g62
(dp4722
sg71
g4707
sg64
(lp4723
g57
(g58
g59
NtRp4724
(dp4725
g62
(dp4726
g70
I5
ssg71
g4720
sg64
(lp4727
S''
asbasbasbag57
(g73
g59
NtRp4728
(dp4729
g62
(dp4730
sg71
g4397
sg64
(lp4731
g57
(g78
g59
NtRp4732
(dp4733
g62
(dp4734
g82
g83
ssg71
g4728
sg64
(lp4735
S'generic_patterns'
p4736
asbag57
(g78
g59
NtRp4737
(dp4738
g62
(dp4739
g89
g90
ssg71
g4728
sg64
(lp4740
S':'
asbag57
(g78
g59
NtRp4741
(dp4742
g62
(dp4743
sg71
g4728
sg64
(lp4744
g57
(g58
g59
NtRp4745
(dp4746
g62
(dp4747
g70
I5
ssg71
g4741
sg64
(lp4748
g57
(g66
g59
NtRp4749
(dp4750
g62
(dp4751
g70
I4
ssg71
Nsg64
(lp4752
g57
(g73
g59
NtRp4753
(dp4754
g62
(dp4755
sg71
g4749
sg64
(lp4756
g57
(g78
g59
NtRp4757
(dp4758
g62
(dp4759
sg71
g4753
sg64
(lp4760
g57
(g58
g59
NtRp4761
(dp4762
g62
(dp4763
g70
I4
ssg71
g4757
sg64
(lp4764
S'*'
asbasbasbasbasbasbasbag57
(g73
g59
NtRp4765
(dp4766
g62
(dp4767
sg71
g4397
sg64
(lp4768
g57
(g78
g59
NtRp4769
(dp4770
g62
(dp4771
g82
g83
ssg71
g4765
sg64
(lp4772
S'google_analytics_id'
p4773
asbag57
(g78
g59
NtRp4774
(dp4775
g62
(dp4776
g89
g90
ssg71
g4765
sg64
(lp4777
S':'
asbag57
(g78
g59
NtRp4778
(dp4779
g62
(dp4780
sg71
g4765
sg64
(lp4781
g57
(g58
g59
NtRp4782
(dp4783
g62
(dp4784
g70
I5
ssg71
g4778
sg64
(lp4785
S'None'
p4786
asbasbasbag57
(g73
g59
NtRp4787
(dp4788
g62
(dp4789
sg71
g4397
sg64
(lp4790
g57
(g78
g59
NtRp4791
(dp4792
g62
(dp4793
g82
g83
ssg71
g4787
sg64
(lp4794
S'headers'
p4795
asbag57
(g78
g59
NtRp4796
(dp4797
g62
(dp4798
g89
g90
ssg71
g4787
sg64
(lp4799
S':'
asbag57
(g78
g59
NtRp4800
(dp4801
g62
(dp4802
sg71
g4787
sg64
(lp4803
g57
(g58
g59
NtRp4804
(dp4805
g62
(dp4806
g70
I5
ssg71
g4800
sg64
(lp4807
g57
(g66
g59
NtRp4808
(dp4809
g62
(dp4810
g70
I4
ssg71
Nsg64
(lp4811
g57
(g73
g59
NtRp4812
(dp4813
g62
(dp4814
sg71
g4808
sg64
(lp4815
g57
(g78
g59
NtRp4816
(dp4817
g62
(dp4818
g82
g83
ssg71
g4812
sg64
(lp4819
S'X-Powered-By'
p4820
asbag57
(g78
g59
NtRp4821
(dp4822
g62
(dp4823
g89
g90
ssg71
g4812
sg64
(lp4824
S':'
asbag57
(g78
g59
NtRp4825
(dp4826
g62
(dp4827
sg71
g4812
sg64
(lp4828
g57
(g58
g59
NtRp4829
(dp4830
g62
(dp4831
g70
I4
ssg71
g4825
sg64
(lp4832
S'web2py'
p4833
asbasbasbasbasbasbasbag57
(g73
g59
NtRp4834
(dp4835
g62
(dp4836
sg71
g4397
sg64
(lp4837
g57
(g78
g59
NtRp4838
(dp4839
g62
(dp4840
g82
g83
ssg71
g4834
sg64
(lp4841
S'logo'
p4842
asbag57
(g78
g59
NtRp4843
(dp4844
g62
(dp4845
g89
g90
ssg71
g4834
sg64
(lp4846
S':'
asbag57
(g78
g59
NtRp4847
(dp4848
g62
(dp4849
sg71
g4834
sg64
(lp4850
g57
(g58
g59
NtRp4851
(dp4852
g62
(dp4853
g70
I5
ssg71
g4847
sg64
(lp4854
g57
(cgluon.html
A
p4855
g59
NtRp4856
(dp4857
g62
(dp4858
S'_class'
p4859
S'brand'
p4860
sS'_href'
p4861
S'http://www.web2py.com/'
p4862
ssg71
Nsg64
(lp4863
g57
(cgluon.html
B
p4864
g59
NtRp4865
(dp4866
g62
(dp4867
sg71
g4856
sg64
(lp4868
S'web'
p4869
ag57
(cgluon.html
SPAN
p4870
g59
NtRp4871
(dp4872
g62
(dp4873
sg71
g4865
sg64
(lp4874
I2
asbaS'py'
p4875
asbacgluon.html
XML_unpickle
p4876
(S's\r\x00\x00\x00&trade;&nbsp;'
tRp4877
asbasbasbasbag57
(g73
g59
NtRp4878
(dp4879
g62
(dp4880
sg71
g4397
sg64
(lp4881
g57
(g78
g59
NtRp4882
(dp4883
g62
(dp4884
g82
g83
ssg71
g4878
sg64
(lp4885
S'menu'
p4886
asbag57
(g78
g59
NtRp4887
(dp4888
g62
(dp4889
g89
g90
ssg71
g4878
sg64
(lp4890
S':'
asbag57
(g78
g59
NtRp4891
(dp4892
g62
(dp4893
sg71
g4878
sg64
(lp4894
g57
(g58
g59
NtRp4895
(dp4896
g62
(dp4897
g70
I5
ssg71
g4891
sg64
(lp4898
g57
(g66
g59
NtRp4899
(dp4900
g62
(dp4901
g70
I4
ssg71
Nsg64
(lp4902
g57
(g73
g59
NtRp4903
(dp4904
g62
(dp4905
sg71
g4899
sg64
(lp4906
g57
(g78
g59
NtRp4907
(dp4908
g62
(dp4909
sg71
g4903
sg64
(lp4910
g57
(g58
g59
NtRp4911
(dp4912
g62
(dp4913
g70
I4
ssg71
g4907
sg64
(lp4914
g57
(g66
g59
NtRp4915
(dp4916
g62
(dp4917
g70
I3
ssg71
Nsg64
(lp4918
g57
(g73
g59
NtRp4919
(dp4920
g62
(dp4921
sg71
g4915
sg64
(lp4922
g57
(g78
g59
NtRp4923
(dp4924
g62
(dp4925
sg71
g4919
sg64
(lp4926
g57
(g58
g59
NtRp4927
(dp4928
g62
(dp4929
g70
I3
ssg71
g4923
sg64
(lp4930
cgluon.languages
lazyT_unpickle
p4931
(S's\x04\x00\x00\x00Home'
tRp4932
asbasbasbag57
(g73
g59
NtRp4933
(dp4934
g62
(dp4935
sg71
g4915
sg64
(lp4936
g57
(g78
g59
NtRp4937
(dp4938
g62
(dp4939
sg71
g4933
sg64
(lp4940
g57
(g58
g59
NtRp4941
(dp4942
g62
(dp4943
g70
I3
ssg71
g4937
sg64
(lp4944
g100
asbasbasbag57
(g73
g59
NtRp4945
(dp4946
g62
(dp4947
sg71
g4915
sg64
(lp4948
g57
(g78
g59
NtRp4949
(dp4950
g62
(dp4951
sg71
g4945
sg64
(lp4952
g57
(g58
g59
NtRp4953
(dp4954
g62
(dp4955
g70
I3
ssg71
g4949
sg64
(lp4956
S'/Garbage_Truck/default/index'
p4957
asbasbasbag57
(g73
g59
NtRp4958
(dp4959
g62
(dp4960
sg71
g4915
sg64
(lp4961
g57
(g78
g59
NtRp4962
(dp4963
g62
(dp4964
sg71
g4958
sg64
(lp4965
g57
(g58
g59
NtRp4966
(dp4967
g62
(dp4968
g70
I3
ssg71
g4962
sg64
(lp4969
g57
(g66
g59
NtRp4970
(dp4971
g62
(dp4972
g70
I2
ssg71
Nsg64
(lp4973
sbasbasbasbasbasbasbasbag57
(g73
g59
NtRp4974
(dp4975
g62
(dp4976
sg71
g4899
sg64
(lp4977
g57
(g78
g59
NtRp4978
(dp4979
g62
(dp4980
sg71
g4974
sg64
(lp4981
g57
(g58
g59
NtRp4982
(dp4983
g62
(dp4984
g70
I4
ssg71
g4978
sg64
(lp4985
g57
(g66
g59
NtRp4986
(dp4987
g62
(dp4988
g70
I3
ssg71
Nsg64
(lp4989
g57
(g73
g59
NtRp4990
(dp4991
g62
(dp4992
sg71
g4986
sg64
(lp4993
g57
(g78
g59
NtRp4994
(dp4995
g62
(dp4996
sg71
g4990
sg64
(lp4997
g57
(g58
g59
NtRp4998
(dp4999
g62
(dp5000
g70
I3
ssg71
g4994
sg64
(lp5001
g57
(g4870
g59
NtRp5002
(dp5003
g62
(dp5004
g4859
S'highlighted'
p5005
ssg71
Nsg64
(lp5006
g4833
asbasbasbasbag57
(g73
g59
NtRp5007
(dp5008
g62
(dp5009
sg71
g4986
sg64
(lp5010
g57
(g78
g59
NtRp5011
(dp5012
g62
(dp5013
sg71
g5007
sg64
(lp5014
g57
(g58
g59
NtRp5015
(dp5016
g62
(dp5017
g70
I3
ssg71
g5011
sg64
(lp5018
g100
asbasbasbag57
(g73
g59
NtRp5019
(dp5020
g62
(dp5021
sg71
g4986
sg64
(lp5022
g57
(g78
g59
NtRp5023
(dp5024
g62
(dp5025
sg71
g5019
sg64
(lp5026
g57
(g58
g59
NtRp5027
(dp5028
g62
(dp5029
g70
I3
ssg71
g5023
sg64
(lp5030
S'http://web2py.com'
p5031
asbasbasbag57
(g73
g59
NtRp5032
(dp5033
g62
(dp5034
sg71
g4986
sg64
(lp5035
g57
(g78
g59
NtRp5036
(dp5037
g62
(dp5038
sg71
g5032
sg64
(lp5039
g57
(g58
g59
NtRp5040
(dp5041
g62
(dp5042
g70
I3
ssg71
g5036
sg64
(lp5043
g57
(g66
g59
NtRp5044
(dp5045
g62
(dp5046
g70
I2
ssg71
Nsg64
(lp5047
g57
(g73
g59
NtRp5048
(dp5049
g62
(dp5050
sg71
g5044
sg64
(lp5051
g57
(g78
g59
NtRp5052
(dp5053
g62
(dp5054
sg71
g5048
sg64
(lp5055
g57
(g58
g59
NtRp5056
(dp5057
g62
(dp5058
g70
I2
ssg71
g5052
sg64
(lp5059
g57
(g66
g59
NtRp5060
(dp5061
g62
(dp5062
g70
I1
ssg71
Nsg64
(lp5063
g57
(g73
g59
NtRp5064
(dp5065
g62
(dp5066
sg71
g5060
sg64
(lp5067
g57
(g78
g59
NtRp5068
(dp5069
g62
(dp5070
sg71
g5064
sg64
(lp5071
g57
(g58
g59
NtRp5072
(dp5073
g62
(dp5074
g70
I1
ssg71
g5068
sg64
(lp5075
g4931
(S's\x08\x00\x00\x00My Sites'
tRp5076
asbasbasbag57
(g73
g59
NtRp5077
(dp5078
g62
(dp5079
sg71
g5060
sg64
(lp5080
g57
(g78
g59
NtRp5081
(dp5082
g62
(dp5083
sg71
g5077
sg64
(lp5084
g57
(g58
g59
NtRp5085
(dp5086
g62
(dp5087
g70
I1
ssg71
g5081
sg64
(lp5088
I00
asbasbasbag57
(g73
g59
NtRp5089
(dp5090
g62
(dp5091
sg71
g5060
sg64
(lp5092
g57
(g78
g59
NtRp5093
(dp5094
g62
(dp5095
sg71
g5089
sg64
(lp5096
g57
(g58
g59
NtRp5097
(dp5098
g62
(dp5099
g70
I1
ssg71
g5093
sg64
(lp5100
S'/admin/default/site'
p5101
asbasbasbasbasbasbasbag57
(g73
g59
NtRp5102
(dp5103
g62
(dp5104
sg71
g5044
sg64
(lp5105
g57
(g78
g59
NtRp5106
(dp5107
g62
(dp5108
sg71
g5102
sg64
(lp5109
g57
(g58
g59
NtRp5110
(dp5111
g62
(dp5112
g70
I2
ssg71
g5106
sg64
(lp5113
g57
(g66
g59
NtRp5114
(dp5115
g62
(dp5116
g70
I1
ssg71
Nsg64
(lp5117
g57
(g73
g59
NtRp5118
(dp5119
g62
(dp5120
sg71
g5114
sg64
(lp5121
g57
(g78
g59
NtRp5122
(dp5123
g62
(dp5124
sg71
g5118
sg64
(lp5125
g57
(g58
g59
NtRp5126
(dp5127
g62
(dp5128
g70
I1
ssg71
g5122
sg64
(lp5129
g4931
(S's\x08\x00\x00\x00This App'
tRp5130
asbasbasbag57
(g73
g59
NtRp5131
(dp5132
g62
(dp5133
sg71
g5114
sg64
(lp5134
g57
(g78
g59
NtRp5135
(dp5136
g62
(dp5137
sg71
g5131
sg64
(lp5138
g57
(g58
g59
NtRp5139
(dp5140
g62
(dp5141
g70
I1
ssg71
g5135
sg64
(lp5142
I00
asbasbasbag57
(g73
g59
NtRp5143
(dp5144
g62
(dp5145
sg71
g5114
sg64
(lp5146
g57
(g78
g59
NtRp5147
(dp5148
g62
(dp5149
sg71
g5143
sg64
(lp5150
g57
(g58
g59
NtRp5151
(dp5152
g62
(dp5153
g70
I1
ssg71
g5147
sg64
(lp5154
S'/admin/default/design/Garbage_Truck'
p5155
asbasbasbag57
(g73
g59
NtRp5156
(dp5157
g62
(dp5158
sg71
g5114
sg64
(lp5159
g57
(g78
g59
NtRp5160
(dp5161
g62
(dp5162
sg71
g5156
sg64
(lp5163
g57
(g58
g59
NtRp5164
(dp5165
g62
(dp5166
g70
I1
ssg71
g5160
sg64
(lp5167
(lp5168
(g4931
(S's\n\x00\x00\x00Controller'
tRp5169
I00
S'/admin/default/edit/Garbage_Truck/controllers/default.py'
tp5170
a(g4931
(S's\x04\x00\x00\x00View'
tRp5171
I00
S'/admin/default/edit/Garbage_Truck/views/default/request_reservior_view.html'
tp5172
a(g4931
(S's\x06\x00\x00\x00Layout'
tRp5173
I00
S'/admin/default/edit/Garbage_Truck/views/layout.html'
tp5174
a(g4931
(S's\n\x00\x00\x00Stylesheet'
tRp5175
I00
S'/admin/default/edit/Garbage_Truck/static/css/web2py.css'
tp5176
a(g4931
(S's\x08\x00\x00\x00DB Model'
tRp5177
I00
S'/admin/default/edit/Garbage_Truck/models/db.py'
tp5178
a(g4931
(S's\n\x00\x00\x00Menu Model'
tRp5179
I00
S'/admin/default/edit/Garbage_Truck/models/menu.py'
tp5180
a(g4931
(S's\x08\x00\x00\x00Database'
tRp5181
I00
S'/Garbage_Truck/appadmin/index'
tp5182
a(g4931
(S's\x06\x00\x00\x00Errors'
tRp5183
I00
S'/admin/default/errors/Garbage_Truck'
tp5184
a(g4931
(S's\x05\x00\x00\x00About'
tRp5185
I00
S'/admin/default/about/Garbage_Truck'
tp5186
aasbasbasbasbasbasbasbag57
(g73
g59
NtRp5187
(dp5188
g62
(dp5189
sg71
g5044
sg64
(lp5190
g57
(g78
g59
NtRp5191
(dp5192
g62
(dp5193
sg71
g5187
sg64
(lp5194
g57
(g58
g59
NtRp5195
(dp5196
g62
(dp5197
g70
I2
ssg71
g5191
sg64
(lp5198
g57
(g66
g59
NtRp5199
(dp5200
g62
(dp5201
g70
I1
ssg71
Nsg64
(lp5202
g57
(g73
g59
NtRp5203
(dp5204
g62
(dp5205
sg71
g5199
sg64
(lp5206
g57
(g78
g59
NtRp5207
(dp5208
g62
(dp5209
sg71
g5203
sg64
(lp5210
g57
(g58
g59
NtRp5211
(dp5212
g62
(dp5213
g70
I1
ssg71
g5207
sg64
(lp5214
S'web2py.com'
p5215
asbasbasbag57
(g73
g59
NtRp5216
(dp5217
g62
(dp5218
sg71
g5199
sg64
(lp5219
g57
(g78
g59
NtRp5220
(dp5221
g62
(dp5222
sg71
g5216
sg64
(lp5223
g57
(g58
g59
NtRp5224
(dp5225
g62
(dp5226
g70
I1
ssg71
g5220
sg64
(lp5227
I00
asbasbasbag57
(g73
g59
NtRp5228
(dp5229
g62
(dp5230
sg71
g5199
sg64
(lp5231
g57
(g78
g59
NtRp5232
(dp5233
g62
(dp5234
sg71
g5228
sg64
(lp5235
g57
(g58
g59
NtRp5236
(dp5237
g62
(dp5238
g70
I1
ssg71
g5232
sg64
(lp5239
S'http://www.web2py.com'
p5240
asbasbasbag57
(g73
g59
NtRp5241
(dp5242
g62
(dp5243
sg71
g5199
sg64
(lp5244
g57
(g78
g59
NtRp5245
(dp5246
g62
(dp5247
sg71
g5241
sg64
(lp5248
g57
(g58
g59
NtRp5249
(dp5250
g62
(dp5251
g70
I1
ssg71
g5245
sg64
(lp5252
(lp5253
(g4931
(S's\x08\x00\x00\x00Download'
tRp5254
I00
S'http://www.web2py.com/examples/default/download'
p5255
tp5256
a(g4931
(S's\x07\x00\x00\x00Support'
tRp5257
I00
S'http://www.web2py.com/examples/default/support'
p5258
tp5259
a(g4931
(S's\x04\x00\x00\x00Demo'
tRp5260
I00
S'http://web2py.com/demo_admin'
p5261
tp5262
a(g4931
(S's\x0e\x00\x00\x00Quick Examples'
tRp5263
I00
S'http://web2py.com/examples/default/examples'
p5264
tp5265
a(g4931
(S's\x03\x00\x00\x00FAQ'
tRp5266
I00
S'http://web2py.com/AlterEgo'
p5267
tp5268
a(g4931
(S's\x06\x00\x00\x00Videos'
tRp5269
I00
S'http://www.web2py.com/examples/default/videos/'
p5270
tp5271
a(g4931
(S's\x11\x00\x00\x00Free Applications'
tRp5272
I00
S'http://web2py.com/appliances'
p5273
tp5274
a(g4931
(S's\x07\x00\x00\x00Plugins'
tRp5275
I00
S'http://web2py.com/plugins'
p5276
tp5277
a(g4931
(S's\x07\x00\x00\x00Layouts'
tRp5278
I00
S'http://web2py.com/layouts'
p5279
tp5280
a(g4931
(S's\x07\x00\x00\x00Recipes'
tRp5281
I00
S'http://web2pyslices.com/'
p5282
tp5283
a(g4931
(S's\x08\x00\x00\x00Semantic'
tRp5284
I00
S'http://web2py.com/semantic'
p5285
tp5286
aasbasbasbasbasbasbasbag57
(g73
g59
NtRp5287
(dp5288
g62
(dp5289
sg71
g5044
sg64
(lp5290
g57
(g78
g59
NtRp5291
(dp5292
g62
(dp5293
sg71
g5287
sg64
(lp5294
g57
(g58
g59
NtRp5295
(dp5296
g62
(dp5297
g70
I2
ssg71
g5291
sg64
(lp5298
g57
(g66
g59
NtRp5299
(dp5300
g62
(dp5301
g70
I1
ssg71
Nsg64
(lp5302
g57
(g73
g59
NtRp5303
(dp5304
g62
(dp5305
sg71
g5299
sg64
(lp5306
g57
(g78
g59
NtRp5307
(dp5308
g62
(dp5309
sg71
g5303
sg64
(lp5310
g57
(g58
g59
NtRp5311
(dp5312
g62
(dp5313
g70
I1
ssg71
g5307
sg64
(lp5314
g4931
(S's\r\x00\x00\x00Documentation'
tRp5315
asbasbasbag57
(g73
g59
NtRp5316
(dp5317
g62
(dp5318
sg71
g5299
sg64
(lp5319
g57
(g78
g59
NtRp5320
(dp5321
g62
(dp5322
sg71
g5316
sg64
(lp5323
g57
(g58
g59
NtRp5324
(dp5325
g62
(dp5326
g70
I1
ssg71
g5320
sg64
(lp5327
I00
asbasbasbag57
(g73
g59
NtRp5328
(dp5329
g62
(dp5330
sg71
g5299
sg64
(lp5331
g57
(g78
g59
NtRp5332
(dp5333
g62
(dp5334
sg71
g5328
sg64
(lp5335
g57
(g58
g59
NtRp5336
(dp5337
g62
(dp5338
g70
I1
ssg71
g5332
sg64
(lp5339
S'http://www.web2py.com/book'
p5340
asbasbasbag57
(g73
g59
NtRp5341
(dp5342
g62
(dp5343
sg71
g5299
sg64
(lp5344
g57
(g78
g59
NtRp5345
(dp5346
g62
(dp5347
sg71
g5341
sg64
(lp5348
g57
(g58
g59
NtRp5349
(dp5350
g62
(dp5351
g70
I1
ssg71
g5345
sg64
(lp5352
(lp5353
(g4931
(S's\x07\x00\x00\x00Preface'
tRp5354
I00
S'http://www.web2py.com/book/default/chapter/00'
p5355
tp5356
a(g4931
(S's\x0c\x00\x00\x00Introduction'
tRp5357
I00
S'http://www.web2py.com/book/default/chapter/01'
p5358
tp5359
a(g4931
(S's\x06\x00\x00\x00Python'
tRp5360
I00
S'http://www.web2py.com/book/default/chapter/02'
p5361
tp5362
a(g4931
(S's\x08\x00\x00\x00Overview'
tRp5363
I00
S'http://www.web2py.com/book/default/chapter/03'
p5364
tp5365
a(g4931
(S's\x08\x00\x00\x00The Core'
tRp5366
I00
S'http://www.web2py.com/book/default/chapter/04'
p5367
tp5368
a(g4931
(S's\t\x00\x00\x00The Views'
tRp5369
I00
S'http://www.web2py.com/book/default/chapter/05'
p5370
tp5371
a(g4931
(S's\x08\x00\x00\x00Database'
tRp5372
I00
S'http://www.web2py.com/book/default/chapter/06'
p5373
tp5374
a(g4931
(S's\x14\x00\x00\x00Forms and Validators'
tRp5375
I00
S'http://www.web2py.com/book/default/chapter/07'
p5376
tp5377
a(g4931
(S's\r\x00\x00\x00Email and SMS'
tRp5378
I00
S'http://www.web2py.com/book/default/chapter/08'
p5379
tp5380
a(g4931
(S's\x0e\x00\x00\x00Access Control'
tRp5381
I00
S'http://www.web2py.com/book/default/chapter/09'
p5382
tp5383
a(g4931
(S's\x08\x00\x00\x00Services'
tRp5384
I00
S'http://www.web2py.com/book/default/chapter/10'
p5385
tp5386
a(g4931
(S's\x0c\x00\x00\x00Ajax Recipes'
tRp5387
I00
S'http://www.web2py.com/book/default/chapter/11'
p5388
tp5389
a(g4931
(S's\x16\x00\x00\x00Components and Plugins'
tRp5390
I00
S'http://www.web2py.com/book/default/chapter/12'
p5391
tp5392
a(g4931
(S's\x12\x00\x00\x00Deployment Recipes'
tRp5393
I00
S'http://www.web2py.com/book/default/chapter/13'
p5394
tp5395
a(g4931
(S's\r\x00\x00\x00Other Recipes'
tRp5396
I00
S'http://www.web2py.com/book/default/chapter/14'
p5397
tp5398
a(g4931
(S's\r\x00\x00\x00Buy this book'
tRp5399
I00
S'http://stores.lulu.com/web2py'
p5400
tp5401
aasbasbasbasbasbasbasbag57
(g73
g59
NtRp5402
(dp5403
g62
(dp5404
sg71
g5044
sg64
(lp5405
g57
(g78
g59
NtRp5406
(dp5407
g62
(dp5408
sg71
g5402
sg64
(lp5409
g57
(g58
g59
NtRp5410
(dp5411
g62
(dp5412
g70
I2
ssg71
g5406
sg64
(lp5413
g57
(g66
g59
NtRp5414
(dp5415
g62
(dp5416
g70
I1
ssg71
Nsg64
(lp5417
g57
(g73
g59
NtRp5418
(dp5419
g62
(dp5420
sg71
g5414
sg64
(lp5421
g57
(g78
g59
NtRp5422
(dp5423
g62
(dp5424
sg71
g5418
sg64
(lp5425
g57
(g58
g59
NtRp5426
(dp5427
g62
(dp5428
g70
I1
ssg71
g5422
sg64
(lp5429
g4931
(S's\t\x00\x00\x00Community'
tRp5430
asbasbasbag57
(g73
g59
NtRp5431
(dp5432
g62
(dp5433
sg71
g5414
sg64
(lp5434
g57
(g78
g59
NtRp5435
(dp5436
g62
(dp5437
sg71
g5431
sg64
(lp5438
g57
(g58
g59
NtRp5439
(dp5440
g62
(dp5441
g70
I1
ssg71
g5435
sg64
(lp5442
I00
asbasbasbag57
(g73
g59
NtRp5443
(dp5444
g62
(dp5445
sg71
g5414
sg64
(lp5446
g57
(g78
g59
NtRp5447
(dp5448
g62
(dp5449
sg71
g5443
sg64
(lp5450
g57
(g58
g59
NtRp5451
(dp5452
g62
(dp5453
g70
I1
ssg71
g5447
sg64
(lp5454
Nasbasbasbag57
(g73
g59
NtRp5455
(dp5456
g62
(dp5457
sg71
g5414
sg64
(lp5458
g57
(g78
g59
NtRp5459
(dp5460
g62
(dp5461
sg71
g5455
sg64
(lp5462
g57
(g58
g59
NtRp5463
(dp5464
g62
(dp5465
g70
I1
ssg71
g5459
sg64
(lp5466
(lp5467
(g4931
(S's\x06\x00\x00\x00Groups'
tRp5468
I00
S'http://www.web2py.com/examples/default/usergroups'
p5469
tp5470
a(g4931
(S's\x07\x00\x00\x00Twitter'
tRp5471
I00
S'http://twitter.com/web2py'
p5472
tp5473
a(g4931
(S's\t\x00\x00\x00Live Chat'
tRp5474
I00
S'http://webchat.freenode.net/?channels=web2py'
p5475
tp5476
aasbasbasbasbasbasbasbag57
(g73
g59
NtRp5477
(dp5478
g62
(dp5479
sg71
g5044
sg64
(lp5480
g57
(g78
g59
NtRp5481
(dp5482
g62
(dp5483
sg71
g5477
sg64
(lp5484
g57
(g58
g59
NtRp5485
(dp5486
g62
(dp5487
g70
I2
ssg71
g5481
sg64
(lp5488
g57
(g66
g59
NtRp5489
(dp5490
g62
(dp5491
g70
I1
ssg71
Nsg64
(lp5492
g57
(g73
g59
NtRp5493
(dp5494
g62
(dp5495
sg71
g5489
sg64
(lp5496
g57
(g78
g59
NtRp5497
(dp5498
g62
(dp5499
sg71
g5493
sg64
(lp5500
g57
(g58
g59
NtRp5501
(dp5502
g62
(dp5503
g70
I1
ssg71
g5497
sg64
(lp5504
g4931
(S's\x07\x00\x00\x00Plugins'
tRp5505
asbasbasbag57
(g73
g59
NtRp5506
(dp5507
g62
(dp5508
sg71
g5489
sg64
(lp5509
g57
(g78
g59
NtRp5510
(dp5511
g62
(dp5512
sg71
g5506
sg64
(lp5513
g57
(g58
g59
NtRp5514
(dp5515
g62
(dp5516
g70
I1
ssg71
g5510
sg64
(lp5517
I00
asbasbasbag57
(g73
g59
NtRp5518
(dp5519
g62
(dp5520
sg71
g5489
sg64
(lp5521
g57
(g78
g59
NtRp5522
(dp5523
g62
(dp5524
sg71
g5518
sg64
(lp5525
g57
(g58
g59
NtRp5526
(dp5527
g62
(dp5528
g70
I1
ssg71
g5522
sg64
(lp5529
Nasbasbasbag57
(g73
g59
NtRp5530
(dp5531
g62
(dp5532
sg71
g5489
sg64
(lp5533
g57
(g78
g59
NtRp5534
(dp5535
g62
(dp5536
sg71
g5530
sg64
(lp5537
g57
(g58
g59
NtRp5538
(dp5539
g62
(dp5540
g70
I1
ssg71
g5534
sg64
(lp5541
(lp5542
(S'plugin_wiki'
p5543
I00
S'http://web2py.com/examples/default/download'
p5544
tp5545
a(g4931
(S's\r\x00\x00\x00Other Plugins'
tRp5546
I00
g5276
tp5547
a(g4931
(S's\x0e\x00\x00\x00Layout Plugins'
tRp5548
I00
g5279
tp5549
aasbasbasbasbasbasbasbasbasbasbasbasbasbasbasbasbasbasbasbag57
(g73
g59
NtRp5550
(dp5551
g62
(dp5552
sg71
g4397
sg64
(lp5553
g57
(g78
g59
NtRp5554
(dp5555
g62
(dp5556
g82
g83
ssg71
g5550
sg64
(lp5557
S'meta'
p5558
asbag57
(g78
g59
NtRp5559
(dp5560
g62
(dp5561
g89
g90
ssg71
g5550
sg64
(lp5562
S':'
asbag57
(g78
g59
NtRp5563
(dp5564
g62
(dp5565
sg71
g5550
sg64
(lp5566
g57
(g58
g59
NtRp5567
(dp5568
g62
(dp5569
g70
I5
ssg71
g5563
sg64
(lp5570
g57
(g66
g59
NtRp5571
(dp5572
g62
(dp5573
g70
I4
ssg71
Nsg64
(lp5574
g57
(g73
g59
NtRp5575
(dp5576
g62
(dp5577
sg71
g5571
sg64
(lp5578
g57
(g78
g59
NtRp5579
(dp5580
g62
(dp5581
g82
g83
ssg71
g5575
sg64
(lp5582
S'author'
p5583
asbag57
(g78
g59
NtRp5584
(dp5585
g62
(dp5586
g89
g90
ssg71
g5575
sg64
(lp5587
S':'
asbag57
(g78
g59
NtRp5588
(dp5589
g62
(dp5590
sg71
g5575
sg64
(lp5591
g57
(g58
g59
NtRp5592
(dp5593
g62
(dp5594
g70
I4
ssg71
g5588
sg64
(lp5595
S'Your Name <you@example.com>'
p5596
asbasbasbag57
(g73
g59
NtRp5597
(dp5598
g62
(dp5599
sg71
g5571
sg64
(lp5600
g57
(g78
g59
NtRp5601
(dp5602
g62
(dp5603
g82
g83
ssg71
g5597
sg64
(lp5604
S'description'
p5605
asbag57
(g78
g59
NtRp5606
(dp5607
g62
(dp5608
g89
g90
ssg71
g5597
sg64
(lp5609
S':'
asbag57
(g78
g59
NtRp5610
(dp5611
g62
(dp5612
sg71
g5597
sg64
(lp5613
g57
(g58
g59
NtRp5614
(dp5615
g62
(dp5616
g70
I4
ssg71
g5610
sg64
(lp5617
S'a cool new app'
p5618
asbasbasbag57
(g73
g59
NtRp5619
(dp5620
g62
(dp5621
sg71
g5571
sg64
(lp5622
g57
(g78
g59
NtRp5623
(dp5624
g62
(dp5625
g82
g83
ssg71
g5619
sg64
(lp5626
S'generator'
p5627
asbag57
(g78
g59
NtRp5628
(dp5629
g62
(dp5630
g89
g90
ssg71
g5619
sg64
(lp5631
S':'
asbag57
(g78
g59
NtRp5632
(dp5633
g62
(dp5634
sg71
g5619
sg64
(lp5635
g57
(g58
g59
NtRp5636
(dp5637
g62
(dp5638
g70
I4
ssg71
g5632
sg64
(lp5639
S'Web2py Web Framework'
p5640
asbasbasbag57
(g73
g59
NtRp5641
(dp5642
g62
(dp5643
sg71
g5571
sg64
(lp5644
g57
(g78
g59
NtRp5645
(dp5646
g62
(dp5647
g82
g83
ssg71
g5641
sg64
(lp5648
S'keywords'
p5649
asbag57
(g78
g59
NtRp5650
(dp5651
g62
(dp5652
g89
g90
ssg71
g5641
sg64
(lp5653
S':'
asbag57
(g78
g59
NtRp5654
(dp5655
g62
(dp5656
sg71
g5641
sg64
(lp5657
g57
(g58
g59
NtRp5658
(dp5659
g62
(dp5660
g70
I4
ssg71
g5654
sg64
(lp5661
S'web2py, python, framework'
p5662
asbasbasbasbasbasbasbag57
(g73
g59
NtRp5663
(dp5664
g62
(dp5665
sg71
g4397
sg64
(lp5666
g57
(g78
g59
NtRp5667
(dp5668
g62
(dp5669
g82
g83
ssg71
g5663
sg64
(lp5670
S'models_to_run'
p5671
asbag57
(g78
g59
NtRp5672
(dp5673
g62
(dp5674
g89
g90
ssg71
g5663
sg64
(lp5675
S':'
asbag57
(g78
g59
NtRp5676
(dp5677
g62
(dp5678
sg71
g5663
sg64
(lp5679
g57
(g58
g59
NtRp5680
(dp5681
g62
(dp5682
g70
I5
ssg71
g5676
sg64
(lp5683
g57
(g66
g59
NtRp5684
(dp5685
g62
(dp5686
g70
I4
ssg71
Nsg64
(lp5687
g57
(g73
g59
NtRp5688
(dp5689
g62
(dp5690
sg71
g5684
sg64
(lp5691
g57
(g78
g59
NtRp5692
(dp5693
g62
(dp5694
sg71
g5688
sg64
(lp5695
g57
(g58
g59
NtRp5696
(dp5697
g62
(dp5698
g70
I4
ssg71
g5692
sg64
(lp5699
S'^\\w+\\.py$'
p5700
asbasbasbag57
(g73
g59
NtRp5701
(dp5702
g62
(dp5703
sg71
g5684
sg64
(lp5704
g57
(g78
g59
NtRp5705
(dp5706
g62
(dp5707
sg71
g5701
sg64
(lp5708
g57
(g58
g59
NtRp5709
(dp5710
g62
(dp5711
g70
I4
ssg71
g5705
sg64
(lp5712
S'^default/\\w+\\.py$'
p5713
asbasbasbag57
(g73
g59
NtRp5714
(dp5715
g62
(dp5716
sg71
g5684
sg64
(lp5717
g57
(g78
g59
NtRp5718
(dp5719
g62
(dp5720
sg71
g5714
sg64
(lp5721
g57
(g58
g59
NtRp5722
(dp5723
g62
(dp5724
g70
I4
ssg71
g5718
sg64
(lp5725
S'^default/request_reservior_view/\\w+\\.py$'
p5726
asbasbasbasbasbasbasbag57
(g73
g59
NtRp5727
(dp5728
g62
(dp5729
sg71
g4397
sg64
(lp5730
g57
(g78
g59
NtRp5731
(dp5732
g62
(dp5733
g82
g83
ssg71
g5727
sg64
(lp5734
S'postprocessing'
p5735
asbag57
(g78
g59
NtRp5736
(dp5737
g62
(dp5738
g89
g90
ssg71
g5727
sg64
(lp5739
S':'
asbag57
(g78
g59
NtRp5740
(dp5741
g62
(dp5742
sg71
g5727
sg64
(lp5743
g57
(g58
g59
NtRp5744
(dp5745
g62
(dp5746
g70
I5
ssg71
g5740
sg64
(lp5747
g57
(g66
g59
NtRp5748
(dp5749
g62
(dp5750
g70
I4
ssg71
Nsg64
(lp5751
sbasbasbasbag57
(g73
g59
NtRp5752
(dp5753
g62
(dp5754
sg71
g4397
sg64
(lp5755
g57
(g78
g59
NtRp5756
(dp5757
g62
(dp5758
g82
g83
ssg71
g5752
sg64
(lp5759
S'session_cookie_expires'
p5760
asbag57
(g78
g59
NtRp5761
(dp5762
g62
(dp5763
g89
g90
ssg71
g5752
sg64
(lp5764
S':'
asbag57
(g78
g59
NtRp5765
(dp5766
g62
(dp5767
sg71
g5752
sg64
(lp5768
g57
(g58
g59
NtRp5769
(dp5770
g62
(dp5771
g70
I5
ssg71
g5765
sg64
(lp5772
S'None'
p5773
asbasbasbag57
(g73
g59
NtRp5774
(dp5775
g62
(dp5776
sg71
g4397
sg64
(lp5777
g57
(g78
g59
NtRp5778
(dp5779
g62
(dp5780
g82
g83
ssg71
g5774
sg64
(lp5781
S'session_data_name'
p5782
asbag57
(g78
g59
NtRp5783
(dp5784
g62
(dp5785
g89
g90
ssg71
g5774
sg64
(lp5786
S':'
asbag57
(g78
g59
NtRp5787
(dp5788
g62
(dp5789
sg71
g5774
sg64
(lp5790
g57
(g58
g59
NtRp5791
(dp5792
g62
(dp5793
g70
I5
ssg71
g5787
sg64
(lp5794
S'session_data_garbage_truck'
p5795
asbasbasbag57
(g73
g59
NtRp5796
(dp5797
g62
(dp5798
sg71
g4397
sg64
(lp5799
g57
(g78
g59
NtRp5800
(dp5801
g62
(dp5802
g82
g83
ssg71
g5796
sg64
(lp5803
S'session_file'
p5804
asbag57
(g78
g59
NtRp5805
(dp5806
g62
(dp5807
g89
g90
ssg71
g5796
sg64
(lp5808
S':'
asbag57
(g78
g59
NtRp5809
(dp5810
g62
(dp5811
sg71
g5796
sg64
(lp5812
g57
(g58
g59
NtRp5813
(dp5814
g62
(dp5815
g70
I5
ssg71
g5809
sg64
(lp5816
S"<open file '/home/darshan/web2py/applications/Garbage_Truck/sessions/127.0.0.1-eb5e8630-3789-44cf-90c0-4c0a37fc535a', mode 'rb+' at 0x7f92884fee40>"
p5817
asbasbasbag57
(g73
g59
NtRp5818
(dp5819
g62
(dp5820
sg71
g4397
sg64
(lp5821
g57
(g78
g59
NtRp5822
(dp5823
g62
(dp5824
g82
g83
ssg71
g5818
sg64
(lp5825
S'session_filename'
p5826
asbag57
(g78
g59
NtRp5827
(dp5828
g62
(dp5829
g89
g90
ssg71
g5818
sg64
(lp5830
S':'
asbag57
(g78
g59
NtRp5831
(dp5832
g62
(dp5833
sg71
g5818
sg64
(lp5834
g57
(g58
g59
NtRp5835
(dp5836
g62
(dp5837
g70
I5
ssg71
g5831
sg64
(lp5838
S'/home/darshan/web2py/applications/Garbage_Truck/sessions/127.0.0.1-eb5e8630-3789-44cf-90c0-4c0a37fc535a'
p5839
asbasbasbag57
(g73
g59
NtRp5840
(dp5841
g62
(dp5842
sg71
g4397
sg64
(lp5843
g57
(g78
g59
NtRp5844
(dp5845
g62
(dp5846
g82
g83
ssg71
g5840
sg64
(lp5847
S'session_id'
p5848
asbag57
(g78
g59
NtRp5849
(dp5850
g62
(dp5851
g89
g90
ssg71
g5840
sg64
(lp5852
S':'
asbag57
(g78
g59
NtRp5853
(dp5854
g62
(dp5855
sg71
g5840
sg64
(lp5856
g57
(g58
g59
NtRp5857
(dp5858
g62
(dp5859
g70
I5
ssg71
g5853
sg64
(lp5860
g661
asbasbasbag57
(g73
g59
NtRp5861
(dp5862
g62
(dp5863
sg71
g4397
sg64
(lp5864
g57
(g78
g59
NtRp5865
(dp5866
g62
(dp5867
g82
g83
ssg71
g5861
sg64
(lp5868
S'session_id_name'
p5869
asbag57
(g78
g59
NtRp5870
(dp5871
g62
(dp5872
g89
g90
ssg71
g5861
sg64
(lp5873
S':'
asbag57
(g78
g59
NtRp5874
(dp5875
g62
(dp5876
sg71
g5861
sg64
(lp5877
g57
(g58
g59
NtRp5878
(dp5879
g62
(dp5880
g70
I5
ssg71
g5874
sg64
(lp5881
g4454
asbasbasbag57
(g73
g59
NtRp5882
(dp5883
g62
(dp5884
sg71
g4397
sg64
(lp5885
g57
(g78
g59
NtRp5886
(dp5887
g62
(dp5888
g82
g83
ssg71
g5882
sg64
(lp5889
S'session_locked'
p5890
asbag57
(g78
g59
NtRp5891
(dp5892
g62
(dp5893
g89
g90
ssg71
g5882
sg64
(lp5894
S':'
asbag57
(g78
g59
NtRp5895
(dp5896
g62
(dp5897
sg71
g5882
sg64
(lp5898
g57
(g58
g59
NtRp5899
(dp5900
g62
(dp5901
g70
I5
ssg71
g5895
sg64
(lp5902
g2348
asbasbasbag57
(g73
g59
NtRp5903
(dp5904
g62
(dp5905
sg71
g4397
sg64
(lp5906
g57
(g78
g59
NtRp5907
(dp5908
g62
(dp5909
g82
g83
ssg71
g5903
sg64
(lp5910
S'session_new'
p5911
asbag57
(g78
g59
NtRp5912
(dp5913
g62
(dp5914
g89
g90
ssg71
g5903
sg64
(lp5915
S':'
asbag57
(g78
g59
NtRp5916
(dp5917
g62
(dp5918
sg71
g5903
sg64
(lp5919
g57
(g58
g59
NtRp5920
(dp5921
g62
(dp5922
g70
I5
ssg71
g5916
sg64
(lp5923
g100
asbasbasbag57
(g73
g59
NtRp5924
(dp5925
g62
(dp5926
sg71
g4397
sg64
(lp5927
g57
(g78
g59
NtRp5928
(dp5929
g62
(dp5930
g82
g83
ssg71
g5924
sg64
(lp5931
S'session_storage_type'
p5932
asbag57
(g78
g59
NtRp5933
(dp5934
g62
(dp5935
g89
g90
ssg71
g5924
sg64
(lp5936
S':'
asbag57
(g78
g59
NtRp5937
(dp5938
g62
(dp5939
sg71
g5924
sg64
(lp5940
g57
(g58
g59
NtRp5941
(dp5942
g62
(dp5943
g70
I5
ssg71
g5937
sg64
(lp5944
g3800
asbasbasbag57
(g73
g59
NtRp5945
(dp5946
g62
(dp5947
sg71
g4397
sg64
(lp5948
g57
(g78
g59
NtRp5949
(dp5950
g62
(dp5951
g82
g83
ssg71
g5945
sg64
(lp5952
S'status'
p5953
asbag57
(g78
g59
NtRp5954
(dp5955
g62
(dp5956
g89
g90
ssg71
g5945
sg64
(lp5957
S':'
asbag57
(g78
g59
NtRp5958
(dp5959
g62
(dp5960
sg71
g5945
sg64
(lp5961
g57
(g58
g59
NtRp5962
(dp5963
g62
(dp5964
g70
I5
ssg71
g5958
sg64
(lp5965
S'200'
p5966
asbasbasbag57
(g73
g59
NtRp5967
(dp5968
g62
(dp5969
sg71
g4397
sg64
(lp5970
g57
(g78
g59
NtRp5971
(dp5972
g62
(dp5973
g82
g83
ssg71
g5967
sg64
(lp5974
S'subtitle'
p5975
asbag57
(g78
g59
NtRp5976
(dp5977
g62
(dp5978
g89
g90
ssg71
g5967
sg64
(lp5979
S':'
asbag57
(g78
g59
NtRp5980
(dp5981
g62
(dp5982
sg71
g5967
sg64
(lp5983
g57
(g58
g59
NtRp5984
(dp5985
g62
(dp5986
g70
I5
ssg71
g5980
sg64
(lp5987
g4931
(S's\r\x00\x00\x00customize me!'
tRp5988
asbasbasbag57
(g73
g59
NtRp5989
(dp5990
g62
(dp5991
sg71
g4397
sg64
(lp5992
g57
(g78
g59
NtRp5993
(dp5994
g62
(dp5995
g82
g83
ssg71
g5989
sg64
(lp5996
S'title'
p5997
asbag57
(g78
g59
NtRp5998
(dp5999
g62
(dp6000
g89
g90
ssg71
g5989
sg64
(lp6001
S':'
asbag57
(g78
g59
NtRp6002
(dp6003
g62
(dp6004
sg71
g5989
sg64
(lp6005
g57
(g58
g59
NtRp6006
(dp6007
g62
(dp6008
g70
I5
ssg71
g6002
sg64
(lp6009
S'Garbage Truck'
p6010
asbasbasbag57
(g73
g59
NtRp6011
(dp6012
g62
(dp6013
sg71
g4397
sg64
(lp6014
g57
(g78
g59
NtRp6015
(dp6016
g62
(dp6017
g82
g83
ssg71
g6011
sg64
(lp6018
S'view'
p6019
asbag57
(g78
g59
NtRp6020
(dp6021
g62
(dp6022
g89
g90
ssg71
g6011
sg64
(lp6023
S':'
asbag57
(g78
g59
NtRp6024
(dp6025
g62
(dp6026
sg71
g6011
sg64
(lp6027
g57
(g58
g59
NtRp6028
(dp6029
g62
(dp6030
g70
I5
ssg71
g6024
sg64
(lp6031
S'default/request_reservior_view.html'
p6032
asbasbasbasbasbsS'locals'
p6033
(dp6034
S'i'
S"<Row {'auth_user': {'username': '410231231', 'fi...c_ward': {'user_id': 5, 'id': 1, 'pin': 500038}}>"
p6035
sS's'
S'<Rows (1)>'
p6036
sS'd'
g45
sssS'traceback'
p6037
S'Traceback (most recent call last):\n  File "/home/darshan/web2py/gluon/restricted.py", line 212, in restricted\n    exec ccode in environment\n  File "/home/darshan/web2py/applications/Garbage_Truck/controllers/default.py", line 212, in <module>\n  File "/home/darshan/web2py/gluon/globals.py", line 193, in <lambda>\n    self._caller = lambda f: f()\n  File "/home/darshan/web2py/gluon/tools.py", line 2929, in f\n    return action(*a, **b)\n  File "/home/darshan/web2py/gluon/tools.py", line 2929, in f\n    return action(*a, **b)\n  File "/home/darshan/web2py/applications/Garbage_Truck/controllers/default.py", line 99, in request_reservior_view\n    dat = i.report_absent.request_on.split()[0]\nAttributeError: \'Row\' object has no attribute \'report_absent\'\n'
p6038
s.