(dp1
S'output'
p2
S"<type 'exceptions.AttributeError'> 'Row' object has no attribute 'request_now'"
p3
sS'layer'
p4
S'/home/darshan/web2py/applications/Garbage_Truck/controllers/default.py'
p5
sS'code'
p6
S'# -*- coding: utf-8 -*-\n# this file is released under public domain and you can use without limitations\n\n#########################################################################\n## This is a samples controller\n## - index is the default action of any application\n## - user is required for authentication and authorization\n## - download is for downloading files uploaded in the db (does streaming)\n## - call exposes all registered services (none by default)\n#########################################################################\n\n@auth.requires_login()\ndef index():\n    session.user_id=auth.user.id\n    session.user_name=auth.user.first_name\n    if auth.has_membership(role=\'ghmc_admin\'):\n        redirect(URL(\'ghmc_official\'))\n\n    """\n    example action using the internationalization operator T and flash\n    rendered by views/default/index.html or views/generic.html\n\n    if you need a simple wiki simple replace the two lines below with:\n    return auth.wiki()\n    """\n    return dict()\n\n@auth.requires_login()\n@auth.requires_membership(\'ghmc_admin\')\ndef ghmc_official():\n    return dict()\n\n"""    \ndef groupadd(check_group):\n\tif not db(db.auth_group.role==check_group).count():\n        db.auth_group.insert(role=check_group)\n"""\n\ndef worker_report():\n    return dict()\n\n@auth.requires_login()\ndef report_absence():\n    form=SQLFORM(db.report_absent)\n    if form.process().accepted:\n        session.flash = \'form accepted\'\n        redirect(URL(\'index\'))\n    elif form.errors:\n        response.flash = \'form has errors\'\n    else:\n        response.flash = \'please fill the form\'\n    return dict(form=form)\n\n@auth.requires_login()\ndef rate_presence():\n    form=SQLFORM(db.report_present)\n    if form.process().accepted:\n        session.flash = \'form accepted\'\n        redirect(URL(\'index\'))\n    elif form.errors:\n        response.flash = \'form has errors\'\n    else:\n        response.flash = \'please fill the form\'\n    return dict(form=form)\n\n@auth.requires_login()\ndef request_urgent():\n    form=SQLFORM(db.request_festive)\n    if form.process().accepted:\n        session.flash = \'form accepted\'\n        redirect(URL(\'index\'))\n    elif form.errors:\n        response.flash = \'form has errors\'\n    else:\n        response.flash = \'please fill the form\'\n    return dict(form=form)\n\n@auth.requires_login()\ndef request_reservior():\n    form=SQLFORM(db.request_collection)\n    if form.process().accepted:\n        session.flash = \'form accepted\'\n        redirect(URL(\'index\'))\n    elif form.errors:\n        response.flash = \'form has errors\'\n    else:\n        response.flash = \'please fill the form\'\n    return dict(form=form)\n\n@auth.requires_login()\n@auth.requires_membership(\'ghmc_admin\')\ndef request_reservior_view():\n    return dict()\n\n@auth.requires_login()\n@auth.requires_membership(\'ghmc_admin\')\ndef request_urgent_view():\n    s=db((db.request_festive.id>0) & (db.auth_user.id==db.request_festive.user_id)).select(orderby=~db.request_festive.request_on)\n    d={}\n    for i in s:\n        dat = i.request_festive.request_now.date()\n        if dat in d:\n            d[dat]=d[dat]+[[i.auth_user.first_name, i.auth_user.last_name, i.request_festive.comment1,i.request_festive.reason]]\n        else:\n            d[dat]=[[i.auth_user.first_name, i.auth_user.last_name, i.request_festive.comment1, i.request_festive.reason]]\n    return dict(d=d)\n\n@auth.requires_login()\n@auth.requires_membership(\'ghmc_admin\')\ndef absence_view():\n    s=db((db.report_absent.id>0) & (db.report_absent.user_id==db.auth_user.id) & (db.auth_user.id==db.consumer.user_id) & (db.gmc_ward.user_id==auth.user.id)&(db.consumer.pin==db.gmc_ward.pin)).select(db.auth_user.first_name, db.auth_user.last_name, db.report_absent.request_on, db.report_absent.comment1,db.consumer.pin, orderby=~db.report_absent.request_on)\n    d={}\n    for i in s:\n        dat = i.report_absent.request_now.date()\n        if dat in d:\n            d[dat]=d[dat]+[[i.auth_user.first_name, i.auth_user.last_name, i.report_absent.comment1]]\n        else:\n            d[dat]=[[i.auth_user.first_name, i.auth_user.last_name, i.report_absent.comment1]]\n    return dict(d=d)\ndef presence_view():\n    s=db((db.report_absent.id>0) & (db.report_absent.user_id==db.auth_user.id) & (db.auth_user.id==db.consumer.user_id) & (db.gmc_ward.user_id==auth.user.id)&(db.consumer.pin==db.gmc_ward.pin)&(db.report_present.ghmc_no==db.gmc_det.worker_id)).select(db.auth_user.first_name, db.auth_user.last_name, db.report_present.request_on, db.report_present.comment1,db.consumer.pin,db.report_present.rating, db.gmc_det.worker_id, db.gmc_det.area, db.gmc_det.name, orderby=~db.report_present.rating)\n    return dict(s=s)\n\ndef user():\n    """\n    exposes:\n    http://..../[app]/default/user/login\n    http://..../[app]/default/user/logout\n    http://..../[app]/default/user/register\n    http://..../[app]/default/user/profile\n    http://..../[app]/default/user/retrieve_password\n    http://..../[app]/default/user/change_password\n    use @auth.requires_login()\n        @auth.requires_membership(\'group name\')\n        @auth.requires_permission(\'read\',\'table name\',record_id)\n    to decorate functions that need access control\n    """\n    return dict(form=auth())\n\n\ndef download():\n    """\n    allows downloading of uploaded files\n    http://..../[app]/default/download/[filename]\n    """\n    return response.download(request, db)\n\n\ndef call():\n    """\n    exposes services. for example:\n    http://..../[app]/default/call/jsonrpc\n    decorate with @services.jsonrpc the functions to expose\n    supports xml, json, xmlrpc, jsonrpc, amfrpc, rss, csv\n    """\n    return service()\n\n\n@auth.requires_signature()\ndef data():\n    """\n    http://..../[app]/default/data/tables\n    http://..../[app]/default/data/create/[table]\n    http://..../[app]/default/data/read/[table]/[id]\n    http://..../[app]/default/data/update/[table]/[id]\n    http://..../[app]/default/data/delete/[table]/[id]\n    http://..../[app]/default/data/select/[table]\n    http://..../[app]/default/data/search/[table]\n    but URLs must be signed, i.e. linked with\n      A(\'table\',_href=URL(\'data/tables\',user_signature=True))\n    or with the signed load operator\n      LOAD(\'default\',\'data.load\',args=\'tables\',ajax=True,user_signature=True)\n    """\n    return dict(form=crud())\n\nresponse._vars=response._caller(request_urgent_view)\n'
p7
sS'snapshot'
p8
(dp9
S'exception'
p10
(dp11
S'__hash__'
p12
S"<method-wrapper '__hash__' of exceptions.AttributeError object>"
p13
sS'__setattr__'
p14
S"<method-wrapper '__setattr__' of exceptions.AttributeError object>"
p15
sS'__reduce_ex__'
p16
S'<built-in method __reduce_ex__ of exceptions.AttributeError object>'
p17
sS'__getslice__'
p18
S"<method-wrapper '__getslice__' of exceptions.AttributeError object>"
p19
sS'__getitem__'
p20
S"<method-wrapper '__getitem__' of exceptions.AttributeError object>"
p21
sS'__setstate__'
p22
S'<built-in method __setstate__ of exceptions.AttributeError object>'
p23
sS'args'
p24
S'("\'Row\' object has no attribute \'request_now\'",)'
p25
sS'__reduce__'
p26
S'<built-in method __reduce__ of exceptions.AttributeError object>'
p27
sS'__str__'
p28
S"<method-wrapper '__str__' of exceptions.AttributeError object>"
p29
sS'__format__'
p30
S'<built-in method __format__ of exceptions.AttributeError object>'
p31
sS'__getattribute__'
p32
S"<method-wrapper '__getattribute__' of exceptions.AttributeError object>"
p33
sS'__class__'
p34
S"<type 'exceptions.AttributeError'>"
p35
sS'__unicode__'
p36
S'<built-in method __unicode__ of exceptions.AttributeError object>'
p37
sS'__delattr__'
p38
S"<method-wrapper '__delattr__' of exceptions.AttributeError object>"
p39
sS'__subclasshook__'
p40
S'<built-in method __subclasshook__ of type object>'
p41
sS'__repr__'
p42
S"<method-wrapper '__repr__' of exceptions.AttributeError object>"
p43
sS'__dict__'
p44
S'{}'
p45
sS'__sizeof__'
p46
S'<built-in method __sizeof__ of exceptions.AttributeError object>'
p47
sS'__doc__'
p48
S"'Attribute not found.'"
p49
sS'__init__'
p50
S"<method-wrapper '__init__' of exceptions.AttributeError object>"
p51
sS'__new__'
p52
S'<built-in method __new__ of type object>'
p53
ssS'evalue'
p54
S"'Row' object has no attribute 'request_now'"
p55
sS'request'
p56
ccopy_reg
_reconstructor
p57
(cgluon.html
BEAUTIFY
p58
c__builtin__
object
p59
NtRp60
(dp61
S'attributes'
p62
(dp63
sS'components'
p64
(lp65
g57
(cgluon.html
TABLE
p66
g59
NtRp67
(dp68
g62
(dp69
S'level'
p70
I5
ssS'parent'
p71
Nsg64
(lp72
g57
(cgluon.html
TR
p73
g59
NtRp74
(dp75
g62
(dp76
sg71
g67
sg64
(lp77
g57
(cgluon.html
TD
p78
g59
NtRp79
(dp80
g62
(dp81
S'_style'
p82
S'font-weight:bold;vertical-align:top'
p83
ssg71
g74
sg64
(lp84
S'ajax'
p85
asbag57
(g78
g59
NtRp86
(dp87
g62
(dp88
S'_valign'
p89
S'top'
p90
ssg71
g74
sg64
(lp91
S':'
asbag57
(g78
g59
NtRp92
(dp93
g62
(dp94
sg71
g74
sg64
(lp95
g57
(g58
g59
NtRp96
(dp97
g62
(dp98
g70
I5
ssg71
g92
sg64
(lp99
S'False'
p100
asbasbasbag57
(g73
g59
NtRp101
(dp102
g62
(dp103
sg71
g67
sg64
(lp104
g57
(g78
g59
NtRp105
(dp106
g62
(dp107
g82
g83
ssg71
g101
sg64
(lp108
S'application'
p109
asbag57
(g78
g59
NtRp110
(dp111
g62
(dp112
g89
g90
ssg71
g101
sg64
(lp113
S':'
asbag57
(g78
g59
NtRp114
(dp115
g62
(dp116
sg71
g101
sg64
(lp117
g57
(g58
g59
NtRp118
(dp119
g62
(dp120
g70
I5
ssg71
g114
sg64
(lp121
S'Garbage_Truck'
p122
asbasbasbag57
(g73
g59
NtRp123
(dp124
g62
(dp125
sg71
g67
sg64
(lp126
g57
(g78
g59
NtRp127
(dp128
g62
(dp129
g82
g83
ssg71
g123
sg64
(lp130
g24
asbag57
(g78
g59
NtRp131
(dp132
g62
(dp133
g89
g90
ssg71
g123
sg64
(lp134
S':'
asbag57
(g78
g59
NtRp135
(dp136
g62
(dp137
sg71
g123
sg64
(lp138
g57
(g58
g59
NtRp139
(dp140
g62
(dp141
g70
I5
ssg71
g135
sg64
(lp142
g57
(g66
g59
NtRp143
(dp144
g62
(dp145
g70
I4
ssg71
Nsg64
(lp146
sbasbasbasbag57
(g73
g59
NtRp147
(dp148
g62
(dp149
sg71
g67
sg64
(lp150
g57
(g78
g59
NtRp151
(dp152
g62
(dp153
g82
g83
ssg71
g147
sg64
(lp154
S'body'
p155
asbag57
(g78
g59
NtRp156
(dp157
g62
(dp158
g89
g90
ssg71
g147
sg64
(lp159
S':'
asbag57
(g78
g59
NtRp160
(dp161
g62
(dp162
sg71
g147
sg64
(lp163
g57
(g58
g59
NtRp164
(dp165
g62
(dp166
g70
I5
ssg71
g160
sg64
(lp167
S'<cStringIO.StringO object at 0x7f9288b2bd50>'
p168
asbasbasbag57
(g73
g59
NtRp169
(dp170
g62
(dp171
sg71
g67
sg64
(lp172
g57
(g78
g59
NtRp173
(dp174
g62
(dp175
g82
g83
ssg71
g169
sg64
(lp176
S'cid'
p177
asbag57
(g78
g59
NtRp178
(dp179
g62
(dp180
g89
g90
ssg71
g169
sg64
(lp181
S':'
asbag57
(g78
g59
NtRp182
(dp183
g62
(dp184
sg71
g169
sg64
(lp185
g57
(g58
g59
NtRp186
(dp187
g62
(dp188
g70
I5
ssg71
g182
sg64
(lp189
S'None'
p190
asbasbasbag57
(g73
g59
NtRp191
(dp192
g62
(dp193
sg71
g67
sg64
(lp194
g57
(g78
g59
NtRp195
(dp196
g62
(dp197
g82
g83
ssg71
g191
sg64
(lp198
S'client'
p199
asbag57
(g78
g59
NtRp200
(dp201
g62
(dp202
g89
g90
ssg71
g191
sg64
(lp203
S':'
asbag57
(g78
g59
NtRp204
(dp205
g62
(dp206
sg71
g191
sg64
(lp207
g57
(g58
g59
NtRp208
(dp209
g62
(dp210
g70
I5
ssg71
g204
sg64
(lp211
S'127.0.0.1'
p212
asbasbasbag57
(g73
g59
NtRp213
(dp214
g62
(dp215
sg71
g67
sg64
(lp216
g57
(g78
g59
NtRp217
(dp218
g62
(dp219
g82
g83
ssg71
g213
sg64
(lp220
S'controller'
p221
asbag57
(g78
g59
NtRp222
(dp223
g62
(dp224
g89
g90
ssg71
g213
sg64
(lp225
S':'
asbag57
(g78
g59
NtRp226
(dp227
g62
(dp228
sg71
g213
sg64
(lp229
g57
(g58
g59
NtRp230
(dp231
g62
(dp232
g70
I5
ssg71
g226
sg64
(lp233
S'default'
p234
asbasbasbag57
(g73
g59
NtRp235
(dp236
g62
(dp237
sg71
g67
sg64
(lp238
g57
(g78
g59
NtRp239
(dp240
g62
(dp241
g82
g83
ssg71
g235
sg64
(lp242
S'cookies'
p243
asbag57
(g78
g59
NtRp244
(dp245
g62
(dp246
g89
g90
ssg71
g235
sg64
(lp247
S':'
asbag57
(g78
g59
NtRp248
(dp249
g62
(dp250
sg71
g235
sg64
(lp251
g57
(g58
g59
NtRp252
(dp253
g62
(dp254
g70
I5
ssg71
g248
sg64
(lp255
g57
(g66
g59
NtRp256
(dp257
g62
(dp258
g70
I4
ssg71
Nsg64
(lp259
g57
(g73
g59
NtRp260
(dp261
g62
(dp262
sg71
g256
sg64
(lp263
g57
(g78
g59
NtRp264
(dp265
g62
(dp266
g82
g83
ssg71
g260
sg64
(lp267
S'csrftoken'
p268
asbag57
(g78
g59
NtRp269
(dp270
g62
(dp271
g89
g90
ssg71
g260
sg64
(lp272
S':'
asbag57
(g78
g59
NtRp273
(dp274
g62
(dp275
sg71
g260
sg64
(lp276
g57
(g58
g59
NtRp277
(dp278
g62
(dp279
g70
I4
ssg71
g273
sg64
(lp280
S'a9lCt5w7Q4OG437IZNwjtNB3YEdWYXWm'
p281
ag57
(g66
g59
NtRp282
(dp283
g62
(dp284
g70
I3
ssg71
Nsg64
(lp285
g57
(g73
g59
NtRp286
(dp287
g62
(dp288
sg71
g282
sg64
(lp289
g57
(g78
g59
NtRp290
(dp291
g62
(dp292
g82
g83
ssg71
g286
sg64
(lp293
S'comment'
p294
asbag57
(g78
g59
NtRp295
(dp296
g62
(dp297
g89
g90
ssg71
g286
sg64
(lp298
S':'
asbag57
(g78
g59
NtRp299
(dp300
g62
(dp301
sg71
g286
sg64
(lp302
g57
(g58
g59
NtRp303
(dp304
g62
(dp305
g70
I3
ssg71
g299
sg64
(lp306
S''
asbasbasbag57
(g73
g59
NtRp307
(dp308
g62
(dp309
sg71
g282
sg64
(lp310
g57
(g78
g59
NtRp311
(dp312
g62
(dp313
g82
g83
ssg71
g307
sg64
(lp314
S'domain'
p315
asbag57
(g78
g59
NtRp316
(dp317
g62
(dp318
g89
g90
ssg71
g307
sg64
(lp319
S':'
asbag57
(g78
g59
NtRp320
(dp321
g62
(dp322
sg71
g307
sg64
(lp323
g57
(g58
g59
NtRp324
(dp325
g62
(dp326
g70
I3
ssg71
g320
sg64
(lp327
S''
asbasbasbag57
(g73
g59
NtRp328
(dp329
g62
(dp330
sg71
g282
sg64
(lp331
g57
(g78
g59
NtRp332
(dp333
g62
(dp334
g82
g83
ssg71
g328
sg64
(lp335
S'expires'
p336
asbag57
(g78
g59
NtRp337
(dp338
g62
(dp339
g89
g90
ssg71
g328
sg64
(lp340
S':'
asbag57
(g78
g59
NtRp341
(dp342
g62
(dp343
sg71
g328
sg64
(lp344
g57
(g58
g59
NtRp345
(dp346
g62
(dp347
g70
I3
ssg71
g341
sg64
(lp348
S''
asbasbasbag57
(g73
g59
NtRp349
(dp350
g62
(dp351
sg71
g282
sg64
(lp352
g57
(g78
g59
NtRp353
(dp354
g62
(dp355
g82
g83
ssg71
g349
sg64
(lp356
S'httponly'
p357
asbag57
(g78
g59
NtRp358
(dp359
g62
(dp360
g89
g90
ssg71
g349
sg64
(lp361
S':'
asbag57
(g78
g59
NtRp362
(dp363
g62
(dp364
sg71
g349
sg64
(lp365
g57
(g58
g59
NtRp366
(dp367
g62
(dp368
g70
I3
ssg71
g362
sg64
(lp369
S''
asbasbasbag57
(g73
g59
NtRp370
(dp371
g62
(dp372
sg71
g282
sg64
(lp373
g57
(g78
g59
NtRp374
(dp375
g62
(dp376
g82
g83
ssg71
g370
sg64
(lp377
S'max-age'
p378
asbag57
(g78
g59
NtRp379
(dp380
g62
(dp381
g89
g90
ssg71
g370
sg64
(lp382
S':'
asbag57
(g78
g59
NtRp383
(dp384
g62
(dp385
sg71
g370
sg64
(lp386
g57
(g58
g59
NtRp387
(dp388
g62
(dp389
g70
I3
ssg71
g383
sg64
(lp390
S''
asbasbasbag57
(g73
g59
NtRp391
(dp392
g62
(dp393
sg71
g282
sg64
(lp394
g57
(g78
g59
NtRp395
(dp396
g62
(dp397
g82
g83
ssg71
g391
sg64
(lp398
S'path'
p399
asbag57
(g78
g59
NtRp400
(dp401
g62
(dp402
g89
g90
ssg71
g391
sg64
(lp403
S':'
asbag57
(g78
g59
NtRp404
(dp405
g62
(dp406
sg71
g391
sg64
(lp407
g57
(g58
g59
NtRp408
(dp409
g62
(dp410
g70
I3
ssg71
g404
sg64
(lp411
S''
asbasbasbag57
(g73
g59
NtRp412
(dp413
g62
(dp414
sg71
g282
sg64
(lp415
g57
(g78
g59
NtRp416
(dp417
g62
(dp418
g82
g83
ssg71
g412
sg64
(lp419
S'secure'
p420
asbag57
(g78
g59
NtRp421
(dp422
g62
(dp423
g89
g90
ssg71
g412
sg64
(lp424
S':'
asbag57
(g78
g59
NtRp425
(dp426
g62
(dp427
sg71
g412
sg64
(lp428
g57
(g58
g59
NtRp429
(dp430
g62
(dp431
g70
I3
ssg71
g425
sg64
(lp432
S''
asbasbasbag57
(g73
g59
NtRp433
(dp434
g62
(dp435
sg71
g282
sg64
(lp436
g57
(g78
g59
NtRp437
(dp438
g62
(dp439
g82
g83
ssg71
g433
sg64
(lp440
S'version'
p441
asbag57
(g78
g59
NtRp442
(dp443
g62
(dp444
g89
g90
ssg71
g433
sg64
(lp445
S':'
asbag57
(g78
g59
NtRp446
(dp447
g62
(dp448
sg71
g433
sg64
(lp449
g57
(g58
g59
NtRp450
(dp451
g62
(dp452
g70
I3
ssg71
g446
sg64
(lp453
S''
asbasbasbasbasbasbasbag57
(g73
g59
NtRp454
(dp455
g62
(dp456
sg71
g256
sg64
(lp457
g57
(g78
g59
NtRp458
(dp459
g62
(dp460
g82
g83
ssg71
g454
sg64
(lp461
S'session_id_admin'
p462
asbag57
(g78
g59
NtRp463
(dp464
g62
(dp465
g89
g90
ssg71
g454
sg64
(lp466
S':'
asbag57
(g78
g59
NtRp467
(dp468
g62
(dp469
sg71
g454
sg64
(lp470
g57
(g58
g59
NtRp471
(dp472
g62
(dp473
g70
I4
ssg71
g467
sg64
(lp474
S'127.0.0.1-e6c203e9-d008-4610-8523-5a0e93da9abb'
p475
ag57
(g66
g59
NtRp476
(dp477
g62
(dp478
g70
I3
ssg71
Nsg64
(lp479
g57
(g73
g59
NtRp480
(dp481
g62
(dp482
sg71
g476
sg64
(lp483
g57
(g78
g59
NtRp484
(dp485
g62
(dp486
g82
g83
ssg71
g480
sg64
(lp487
g294
asbag57
(g78
g59
NtRp488
(dp489
g62
(dp490
g89
g90
ssg71
g480
sg64
(lp491
S':'
asbag57
(g78
g59
NtRp492
(dp493
g62
(dp494
sg71
g480
sg64
(lp495
g57
(g58
g59
NtRp496
(dp497
g62
(dp498
g70
I3
ssg71
g492
sg64
(lp499
S''
asbasbasbag57
(g73
g59
NtRp500
(dp501
g62
(dp502
sg71
g476
sg64
(lp503
g57
(g78
g59
NtRp504
(dp505
g62
(dp506
g82
g83
ssg71
g500
sg64
(lp507
g315
asbag57
(g78
g59
NtRp508
(dp509
g62
(dp510
g89
g90
ssg71
g500
sg64
(lp511
S':'
asbag57
(g78
g59
NtRp512
(dp513
g62
(dp514
sg71
g500
sg64
(lp515
g57
(g58
g59
NtRp516
(dp517
g62
(dp518
g70
I3
ssg71
g512
sg64
(lp519
S''
asbasbasbag57
(g73
g59
NtRp520
(dp521
g62
(dp522
sg71
g476
sg64
(lp523
g57
(g78
g59
NtRp524
(dp525
g62
(dp526
g82
g83
ssg71
g520
sg64
(lp527
g336
asbag57
(g78
g59
NtRp528
(dp529
g62
(dp530
g89
g90
ssg71
g520
sg64
(lp531
S':'
asbag57
(g78
g59
NtRp532
(dp533
g62
(dp534
sg71
g520
sg64
(lp535
g57
(g58
g59
NtRp536
(dp537
g62
(dp538
g70
I3
ssg71
g532
sg64
(lp539
S''
asbasbasbag57
(g73
g59
NtRp540
(dp541
g62
(dp542
sg71
g476
sg64
(lp543
g57
(g78
g59
NtRp544
(dp545
g62
(dp546
g82
g83
ssg71
g540
sg64
(lp547
g357
asbag57
(g78
g59
NtRp548
(dp549
g62
(dp550
g89
g90
ssg71
g540
sg64
(lp551
S':'
asbag57
(g78
g59
NtRp552
(dp553
g62
(dp554
sg71
g540
sg64
(lp555
g57
(g58
g59
NtRp556
(dp557
g62
(dp558
g70
I3
ssg71
g552
sg64
(lp559
S''
asbasbasbag57
(g73
g59
NtRp560
(dp561
g62
(dp562
sg71
g476
sg64
(lp563
g57
(g78
g59
NtRp564
(dp565
g62
(dp566
g82
g83
ssg71
g560
sg64
(lp567
g378
asbag57
(g78
g59
NtRp568
(dp569
g62
(dp570
g89
g90
ssg71
g560
sg64
(lp571
S':'
asbag57
(g78
g59
NtRp572
(dp573
g62
(dp574
sg71
g560
sg64
(lp575
g57
(g58
g59
NtRp576
(dp577
g62
(dp578
g70
I3
ssg71
g572
sg64
(lp579
S''
asbasbasbag57
(g73
g59
NtRp580
(dp581
g62
(dp582
sg71
g476
sg64
(lp583
g57
(g78
g59
NtRp584
(dp585
g62
(dp586
g82
g83
ssg71
g580
sg64
(lp587
g399
asbag57
(g78
g59
NtRp588
(dp589
g62
(dp590
g89
g90
ssg71
g580
sg64
(lp591
S':'
asbag57
(g78
g59
NtRp592
(dp593
g62
(dp594
sg71
g580
sg64
(lp595
g57
(g58
g59
NtRp596
(dp597
g62
(dp598
g70
I3
ssg71
g592
sg64
(lp599
S''
asbasbasbag57
(g73
g59
NtRp600
(dp601
g62
(dp602
sg71
g476
sg64
(lp603
g57
(g78
g59
NtRp604
(dp605
g62
(dp606
g82
g83
ssg71
g600
sg64
(lp607
g420
asbag57
(g78
g59
NtRp608
(dp609
g62
(dp610
g89
g90
ssg71
g600
sg64
(lp611
S':'
asbag57
(g78
g59
NtRp612
(dp613
g62
(dp614
sg71
g600
sg64
(lp615
g57
(g58
g59
NtRp616
(dp617
g62
(dp618
g70
I3
ssg71
g612
sg64
(lp619
S''
asbasbasbag57
(g73
g59
NtRp620
(dp621
g62
(dp622
sg71
g476
sg64
(lp623
g57
(g78
g59
NtRp624
(dp625
g62
(dp626
g82
g83
ssg71
g620
sg64
(lp627
g441
asbag57
(g78
g59
NtRp628
(dp629
g62
(dp630
g89
g90
ssg71
g620
sg64
(lp631
S':'
asbag57
(g78
g59
NtRp632
(dp633
g62
(dp634
sg71
g620
sg64
(lp635
g57
(g58
g59
NtRp636
(dp637
g62
(dp638
g70
I3
ssg71
g632
sg64
(lp639
S''
asbasbasbasbasbasbasbag57
(g73
g59
NtRp640
(dp641
g62
(dp642
sg71
g256
sg64
(lp643
g57
(g78
g59
NtRp644
(dp645
g62
(dp646
g82
g83
ssg71
g640
sg64
(lp647
S'session_id_garbage_truck'
p648
asbag57
(g78
g59
NtRp649
(dp650
g62
(dp651
g89
g90
ssg71
g640
sg64
(lp652
S':'
asbag57
(g78
g59
NtRp653
(dp654
g62
(dp655
sg71
g640
sg64
(lp656
g57
(g58
g59
NtRp657
(dp658
g62
(dp659
g70
I4
ssg71
g653
sg64
(lp660
S'127.0.0.1-eb5e8630-3789-44cf-90c0-4c0a37fc535a'
p661
ag57
(g66
g59
NtRp662
(dp663
g62
(dp664
g70
I3
ssg71
Nsg64
(lp665
g57
(g73
g59
NtRp666
(dp667
g62
(dp668
sg71
g662
sg64
(lp669
g57
(g78
g59
NtRp670
(dp671
g62
(dp672
g82
g83
ssg71
g666
sg64
(lp673
g294
asbag57
(g78
g59
NtRp674
(dp675
g62
(dp676
g89
g90
ssg71
g666
sg64
(lp677
S':'
asbag57
(g78
g59
NtRp678
(dp679
g62
(dp680
sg71
g666
sg64
(lp681
g57
(g58
g59
NtRp682
(dp683
g62
(dp684
g70
I3
ssg71
g678
sg64
(lp685
S''
asbasbasbag57
(g73
g59
NtRp686
(dp687
g62
(dp688
sg71
g662
sg64
(lp689
g57
(g78
g59
NtRp690
(dp691
g62
(dp692
g82
g83
ssg71
g686
sg64
(lp693
g315
asbag57
(g78
g59
NtRp694
(dp695
g62
(dp696
g89
g90
ssg71
g686
sg64
(lp697
S':'
asbag57
(g78
g59
NtRp698
(dp699
g62
(dp700
sg71
g686
sg64
(lp701
g57
(g58
g59
NtRp702
(dp703
g62
(dp704
g70
I3
ssg71
g698
sg64
(lp705
S''
asbasbasbag57
(g73
g59
NtRp706
(dp707
g62
(dp708
sg71
g662
sg64
(lp709
g57
(g78
g59
NtRp710
(dp711
g62
(dp712
g82
g83
ssg71
g706
sg64
(lp713
g336
asbag57
(g78
g59
NtRp714
(dp715
g62
(dp716
g89
g90
ssg71
g706
sg64
(lp717
S':'
asbag57
(g78
g59
NtRp718
(dp719
g62
(dp720
sg71
g706
sg64
(lp721
g57
(g58
g59
NtRp722
(dp723
g62
(dp724
g70
I3
ssg71
g718
sg64
(lp725
S''
asbasbasbag57
(g73
g59
NtRp726
(dp727
g62
(dp728
sg71
g662
sg64
(lp729
g57
(g78
g59
NtRp730
(dp731
g62
(dp732
g82
g83
ssg71
g726
sg64
(lp733
g357
asbag57
(g78
g59
NtRp734
(dp735
g62
(dp736
g89
g90
ssg71
g726
sg64
(lp737
S':'
asbag57
(g78
g59
NtRp738
(dp739
g62
(dp740
sg71
g726
sg64
(lp741
g57
(g58
g59
NtRp742
(dp743
g62
(dp744
g70
I3
ssg71
g738
sg64
(lp745
S''
asbasbasbag57
(g73
g59
NtRp746
(dp747
g62
(dp748
sg71
g662
sg64
(lp749
g57
(g78
g59
NtRp750
(dp751
g62
(dp752
g82
g83
ssg71
g746
sg64
(lp753
g378
asbag57
(g78
g59
NtRp754
(dp755
g62
(dp756
g89
g90
ssg71
g746
sg64
(lp757
S':'
asbag57
(g78
g59
NtRp758
(dp759
g62
(dp760
sg71
g746
sg64
(lp761
g57
(g58
g59
NtRp762
(dp763
g62
(dp764
g70
I3
ssg71
g758
sg64
(lp765
S''
asbasbasbag57
(g73
g59
NtRp766
(dp767
g62
(dp768
sg71
g662
sg64
(lp769
g57
(g78
g59
NtRp770
(dp771
g62
(dp772
g82
g83
ssg71
g766
sg64
(lp773
g399
asbag57
(g78
g59
NtRp774
(dp775
g62
(dp776
g89
g90
ssg71
g766
sg64
(lp777
S':'
asbag57
(g78
g59
NtRp778
(dp779
g62
(dp780
sg71
g766
sg64
(lp781
g57
(g58
g59
NtRp782
(dp783
g62
(dp784
g70
I3
ssg71
g778
sg64
(lp785
S''
asbasbasbag57
(g73
g59
NtRp786
(dp787
g62
(dp788
sg71
g662
sg64
(lp789
g57
(g78
g59
NtRp790
(dp791
g62
(dp792
g82
g83
ssg71
g786
sg64
(lp793
g420
asbag57
(g78
g59
NtRp794
(dp795
g62
(dp796
g89
g90
ssg71
g786
sg64
(lp797
S':'
asbag57
(g78
g59
NtRp798
(dp799
g62
(dp800
sg71
g786
sg64
(lp801
g57
(g58
g59
NtRp802
(dp803
g62
(dp804
g70
I3
ssg71
g798
sg64
(lp805
S''
asbasbasbag57
(g73
g59
NtRp806
(dp807
g62
(dp808
sg71
g662
sg64
(lp809
g57
(g78
g59
NtRp810
(dp811
g62
(dp812
g82
g83
ssg71
g806
sg64
(lp813
g441
asbag57
(g78
g59
NtRp814
(dp815
g62
(dp816
g89
g90
ssg71
g806
sg64
(lp817
S':'
asbag57
(g78
g59
NtRp818
(dp819
g62
(dp820
sg71
g806
sg64
(lp821
g57
(g58
g59
NtRp822
(dp823
g62
(dp824
g70
I3
ssg71
g818
sg64
(lp825
S''
asbasbasbasbasbasbasbag57
(g73
g59
NtRp826
(dp827
g62
(dp828
sg71
g256
sg64
(lp829
g57
(g78
g59
NtRp830
(dp831
g62
(dp832
g82
g83
ssg71
g826
sg64
(lp833
S'session_id_isas'
p834
asbag57
(g78
g59
NtRp835
(dp836
g62
(dp837
g89
g90
ssg71
g826
sg64
(lp838
S':'
asbag57
(g78
g59
NtRp839
(dp840
g62
(dp841
sg71
g826
sg64
(lp842
g57
(g58
g59
NtRp843
(dp844
g62
(dp845
g70
I4
ssg71
g839
sg64
(lp846
S'127.0.0.1-46261fb6-868f-4eb5-ae61-7251ec9ac039'
p847
ag57
(g66
g59
NtRp848
(dp849
g62
(dp850
g70
I3
ssg71
Nsg64
(lp851
g57
(g73
g59
NtRp852
(dp853
g62
(dp854
sg71
g848
sg64
(lp855
g57
(g78
g59
NtRp856
(dp857
g62
(dp858
g82
g83
ssg71
g852
sg64
(lp859
g294
asbag57
(g78
g59
NtRp860
(dp861
g62
(dp862
g89
g90
ssg71
g852
sg64
(lp863
S':'
asbag57
(g78
g59
NtRp864
(dp865
g62
(dp866
sg71
g852
sg64
(lp867
g57
(g58
g59
NtRp868
(dp869
g62
(dp870
g70
I3
ssg71
g864
sg64
(lp871
S''
asbasbasbag57
(g73
g59
NtRp872
(dp873
g62
(dp874
sg71
g848
sg64
(lp875
g57
(g78
g59
NtRp876
(dp877
g62
(dp878
g82
g83
ssg71
g872
sg64
(lp879
g315
asbag57
(g78
g59
NtRp880
(dp881
g62
(dp882
g89
g90
ssg71
g872
sg64
(lp883
S':'
asbag57
(g78
g59
NtRp884
(dp885
g62
(dp886
sg71
g872
sg64
(lp887
g57
(g58
g59
NtRp888
(dp889
g62
(dp890
g70
I3
ssg71
g884
sg64
(lp891
S''
asbasbasbag57
(g73
g59
NtRp892
(dp893
g62
(dp894
sg71
g848
sg64
(lp895
g57
(g78
g59
NtRp896
(dp897
g62
(dp898
g82
g83
ssg71
g892
sg64
(lp899
g336
asbag57
(g78
g59
NtRp900
(dp901
g62
(dp902
g89
g90
ssg71
g892
sg64
(lp903
S':'
asbag57
(g78
g59
NtRp904
(dp905
g62
(dp906
sg71
g892
sg64
(lp907
g57
(g58
g59
NtRp908
(dp909
g62
(dp910
g70
I3
ssg71
g904
sg64
(lp911
S''
asbasbasbag57
(g73
g59
NtRp912
(dp913
g62
(dp914
sg71
g848
sg64
(lp915
g57
(g78
g59
NtRp916
(dp917
g62
(dp918
g82
g83
ssg71
g912
sg64
(lp919
g357
asbag57
(g78
g59
NtRp920
(dp921
g62
(dp922
g89
g90
ssg71
g912
sg64
(lp923
S':'
asbag57
(g78
g59
NtRp924
(dp925
g62
(dp926
sg71
g912
sg64
(lp927
g57
(g58
g59
NtRp928
(dp929
g62
(dp930
g70
I3
ssg71
g924
sg64
(lp931
S''
asbasbasbag57
(g73
g59
NtRp932
(dp933
g62
(dp934
sg71
g848
sg64
(lp935
g57
(g78
g59
NtRp936
(dp937
g62
(dp938
g82
g83
ssg71
g932
sg64
(lp939
g378
asbag57
(g78
g59
NtRp940
(dp941
g62
(dp942
g89
g90
ssg71
g932
sg64
(lp943
S':'
asbag57
(g78
g59
NtRp944
(dp945
g62
(dp946
sg71
g932
sg64
(lp947
g57
(g58
g59
NtRp948
(dp949
g62
(dp950
g70
I3
ssg71
g944
sg64
(lp951
S''
asbasbasbag57
(g73
g59
NtRp952
(dp953
g62
(dp954
sg71
g848
sg64
(lp955
g57
(g78
g59
NtRp956
(dp957
g62
(dp958
g82
g83
ssg71
g952
sg64
(lp959
g399
asbag57
(g78
g59
NtRp960
(dp961
g62
(dp962
g89
g90
ssg71
g952
sg64
(lp963
S':'
asbag57
(g78
g59
NtRp964
(dp965
g62
(dp966
sg71
g952
sg64
(lp967
g57
(g58
g59
NtRp968
(dp969
g62
(dp970
g70
I3
ssg71
g964
sg64
(lp971
S''
asbasbasbag57
(g73
g59
NtRp972
(dp973
g62
(dp974
sg71
g848
sg64
(lp975
g57
(g78
g59
NtRp976
(dp977
g62
(dp978
g82
g83
ssg71
g972
sg64
(lp979
g420
asbag57
(g78
g59
NtRp980
(dp981
g62
(dp982
g89
g90
ssg71
g972
sg64
(lp983
S':'
asbag57
(g78
g59
NtRp984
(dp985
g62
(dp986
sg71
g972
sg64
(lp987
g57
(g58
g59
NtRp988
(dp989
g62
(dp990
g70
I3
ssg71
g984
sg64
(lp991
S''
asbasbasbag57
(g73
g59
NtRp992
(dp993
g62
(dp994
sg71
g848
sg64
(lp995
g57
(g78
g59
NtRp996
(dp997
g62
(dp998
g82
g83
ssg71
g992
sg64
(lp999
g441
asbag57
(g78
g59
NtRp1000
(dp1001
g62
(dp1002
g89
g90
ssg71
g992
sg64
(lp1003
S':'
asbag57
(g78
g59
NtRp1004
(dp1005
g62
(dp1006
sg71
g992
sg64
(lp1007
g57
(g58
g59
NtRp1008
(dp1009
g62
(dp1010
g70
I3
ssg71
g1004
sg64
(lp1011
S''
asbasbasbasbasbasbasbag57
(g73
g59
NtRp1012
(dp1013
g62
(dp1014
sg71
g256
sg64
(lp1015
g57
(g78
g59
NtRp1016
(dp1017
g62
(dp1018
g82
g83
ssg71
g1012
sg64
(lp1019
S'session_id_readit'
p1020
asbag57
(g78
g59
NtRp1021
(dp1022
g62
(dp1023
g89
g90
ssg71
g1012
sg64
(lp1024
S':'
asbag57
(g78
g59
NtRp1025
(dp1026
g62
(dp1027
sg71
g1012
sg64
(lp1028
g57
(g58
g59
NtRp1029
(dp1030
g62
(dp1031
g70
I4
ssg71
g1025
sg64
(lp1032
S'127.0.0.1-e391c20a-8d22-4e6d-a1c8-f85c00f99b3d'
p1033
ag57
(g66
g59
NtRp1034
(dp1035
g62
(dp1036
g70
I3
ssg71
Nsg64
(lp1037
g57
(g73
g59
NtRp1038
(dp1039
g62
(dp1040
sg71
g1034
sg64
(lp1041
g57
(g78
g59
NtRp1042
(dp1043
g62
(dp1044
g82
g83
ssg71
g1038
sg64
(lp1045
g294
asbag57
(g78
g59
NtRp1046
(dp1047
g62
(dp1048
g89
g90
ssg71
g1038
sg64
(lp1049
S':'
asbag57
(g78
g59
NtRp1050
(dp1051
g62
(dp1052
sg71
g1038
sg64
(lp1053
g57
(g58
g59
NtRp1054
(dp1055
g62
(dp1056
g70
I3
ssg71
g1050
sg64
(lp1057
S''
asbasbasbag57
(g73
g59
NtRp1058
(dp1059
g62
(dp1060
sg71
g1034
sg64
(lp1061
g57
(g78
g59
NtRp1062
(dp1063
g62
(dp1064
g82
g83
ssg71
g1058
sg64
(lp1065
g315
asbag57
(g78
g59
NtRp1066
(dp1067
g62
(dp1068
g89
g90
ssg71
g1058
sg64
(lp1069
S':'
asbag57
(g78
g59
NtRp1070
(dp1071
g62
(dp1072
sg71
g1058
sg64
(lp1073
g57
(g58
g59
NtRp1074
(dp1075
g62
(dp1076
g70
I3
ssg71
g1070
sg64
(lp1077
S''
asbasbasbag57
(g73
g59
NtRp1078
(dp1079
g62
(dp1080
sg71
g1034
sg64
(lp1081
g57
(g78
g59
NtRp1082
(dp1083
g62
(dp1084
g82
g83
ssg71
g1078
sg64
(lp1085
g336
asbag57
(g78
g59
NtRp1086
(dp1087
g62
(dp1088
g89
g90
ssg71
g1078
sg64
(lp1089
S':'
asbag57
(g78
g59
NtRp1090
(dp1091
g62
(dp1092
sg71
g1078
sg64
(lp1093
g57
(g58
g59
NtRp1094
(dp1095
g62
(dp1096
g70
I3
ssg71
g1090
sg64
(lp1097
S''
asbasbasbag57
(g73
g59
NtRp1098
(dp1099
g62
(dp1100
sg71
g1034
sg64
(lp1101
g57
(g78
g59
NtRp1102
(dp1103
g62
(dp1104
g82
g83
ssg71
g1098
sg64
(lp1105
g357
asbag57
(g78
g59
NtRp1106
(dp1107
g62
(dp1108
g89
g90
ssg71
g1098
sg64
(lp1109
S':'
asbag57
(g78
g59
NtRp1110
(dp1111
g62
(dp1112
sg71
g1098
sg64
(lp1113
g57
(g58
g59
NtRp1114
(dp1115
g62
(dp1116
g70
I3
ssg71
g1110
sg64
(lp1117
S''
asbasbasbag57
(g73
g59
NtRp1118
(dp1119
g62
(dp1120
sg71
g1034
sg64
(lp1121
g57
(g78
g59
NtRp1122
(dp1123
g62
(dp1124
g82
g83
ssg71
g1118
sg64
(lp1125
g378
asbag57
(g78
g59
NtRp1126
(dp1127
g62
(dp1128
g89
g90
ssg71
g1118
sg64
(lp1129
S':'
asbag57
(g78
g59
NtRp1130
(dp1131
g62
(dp1132
sg71
g1118
sg64
(lp1133
g57
(g58
g59
NtRp1134
(dp1135
g62
(dp1136
g70
I3
ssg71
g1130
sg64
(lp1137
S''
asbasbasbag57
(g73
g59
NtRp1138
(dp1139
g62
(dp1140
sg71
g1034
sg64
(lp1141
g57
(g78
g59
NtRp1142
(dp1143
g62
(dp1144
g82
g83
ssg71
g1138
sg64
(lp1145
g399
asbag57
(g78
g59
NtRp1146
(dp1147
g62
(dp1148
g89
g90
ssg71
g1138
sg64
(lp1149
S':'
asbag57
(g78
g59
NtRp1150
(dp1151
g62
(dp1152
sg71
g1138
sg64
(lp1153
g57
(g58
g59
NtRp1154
(dp1155
g62
(dp1156
g70
I3
ssg71
g1150
sg64
(lp1157
S''
asbasbasbag57
(g73
g59
NtRp1158
(dp1159
g62
(dp1160
sg71
g1034
sg64
(lp1161
g57
(g78
g59
NtRp1162
(dp1163
g62
(dp1164
g82
g83
ssg71
g1158
sg64
(lp1165
g420
asbag57
(g78
g59
NtRp1166
(dp1167
g62
(dp1168
g89
g90
ssg71
g1158
sg64
(lp1169
S':'
asbag57
(g78
g59
NtRp1170
(dp1171
g62
(dp1172
sg71
g1158
sg64
(lp1173
g57
(g58
g59
NtRp1174
(dp1175
g62
(dp1176
g70
I3
ssg71
g1170
sg64
(lp1177
S''
asbasbasbag57
(g73
g59
NtRp1178
(dp1179
g62
(dp1180
sg71
g1034
sg64
(lp1181
g57
(g78
g59
NtRp1182
(dp1183
g62
(dp1184
g82
g83
ssg71
g1178
sg64
(lp1185
g441
asbag57
(g78
g59
NtRp1186
(dp1187
g62
(dp1188
g89
g90
ssg71
g1178
sg64
(lp1189
S':'
asbag57
(g78
g59
NtRp1190
(dp1191
g62
(dp1192
sg71
g1178
sg64
(lp1193
g57
(g58
g59
NtRp1194
(dp1195
g62
(dp1196
g70
I3
ssg71
g1190
sg64
(lp1197
S''
asbasbasbasbasbasbasbag57
(g73
g59
NtRp1198
(dp1199
g62
(dp1200
sg71
g256
sg64
(lp1201
g57
(g78
g59
NtRp1202
(dp1203
g62
(dp1204
g82
g83
ssg71
g1198
sg64
(lp1205
S'session_id_welcome'
p1206
asbag57
(g78
g59
NtRp1207
(dp1208
g62
(dp1209
g89
g90
ssg71
g1198
sg64
(lp1210
S':'
asbag57
(g78
g59
NtRp1211
(dp1212
g62
(dp1213
sg71
g1198
sg64
(lp1214
g57
(g58
g59
NtRp1215
(dp1216
g62
(dp1217
g70
I4
ssg71
g1211
sg64
(lp1218
S'127.0.0.1-2837c0cc-fb0c-4598-b75f-5727d328e2ad'
p1219
ag57
(g66
g59
NtRp1220
(dp1221
g62
(dp1222
g70
I3
ssg71
Nsg64
(lp1223
g57
(g73
g59
NtRp1224
(dp1225
g62
(dp1226
sg71
g1220
sg64
(lp1227
g57
(g78
g59
NtRp1228
(dp1229
g62
(dp1230
g82
g83
ssg71
g1224
sg64
(lp1231
g294
asbag57
(g78
g59
NtRp1232
(dp1233
g62
(dp1234
g89
g90
ssg71
g1224
sg64
(lp1235
S':'
asbag57
(g78
g59
NtRp1236
(dp1237
g62
(dp1238
sg71
g1224
sg64
(lp1239
g57
(g58
g59
NtRp1240
(dp1241
g62
(dp1242
g70
I3
ssg71
g1236
sg64
(lp1243
S''
asbasbasbag57
(g73
g59
NtRp1244
(dp1245
g62
(dp1246
sg71
g1220
sg64
(lp1247
g57
(g78
g59
NtRp1248
(dp1249
g62
(dp1250
g82
g83
ssg71
g1244
sg64
(lp1251
g315
asbag57
(g78
g59
NtRp1252
(dp1253
g62
(dp1254
g89
g90
ssg71
g1244
sg64
(lp1255
S':'
asbag57
(g78
g59
NtRp1256
(dp1257
g62
(dp1258
sg71
g1244
sg64
(lp1259
g57
(g58
g59
NtRp1260
(dp1261
g62
(dp1262
g70
I3
ssg71
g1256
sg64
(lp1263
S''
asbasbasbag57
(g73
g59
NtRp1264
(dp1265
g62
(dp1266
sg71
g1220
sg64
(lp1267
g57
(g78
g59
NtRp1268
(dp1269
g62
(dp1270
g82
g83
ssg71
g1264
sg64
(lp1271
g336
asbag57
(g78
g59
NtRp1272
(dp1273
g62
(dp1274
g89
g90
ssg71
g1264
sg64
(lp1275
S':'
asbag57
(g78
g59
NtRp1276
(dp1277
g62
(dp1278
sg71
g1264
sg64
(lp1279
g57
(g58
g59
NtRp1280
(dp1281
g62
(dp1282
g70
I3
ssg71
g1276
sg64
(lp1283
S''
asbasbasbag57
(g73
g59
NtRp1284
(dp1285
g62
(dp1286
sg71
g1220
sg64
(lp1287
g57
(g78
g59
NtRp1288
(dp1289
g62
(dp1290
g82
g83
ssg71
g1284
sg64
(lp1291
g357
asbag57
(g78
g59
NtRp1292
(dp1293
g62
(dp1294
g89
g90
ssg71
g1284
sg64
(lp1295
S':'
asbag57
(g78
g59
NtRp1296
(dp1297
g62
(dp1298
sg71
g1284
sg64
(lp1299
g57
(g58
g59
NtRp1300
(dp1301
g62
(dp1302
g70
I3
ssg71
g1296
sg64
(lp1303
S''
asbasbasbag57
(g73
g59
NtRp1304
(dp1305
g62
(dp1306
sg71
g1220
sg64
(lp1307
g57
(g78
g59
NtRp1308
(dp1309
g62
(dp1310
g82
g83
ssg71
g1304
sg64
(lp1311
g378
asbag57
(g78
g59
NtRp1312
(dp1313
g62
(dp1314
g89
g90
ssg71
g1304
sg64
(lp1315
S':'
asbag57
(g78
g59
NtRp1316
(dp1317
g62
(dp1318
sg71
g1304
sg64
(lp1319
g57
(g58
g59
NtRp1320
(dp1321
g62
(dp1322
g70
I3
ssg71
g1316
sg64
(lp1323
S''
asbasbasbag57
(g73
g59
NtRp1324
(dp1325
g62
(dp1326
sg71
g1220
sg64
(lp1327
g57
(g78
g59
NtRp1328
(dp1329
g62
(dp1330
g82
g83
ssg71
g1324
sg64
(lp1331
g399
asbag57
(g78
g59
NtRp1332
(dp1333
g62
(dp1334
g89
g90
ssg71
g1324
sg64
(lp1335
S':'
asbag57
(g78
g59
NtRp1336
(dp1337
g62
(dp1338
sg71
g1324
sg64
(lp1339
g57
(g58
g59
NtRp1340
(dp1341
g62
(dp1342
g70
I3
ssg71
g1336
sg64
(lp1343
S''
asbasbasbag57
(g73
g59
NtRp1344
(dp1345
g62
(dp1346
sg71
g1220
sg64
(lp1347
g57
(g78
g59
NtRp1348
(dp1349
g62
(dp1350
g82
g83
ssg71
g1344
sg64
(lp1351
g420
asbag57
(g78
g59
NtRp1352
(dp1353
g62
(dp1354
g89
g90
ssg71
g1344
sg64
(lp1355
S':'
asbag57
(g78
g59
NtRp1356
(dp1357
g62
(dp1358
sg71
g1344
sg64
(lp1359
g57
(g58
g59
NtRp1360
(dp1361
g62
(dp1362
g70
I3
ssg71
g1356
sg64
(lp1363
S''
asbasbasbag57
(g73
g59
NtRp1364
(dp1365
g62
(dp1366
sg71
g1220
sg64
(lp1367
g57
(g78
g59
NtRp1368
(dp1369
g62
(dp1370
g82
g83
ssg71
g1364
sg64
(lp1371
g441
asbag57
(g78
g59
NtRp1372
(dp1373
g62
(dp1374
g89
g90
ssg71
g1364
sg64
(lp1375
S':'
asbag57
(g78
g59
NtRp1376
(dp1377
g62
(dp1378
sg71
g1364
sg64
(lp1379
g57
(g58
g59
NtRp1380
(dp1381
g62
(dp1382
g70
I3
ssg71
g1376
sg64
(lp1383
S''
asbasbasbasbasbasbasbasbasbasbasbag57
(g73
g59
NtRp1384
(dp1385
g62
(dp1386
sg71
g67
sg64
(lp1387
g57
(g78
g59
NtRp1388
(dp1389
g62
(dp1390
g82
g83
ssg71
g1384
sg64
(lp1391
S'env'
p1392
asbag57
(g78
g59
NtRp1393
(dp1394
g62
(dp1395
g89
g90
ssg71
g1384
sg64
(lp1396
S':'
asbag57
(g78
g59
NtRp1397
(dp1398
g62
(dp1399
sg71
g1384
sg64
(lp1400
g57
(g58
g59
NtRp1401
(dp1402
g62
(dp1403
g70
I5
ssg71
g1397
sg64
(lp1404
g57
(g66
g59
NtRp1405
(dp1406
g62
(dp1407
g70
I4
ssg71
Nsg64
(lp1408
g57
(g73
g59
NtRp1409
(dp1410
g62
(dp1411
sg71
g1405
sg64
(lp1412
g57
(g78
g59
NtRp1413
(dp1414
g62
(dp1415
g82
g83
ssg71
g1409
sg64
(lp1416
S'app_folders'
p1417
asbag57
(g78
g59
NtRp1418
(dp1419
g62
(dp1420
g89
g90
ssg71
g1409
sg64
(lp1421
S':'
asbag57
(g78
g59
NtRp1422
(dp1423
g62
(dp1424
sg71
g1409
sg64
(lp1425
g57
(g58
g59
NtRp1426
(dp1427
g62
(dp1428
g70
I4
ssg71
g1422
sg64
(lp1429
S"set(['/home/darshan/web2py/applications/Isas/', '/home/darshan/web2py/applications/examples/', '/home/darshan/web2py/applications/readit/', '/home/darshan/web2py/applications/admin/', '/home/darshan/web2py/applications/Garbage_Truck/', '/home/darshan/web2py/applications/welcome/', '/home/darshan/web2py/applications/isas/'])"
p1430
asbasbasbag57
(g73
g59
NtRp1431
(dp1432
g62
(dp1433
sg71
g1405
sg64
(lp1434
g57
(g78
g59
NtRp1435
(dp1436
g62
(dp1437
g82
g83
ssg71
g1431
sg64
(lp1438
S'applications_parent'
p1439
asbag57
(g78
g59
NtRp1440
(dp1441
g62
(dp1442
g89
g90
ssg71
g1431
sg64
(lp1443
S':'
asbag57
(g78
g59
NtRp1444
(dp1445
g62
(dp1446
sg71
g1431
sg64
(lp1447
g57
(g58
g59
NtRp1448
(dp1449
g62
(dp1450
g70
I4
ssg71
g1444
sg64
(lp1451
S'/home/darshan/web2py'
p1452
asbasbasbag57
(g73
g59
NtRp1453
(dp1454
g62
(dp1455
sg71
g1405
sg64
(lp1456
g57
(g78
g59
NtRp1457
(dp1458
g62
(dp1459
g82
g83
ssg71
g1453
sg64
(lp1460
S'cmd_args'
p1461
asbag57
(g78
g59
NtRp1462
(dp1463
g62
(dp1464
g89
g90
ssg71
g1453
sg64
(lp1465
S':'
asbag57
(g78
g59
NtRp1466
(dp1467
g62
(dp1468
sg71
g1453
sg64
(lp1469
g57
(g58
g59
NtRp1470
(dp1471
g62
(dp1472
g70
I4
ssg71
g1466
sg64
(lp1473
g57
(g66
g59
NtRp1474
(dp1475
g62
(dp1476
g70
I3
ssg71
Nsg64
(lp1477
sbasbasbasbag57
(g73
g59
NtRp1478
(dp1479
g62
(dp1480
sg71
g1405
sg64
(lp1481
g57
(g78
g59
NtRp1482
(dp1483
g62
(dp1484
g82
g83
ssg71
g1478
sg64
(lp1485
S'cmd_options'
p1486
asbag57
(g78
g59
NtRp1487
(dp1488
g62
(dp1489
g89
g90
ssg71
g1478
sg64
(lp1490
S':'
asbag57
(g78
g59
NtRp1491
(dp1492
g62
(dp1493
sg71
g1478
sg64
(lp1494
g57
(g58
g59
NtRp1495
(dp1496
g62
(dp1497
g70
I4
ssg71
g1491
sg64
(lp1498
S"<Values at 0x7f92baaf7f80: {'verbose': False, 'ip': '127.0.0.1', 'with_scheduler': False, 'ips': [], 'shutdown_timeout': 5, 'taskbar': False, 'port': 8000, 'maxthreads': None, 'softcron': False, 'server_name': 'darshan-Inspiron-5520', 'bpython': False, 'nogui': False, 'pid_filename': 'httpserver.pid', 'extcron': False, 'runcron': False, 'run_system_tests': False, 'test': None, 'folder': '/home/darshan/web2py', 'config': '', 'minthreads': None, 'winservice': '', 'shell': None, 'run': '', 'log_filename': 'httpserver.log', 'debuglevel': 30, 'args': [''], 'socket_timeout': 5, 'ssl_ca_certificate': None, 'scheduler': None, 'profiler_filename': None, 'ssl_private_key': '', 'scheduler_groups': None, 'password': '<ask>', 'request_queue_size': 5, 'ssl_certificate': '', 'cronjob': False, 'numthreads': None, 'quiet': False, 'interfaces': None, 'import_models': False, 'timeout': 10, 'plain': False, 'nobanner': False}>"
p1499
asbasbasbag57
(g73
g59
NtRp1500
(dp1501
g62
(dp1502
sg71
g1405
sg64
(lp1503
g57
(g78
g59
NtRp1504
(dp1505
g62
(dp1506
g82
g83
ssg71
g1500
sg64
(lp1507
S'db_sessions'
p1508
asbag57
(g78
g59
NtRp1509
(dp1510
g62
(dp1511
g89
g90
ssg71
g1500
sg64
(lp1512
S':'
asbag57
(g78
g59
NtRp1513
(dp1514
g62
(dp1515
sg71
g1500
sg64
(lp1516
g57
(g58
g59
NtRp1517
(dp1518
g62
(dp1519
g70
I4
ssg71
g1513
sg64
(lp1520
S'set([])'
p1521
asbasbasbag57
(g73
g59
NtRp1522
(dp1523
g62
(dp1524
sg71
g1405
sg64
(lp1525
g57
(g78
g59
NtRp1526
(dp1527
g62
(dp1528
g82
g83
ssg71
g1522
sg64
(lp1529
S'debugging'
p1530
asbag57
(g78
g59
NtRp1531
(dp1532
g62
(dp1533
g89
g90
ssg71
g1522
sg64
(lp1534
S':'
asbag57
(g78
g59
NtRp1535
(dp1536
g62
(dp1537
sg71
g1522
sg64
(lp1538
g57
(g58
g59
NtRp1539
(dp1540
g62
(dp1541
g70
I4
ssg71
g1535
sg64
(lp1542
g100
asbasbasbag57
(g73
g59
NtRp1543
(dp1544
g62
(dp1545
sg71
g1405
sg64
(lp1546
g57
(g78
g59
NtRp1547
(dp1548
g62
(dp1549
g82
g83
ssg71
g1543
sg64
(lp1550
S'gluon_parent'
p1551
asbag57
(g78
g59
NtRp1552
(dp1553
g62
(dp1554
g89
g90
ssg71
g1543
sg64
(lp1555
S':'
asbag57
(g78
g59
NtRp1556
(dp1557
g62
(dp1558
sg71
g1543
sg64
(lp1559
g57
(g58
g59
NtRp1560
(dp1561
g62
(dp1562
g70
I4
ssg71
g1556
sg64
(lp1563
S'/home/darshan/web2py'
p1564
asbasbasbag57
(g73
g59
NtRp1565
(dp1566
g62
(dp1567
sg71
g1405
sg64
(lp1568
g57
(g78
g59
NtRp1569
(dp1570
g62
(dp1571
g82
g83
ssg71
g1565
sg64
(lp1572
S'http_accept'
p1573
asbag57
(g78
g59
NtRp1574
(dp1575
g62
(dp1576
g89
g90
ssg71
g1565
sg64
(lp1577
S':'
asbag57
(g78
g59
NtRp1578
(dp1579
g62
(dp1580
sg71
g1565
sg64
(lp1581
g57
(g58
g59
NtRp1582
(dp1583
g62
(dp1584
g70
I4
ssg71
g1578
sg64
(lp1585
S'text/html,application/xhtml+xml,application/xml;q=0.9,*/*;q=0.8'
p1586
asbasbasbag57
(g73
g59
NtRp1587
(dp1588
g62
(dp1589
sg71
g1405
sg64
(lp1590
g57
(g78
g59
NtRp1591
(dp1592
g62
(dp1593
g82
g83
ssg71
g1587
sg64
(lp1594
S'http_accept_encoding'
p1595
asbag57
(g78
g59
NtRp1596
(dp1597
g62
(dp1598
g89
g90
ssg71
g1587
sg64
(lp1599
S':'
asbag57
(g78
g59
NtRp1600
(dp1601
g62
(dp1602
sg71
g1587
sg64
(lp1603
g57
(g58
g59
NtRp1604
(dp1605
g62
(dp1606
g70
I4
ssg71
g1600
sg64
(lp1607
S'gzip, deflate'
p1608
asbasbasbag57
(g73
g59
NtRp1609
(dp1610
g62
(dp1611
sg71
g1405
sg64
(lp1612
g57
(g78
g59
NtRp1613
(dp1614
g62
(dp1615
g82
g83
ssg71
g1609
sg64
(lp1616
S'http_accept_language'
p1617
asbag57
(g78
g59
NtRp1618
(dp1619
g62
(dp1620
g89
g90
ssg71
g1609
sg64
(lp1621
S':'
asbag57
(g78
g59
NtRp1622
(dp1623
g62
(dp1624
sg71
g1609
sg64
(lp1625
g57
(g58
g59
NtRp1626
(dp1627
g62
(dp1628
g70
I4
ssg71
g1622
sg64
(lp1629
S'en-US,en;q=0.5'
p1630
asbasbasbag57
(g73
g59
NtRp1631
(dp1632
g62
(dp1633
sg71
g1405
sg64
(lp1634
g57
(g78
g59
NtRp1635
(dp1636
g62
(dp1637
g82
g83
ssg71
g1631
sg64
(lp1638
S'http_cache_control'
p1639
asbag57
(g78
g59
NtRp1640
(dp1641
g62
(dp1642
g89
g90
ssg71
g1631
sg64
(lp1643
S':'
asbag57
(g78
g59
NtRp1644
(dp1645
g62
(dp1646
sg71
g1631
sg64
(lp1647
g57
(g58
g59
NtRp1648
(dp1649
g62
(dp1650
g70
I4
ssg71
g1644
sg64
(lp1651
S'max-age=0'
p1652
asbasbasbag57
(g73
g59
NtRp1653
(dp1654
g62
(dp1655
sg71
g1405
sg64
(lp1656
g57
(g78
g59
NtRp1657
(dp1658
g62
(dp1659
g82
g83
ssg71
g1653
sg64
(lp1660
S'http_connection'
p1661
asbag57
(g78
g59
NtRp1662
(dp1663
g62
(dp1664
g89
g90
ssg71
g1653
sg64
(lp1665
S':'
asbag57
(g78
g59
NtRp1666
(dp1667
g62
(dp1668
sg71
g1653
sg64
(lp1669
g57
(g58
g59
NtRp1670
(dp1671
g62
(dp1672
g70
I4
ssg71
g1666
sg64
(lp1673
S'keep-alive'
p1674
asbasbasbag57
(g73
g59
NtRp1675
(dp1676
g62
(dp1677
sg71
g1405
sg64
(lp1678
g57
(g78
g59
NtRp1679
(dp1680
g62
(dp1681
g82
g83
ssg71
g1675
sg64
(lp1682
S'http_cookie'
p1683
asbag57
(g78
g59
NtRp1684
(dp1685
g62
(dp1686
g89
g90
ssg71
g1675
sg64
(lp1687
S':'
asbag57
(g78
g59
NtRp1688
(dp1689
g62
(dp1690
sg71
g1675
sg64
(lp1691
g57
(g58
g59
NtRp1692
(dp1693
g62
(dp1694
g70
I4
ssg71
g1688
sg64
(lp1695
S'csrftoken=a9lCt5w7Q4OG437IZNwjtNB3YEdWYXWm; session_id_admin=127.0.0.1-e6c203e9-d008-4610-8523-5a0e93da9abb; session_id_welcome=127.0.0.1-2837c0cc-fb0c-4598-b75f-5727d328e2ad; session_id_readit=127.0.0.1-e391c20a-8d22-4e6d-a1c8-f85c00f99b3d; session_id_isas=127.0.0.1-46261fb6-868f-4eb5-ae61-7251ec9ac039; session_id_garbage_truck=127.0.0.1-eb5e8630-3789-44cf-90c0-4c0a37fc535a'
p1696
asbasbasbag57
(g73
g59
NtRp1697
(dp1698
g62
(dp1699
sg71
g1405
sg64
(lp1700
g57
(g78
g59
NtRp1701
(dp1702
g62
(dp1703
g82
g83
ssg71
g1697
sg64
(lp1704
S'http_dnt'
p1705
asbag57
(g78
g59
NtRp1706
(dp1707
g62
(dp1708
g89
g90
ssg71
g1697
sg64
(lp1709
S':'
asbag57
(g78
g59
NtRp1710
(dp1711
g62
(dp1712
sg71
g1697
sg64
(lp1713
g57
(g58
g59
NtRp1714
(dp1715
g62
(dp1716
g70
I4
ssg71
g1710
sg64
(lp1717
S'1'
asbasbasbag57
(g73
g59
NtRp1718
(dp1719
g62
(dp1720
sg71
g1405
sg64
(lp1721
g57
(g78
g59
NtRp1722
(dp1723
g62
(dp1724
g82
g83
ssg71
g1718
sg64
(lp1725
S'http_host'
p1726
asbag57
(g78
g59
NtRp1727
(dp1728
g62
(dp1729
g89
g90
ssg71
g1718
sg64
(lp1730
S':'
asbag57
(g78
g59
NtRp1731
(dp1732
g62
(dp1733
sg71
g1718
sg64
(lp1734
g57
(g58
g59
NtRp1735
(dp1736
g62
(dp1737
g70
I4
ssg71
g1731
sg64
(lp1738
S'127.0.0.1:8000'
p1739
asbasbasbag57
(g73
g59
NtRp1740
(dp1741
g62
(dp1742
sg71
g1405
sg64
(lp1743
g57
(g78
g59
NtRp1744
(dp1745
g62
(dp1746
g82
g83
ssg71
g1740
sg64
(lp1747
S'http_referer'
p1748
asbag57
(g78
g59
NtRp1749
(dp1750
g62
(dp1751
g89
g90
ssg71
g1740
sg64
(lp1752
S':'
asbag57
(g78
g59
NtRp1753
(dp1754
g62
(dp1755
sg71
g1740
sg64
(lp1756
g57
(g58
g59
NtRp1757
(dp1758
g62
(dp1759
g70
I4
ssg71
g1753
sg64
(lp1760
S'http://127.0.0.1:8000/Garbage_Truck/default/ghmc_official'
p1761
asbasbasbag57
(g73
g59
NtRp1762
(dp1763
g62
(dp1764
sg71
g1405
sg64
(lp1765
g57
(g78
g59
NtRp1766
(dp1767
g62
(dp1768
g82
g83
ssg71
g1762
sg64
(lp1769
S'http_user_agent'
p1770
asbag57
(g78
g59
NtRp1771
(dp1772
g62
(dp1773
g89
g90
ssg71
g1762
sg64
(lp1774
S':'
asbag57
(g78
g59
NtRp1775
(dp1776
g62
(dp1777
sg71
g1762
sg64
(lp1778
g57
(g58
g59
NtRp1779
(dp1780
g62
(dp1781
g70
I4
ssg71
g1775
sg64
(lp1782
S'Mozilla/5.0 (X11; Ubuntu; Linux x86_64; rv:32.0) Gecko/20100101 Firefox/32.0'
p1783
asbasbasbag57
(g73
g59
NtRp1784
(dp1785
g62
(dp1786
sg71
g1405
sg64
(lp1787
g57
(g78
g59
NtRp1788
(dp1789
g62
(dp1790
g82
g83
ssg71
g1784
sg64
(lp1791
S'is_jython'
p1792
asbag57
(g78
g59
NtRp1793
(dp1794
g62
(dp1795
g89
g90
ssg71
g1784
sg64
(lp1796
S':'
asbag57
(g78
g59
NtRp1797
(dp1798
g62
(dp1799
sg71
g1784
sg64
(lp1800
g57
(g58
g59
NtRp1801
(dp1802
g62
(dp1803
g70
I4
ssg71
g1797
sg64
(lp1804
g100
asbasbasbag57
(g73
g59
NtRp1805
(dp1806
g62
(dp1807
sg71
g1405
sg64
(lp1808
g57
(g78
g59
NtRp1809
(dp1810
g62
(dp1811
g82
g83
ssg71
g1805
sg64
(lp1812
S'is_pypy'
p1813
asbag57
(g78
g59
NtRp1814
(dp1815
g62
(dp1816
g89
g90
ssg71
g1805
sg64
(lp1817
S':'
asbag57
(g78
g59
NtRp1818
(dp1819
g62
(dp1820
sg71
g1805
sg64
(lp1821
g57
(g58
g59
NtRp1822
(dp1823
g62
(dp1824
g70
I4
ssg71
g1818
sg64
(lp1825
g100
asbasbasbag57
(g73
g59
NtRp1826
(dp1827
g62
(dp1828
sg71
g1405
sg64
(lp1829
g57
(g78
g59
NtRp1830
(dp1831
g62
(dp1832
g82
g83
ssg71
g1826
sg64
(lp1833
S'local_hosts'
p1834
asbag57
(g78
g59
NtRp1835
(dp1836
g62
(dp1837
g89
g90
ssg71
g1826
sg64
(lp1838
S':'
asbag57
(g78
g59
NtRp1839
(dp1840
g62
(dp1841
sg71
g1826
sg64
(lp1842
g57
(g58
g59
NtRp1843
(dp1844
g62
(dp1845
g70
I4
ssg71
g1839
sg64
(lp1846
g57
(g66
g59
NtRp1847
(dp1848
g62
(dp1849
g70
I3
ssg71
Nsg64
(lp1850
g57
(g73
g59
NtRp1851
(dp1852
g62
(dp1853
sg71
g1847
sg64
(lp1854
g57
(g78
g59
NtRp1855
(dp1856
g62
(dp1857
sg71
g1851
sg64
(lp1858
g57
(g58
g59
NtRp1859
(dp1860
g62
(dp1861
g70
I3
ssg71
g1855
sg64
(lp1862
S'::1'
p1863
asbasbasbag57
(g73
g59
NtRp1864
(dp1865
g62
(dp1866
sg71
g1847
sg64
(lp1867
g57
(g78
g59
NtRp1868
(dp1869
g62
(dp1870
sg71
g1864
sg64
(lp1871
g57
(g58
g59
NtRp1872
(dp1873
g62
(dp1874
g70
I3
ssg71
g1868
sg64
(lp1875
S'127.0.1.1'
p1876
asbasbasbag57
(g73
g59
NtRp1877
(dp1878
g62
(dp1879
sg71
g1847
sg64
(lp1880
g57
(g78
g59
NtRp1881
(dp1882
g62
(dp1883
sg71
g1877
sg64
(lp1884
g57
(g58
g59
NtRp1885
(dp1886
g62
(dp1887
g70
I3
ssg71
g1881
sg64
(lp1888
S'darshan-Inspiron-5520'
p1889
asbasbasbag57
(g73
g59
NtRp1890
(dp1891
g62
(dp1892
sg71
g1847
sg64
(lp1893
g57
(g78
g59
NtRp1894
(dp1895
g62
(dp1896
sg71
g1890
sg64
(lp1897
g57
(g58
g59
NtRp1898
(dp1899
g62
(dp1900
g70
I3
ssg71
g1894
sg64
(lp1901
S'::ffff:127.0.0.1'
p1902
asbasbasbag57
(g73
g59
NtRp1903
(dp1904
g62
(dp1905
sg71
g1847
sg64
(lp1906
g57
(g78
g59
NtRp1907
(dp1908
g62
(dp1909
sg71
g1903
sg64
(lp1910
g57
(g58
g59
NtRp1911
(dp1912
g62
(dp1913
g70
I3
ssg71
g1907
sg64
(lp1914
S'127.0.0.1'
p1915
asbasbasbasbasbasbasbag57
(g73
g59
NtRp1916
(dp1917
g62
(dp1918
sg71
g1405
sg64
(lp1919
g57
(g78
g59
NtRp1920
(dp1921
g62
(dp1922
g82
g83
ssg71
g1916
sg64
(lp1923
S'path_info'
p1924
asbag57
(g78
g59
NtRp1925
(dp1926
g62
(dp1927
g89
g90
ssg71
g1916
sg64
(lp1928
S':'
asbag57
(g78
g59
NtRp1929
(dp1930
g62
(dp1931
sg71
g1916
sg64
(lp1932
g57
(g58
g59
NtRp1933
(dp1934
g62
(dp1935
g70
I4
ssg71
g1929
sg64
(lp1936
S'/Garbage_Truck/default/request_urgent_view'
p1937
asbasbasbag57
(g73
g59
NtRp1938
(dp1939
g62
(dp1940
sg71
g1405
sg64
(lp1941
g57
(g78
g59
NtRp1942
(dp1943
g62
(dp1944
g82
g83
ssg71
g1938
sg64
(lp1945
S'query_string'
p1946
asbag57
(g78
g59
NtRp1947
(dp1948
g62
(dp1949
g89
g90
ssg71
g1938
sg64
(lp1950
S':'
asbag57
(g78
g59
NtRp1951
(dp1952
g62
(dp1953
sg71
g1938
sg64
(lp1954
g57
(g58
g59
NtRp1955
(dp1956
g62
(dp1957
g70
I4
ssg71
g1951
sg64
(lp1958
S''
asbasbasbag57
(g73
g59
NtRp1959
(dp1960
g62
(dp1961
sg71
g1405
sg64
(lp1962
g57
(g78
g59
NtRp1963
(dp1964
g62
(dp1965
g82
g83
ssg71
g1959
sg64
(lp1966
S'remote_addr'
p1967
asbag57
(g78
g59
NtRp1968
(dp1969
g62
(dp1970
g89
g90
ssg71
g1959
sg64
(lp1971
S':'
asbag57
(g78
g59
NtRp1972
(dp1973
g62
(dp1974
sg71
g1959
sg64
(lp1975
g57
(g58
g59
NtRp1976
(dp1977
g62
(dp1978
g70
I4
ssg71
g1972
sg64
(lp1979
g212
asbasbasbag57
(g73
g59
NtRp1980
(dp1981
g62
(dp1982
sg71
g1405
sg64
(lp1983
g57
(g78
g59
NtRp1984
(dp1985
g62
(dp1986
g82
g83
ssg71
g1980
sg64
(lp1987
S'remote_port'
p1988
asbag57
(g78
g59
NtRp1989
(dp1990
g62
(dp1991
g89
g90
ssg71
g1980
sg64
(lp1992
S':'
asbag57
(g78
g59
NtRp1993
(dp1994
g62
(dp1995
sg71
g1980
sg64
(lp1996
g57
(g58
g59
NtRp1997
(dp1998
g62
(dp1999
g70
I4
ssg71
g1993
sg64
(lp2000
S'34297'
p2001
asbasbasbag57
(g73
g59
NtRp2002
(dp2003
g62
(dp2004
sg71
g1405
sg64
(lp2005
g57
(g78
g59
NtRp2006
(dp2007
g62
(dp2008
g82
g83
ssg71
g2002
sg64
(lp2009
S'request_method'
p2010
asbag57
(g78
g59
NtRp2011
(dp2012
g62
(dp2013
g89
g90
ssg71
g2002
sg64
(lp2014
S':'
asbag57
(g78
g59
NtRp2015
(dp2016
g62
(dp2017
sg71
g2002
sg64
(lp2018
g57
(g58
g59
NtRp2019
(dp2020
g62
(dp2021
g70
I4
ssg71
g2015
sg64
(lp2022
S'GET'
p2023
asbasbasbag57
(g73
g59
NtRp2024
(dp2025
g62
(dp2026
sg71
g1405
sg64
(lp2027
g57
(g78
g59
NtRp2028
(dp2029
g62
(dp2030
g82
g83
ssg71
g2024
sg64
(lp2031
S'request_uri'
p2032
asbag57
(g78
g59
NtRp2033
(dp2034
g62
(dp2035
g89
g90
ssg71
g2024
sg64
(lp2036
S':'
asbag57
(g78
g59
NtRp2037
(dp2038
g62
(dp2039
sg71
g2024
sg64
(lp2040
g57
(g58
g59
NtRp2041
(dp2042
g62
(dp2043
g70
I4
ssg71
g2037
sg64
(lp2044
g1937
asbasbasbag57
(g73
g59
NtRp2045
(dp2046
g62
(dp2047
sg71
g1405
sg64
(lp2048
g57
(g78
g59
NtRp2049
(dp2050
g62
(dp2051
g82
g83
ssg71
g2045
sg64
(lp2052
S'script_name'
p2053
asbag57
(g78
g59
NtRp2054
(dp2055
g62
(dp2056
g89
g90
ssg71
g2045
sg64
(lp2057
S':'
asbag57
(g78
g59
NtRp2058
(dp2059
g62
(dp2060
sg71
g2045
sg64
(lp2061
g57
(g58
g59
NtRp2062
(dp2063
g62
(dp2064
g70
I4
ssg71
g2058
sg64
(lp2065
S''
asbasbasbag57
(g73
g59
NtRp2066
(dp2067
g62
(dp2068
sg71
g1405
sg64
(lp2069
g57
(g78
g59
NtRp2070
(dp2071
g62
(dp2072
g82
g83
ssg71
g2066
sg64
(lp2073
S'server_name'
p2074
asbag57
(g78
g59
NtRp2075
(dp2076
g62
(dp2077
g89
g90
ssg71
g2066
sg64
(lp2078
S':'
asbag57
(g78
g59
NtRp2079
(dp2080
g62
(dp2081
sg71
g2066
sg64
(lp2082
g57
(g58
g59
NtRp2083
(dp2084
g62
(dp2085
g70
I4
ssg71
g2079
sg64
(lp2086
S'darshan-Inspiron-5520'
p2087
asbasbasbag57
(g73
g59
NtRp2088
(dp2089
g62
(dp2090
sg71
g1405
sg64
(lp2091
g57
(g78
g59
NtRp2092
(dp2093
g62
(dp2094
g82
g83
ssg71
g2088
sg64
(lp2095
S'server_port'
p2096
asbag57
(g78
g59
NtRp2097
(dp2098
g62
(dp2099
g89
g90
ssg71
g2088
sg64
(lp2100
S':'
asbag57
(g78
g59
NtRp2101
(dp2102
g62
(dp2103
sg71
g2088
sg64
(lp2104
g57
(g58
g59
NtRp2105
(dp2106
g62
(dp2107
g70
I4
ssg71
g2101
sg64
(lp2108
S'8000'
p2109
asbasbasbag57
(g73
g59
NtRp2110
(dp2111
g62
(dp2112
sg71
g1405
sg64
(lp2113
g57
(g78
g59
NtRp2114
(dp2115
g62
(dp2116
g82
g83
ssg71
g2110
sg64
(lp2117
S'server_protocol'
p2118
asbag57
(g78
g59
NtRp2119
(dp2120
g62
(dp2121
g89
g90
ssg71
g2110
sg64
(lp2122
S':'
asbag57
(g78
g59
NtRp2123
(dp2124
g62
(dp2125
sg71
g2110
sg64
(lp2126
g57
(g58
g59
NtRp2127
(dp2128
g62
(dp2129
g70
I4
ssg71
g2123
sg64
(lp2130
S'HTTP/1.1'
p2131
asbasbasbag57
(g73
g59
NtRp2132
(dp2133
g62
(dp2134
sg71
g1405
sg64
(lp2135
g57
(g78
g59
NtRp2136
(dp2137
g62
(dp2138
g82
g83
ssg71
g2132
sg64
(lp2139
S'server_software'
p2140
asbag57
(g78
g59
NtRp2141
(dp2142
g62
(dp2143
g89
g90
ssg71
g2132
sg64
(lp2144
S':'
asbag57
(g78
g59
NtRp2145
(dp2146
g62
(dp2147
sg71
g2132
sg64
(lp2148
g57
(g58
g59
NtRp2149
(dp2150
g62
(dp2151
g70
I4
ssg71
g2145
sg64
(lp2152
S'Rocket 1.2.6'
p2153
asbasbasbag57
(g73
g59
NtRp2154
(dp2155
g62
(dp2156
sg71
g1405
sg64
(lp2157
g57
(g78
g59
NtRp2158
(dp2159
g62
(dp2160
g82
g83
ssg71
g2154
sg64
(lp2161
S'web2py_path'
p2162
asbag57
(g78
g59
NtRp2163
(dp2164
g62
(dp2165
g89
g90
ssg71
g2154
sg64
(lp2166
S':'
asbag57
(g78
g59
NtRp2167
(dp2168
g62
(dp2169
sg71
g2154
sg64
(lp2170
g57
(g58
g59
NtRp2171
(dp2172
g62
(dp2173
g70
I4
ssg71
g2167
sg64
(lp2174
g1452
asbasbasbag57
(g73
g59
NtRp2175
(dp2176
g62
(dp2177
sg71
g1405
sg64
(lp2178
g57
(g78
g59
NtRp2179
(dp2180
g62
(dp2181
g82
g83
ssg71
g2175
sg64
(lp2182
S'web2py_version'
p2183
asbag57
(g78
g59
NtRp2184
(dp2185
g62
(dp2186
g89
g90
ssg71
g2175
sg64
(lp2187
S':'
asbag57
(g78
g59
NtRp2188
(dp2189
g62
(dp2190
sg71
g2175
sg64
(lp2191
g57
(g58
g59
NtRp2192
(dp2193
g62
(dp2194
g70
I4
ssg71
g2188
sg64
(lp2195
g57
(g66
g59
NtRp2196
(dp2197
g62
(dp2198
g70
I3
ssg71
Nsg64
(lp2199
g57
(g73
g59
NtRp2200
(dp2201
g62
(dp2202
sg71
g2196
sg64
(lp2203
g57
(g78
g59
NtRp2204
(dp2205
g62
(dp2206
sg71
g2200
sg64
(lp2207
g57
(g58
g59
NtRp2208
(dp2209
g62
(dp2210
g70
I3
ssg71
g2204
sg64
(lp2211
S'2'
asbasbasbag57
(g73
g59
NtRp2212
(dp2213
g62
(dp2214
sg71
g2196
sg64
(lp2215
g57
(g78
g59
NtRp2216
(dp2217
g62
(dp2218
sg71
g2212
sg64
(lp2219
g57
(g58
g59
NtRp2220
(dp2221
g62
(dp2222
g70
I3
ssg71
g2216
sg64
(lp2223
S'3'
asbasbasbag57
(g73
g59
NtRp2224
(dp2225
g62
(dp2226
sg71
g2196
sg64
(lp2227
g57
(g78
g59
NtRp2228
(dp2229
g62
(dp2230
sg71
g2224
sg64
(lp2231
g57
(g58
g59
NtRp2232
(dp2233
g62
(dp2234
g70
I3
ssg71
g2228
sg64
(lp2235
S'2'
asbasbasbag57
(g73
g59
NtRp2236
(dp2237
g62
(dp2238
sg71
g2196
sg64
(lp2239
g57
(g78
g59
NtRp2240
(dp2241
g62
(dp2242
sg71
g2236
sg64
(lp2243
g57
(g58
g59
NtRp2244
(dp2245
g62
(dp2246
g70
I3
ssg71
g2240
sg64
(lp2247
S'datetime.datetime(2012, 12, 17, 15, 3, 30)'
p2248
asbasbasbag57
(g73
g59
NtRp2249
(dp2250
g62
(dp2251
sg71
g2196
sg64
(lp2252
g57
(g78
g59
NtRp2253
(dp2254
g62
(dp2255
sg71
g2249
sg64
(lp2256
g57
(g58
g59
NtRp2257
(dp2258
g62
(dp2259
g70
I3
ssg71
g2253
sg64
(lp2260
S'stable'
p2261
asbasbasbasbasbasbasbag57
(g73
g59
NtRp2262
(dp2263
g62
(dp2264
sg71
g1405
sg64
(lp2265
g57
(g78
g59
NtRp2266
(dp2267
g62
(dp2268
g82
g83
ssg71
g2262
sg64
(lp2269
S'wsgi_errors'
p2270
asbag57
(g78
g59
NtRp2271
(dp2272
g62
(dp2273
g89
g90
ssg71
g2262
sg64
(lp2274
S':'
asbag57
(g78
g59
NtRp2275
(dp2276
g62
(dp2277
sg71
g2262
sg64
(lp2278
g57
(g58
g59
NtRp2279
(dp2280
g62
(dp2281
g70
I4
ssg71
g2275
sg64
(lp2282
S"<open file '<stderr>', mode 'w' at 0x7f92c1bb41e0>"
p2283
asbasbasbag57
(g73
g59
NtRp2284
(dp2285
g62
(dp2286
sg71
g1405
sg64
(lp2287
g57
(g78
g59
NtRp2288
(dp2289
g62
(dp2290
g82
g83
ssg71
g2284
sg64
(lp2291
S'wsgi_file_wrapper'
p2292
asbag57
(g78
g59
NtRp2293
(dp2294
g62
(dp2295
g89
g90
ssg71
g2284
sg64
(lp2296
S':'
asbag57
(g78
g59
NtRp2297
(dp2298
g62
(dp2299
sg71
g2284
sg64
(lp2300
g57
(g58
g59
NtRp2301
(dp2302
g62
(dp2303
g70
I4
ssg71
g2297
sg64
(lp2304
S'<class wsgiref.util.FileWrapper at 0x7f92bab98808>'
p2305
asbasbasbag57
(g73
g59
NtRp2306
(dp2307
g62
(dp2308
sg71
g1405
sg64
(lp2309
g57
(g78
g59
NtRp2310
(dp2311
g62
(dp2312
g82
g83
ssg71
g2306
sg64
(lp2313
S'wsgi_input'
p2314
asbag57
(g78
g59
NtRp2315
(dp2316
g62
(dp2317
g89
g90
ssg71
g2306
sg64
(lp2318
S':'
asbag57
(g78
g59
NtRp2319
(dp2320
g62
(dp2321
sg71
g2306
sg64
(lp2322
g57
(g58
g59
NtRp2323
(dp2324
g62
(dp2325
g70
I4
ssg71
g2319
sg64
(lp2326
S'<socket._fileobject object at 0x7f92a8141750>'
p2327
asbasbasbag57
(g73
g59
NtRp2328
(dp2329
g62
(dp2330
sg71
g1405
sg64
(lp2331
g57
(g78
g59
NtRp2332
(dp2333
g62
(dp2334
g82
g83
ssg71
g2328
sg64
(lp2335
S'wsgi_multiprocess'
p2336
asbag57
(g78
g59
NtRp2337
(dp2338
g62
(dp2339
g89
g90
ssg71
g2328
sg64
(lp2340
S':'
asbag57
(g78
g59
NtRp2341
(dp2342
g62
(dp2343
sg71
g2328
sg64
(lp2344
g57
(g58
g59
NtRp2345
(dp2346
g62
(dp2347
g70
I4
ssg71
g2341
sg64
(lp2348
g100
asbasbasbag57
(g73
g59
NtRp2349
(dp2350
g62
(dp2351
sg71
g1405
sg64
(lp2352
g57
(g78
g59
NtRp2353
(dp2354
g62
(dp2355
g82
g83
ssg71
g2349
sg64
(lp2356
S'wsgi_multithread'
p2357
asbag57
(g78
g59
NtRp2358
(dp2359
g62
(dp2360
g89
g90
ssg71
g2349
sg64
(lp2361
S':'
asbag57
(g78
g59
NtRp2362
(dp2363
g62
(dp2364
sg71
g2349
sg64
(lp2365
g57
(g58
g59
NtRp2366
(dp2367
g62
(dp2368
g70
I4
ssg71
g2362
sg64
(lp2369
S'True'
p2370
asbasbasbag57
(g73
g59
NtRp2371
(dp2372
g62
(dp2373
sg71
g1405
sg64
(lp2374
g57
(g78
g59
NtRp2375
(dp2376
g62
(dp2377
g82
g83
ssg71
g2371
sg64
(lp2378
S'wsgi_run_once'
p2379
asbag57
(g78
g59
NtRp2380
(dp2381
g62
(dp2382
g89
g90
ssg71
g2371
sg64
(lp2383
S':'
asbag57
(g78
g59
NtRp2384
(dp2385
g62
(dp2386
sg71
g2371
sg64
(lp2387
g57
(g58
g59
NtRp2388
(dp2389
g62
(dp2390
g70
I4
ssg71
g2384
sg64
(lp2391
g100
asbasbasbag57
(g73
g59
NtRp2392
(dp2393
g62
(dp2394
sg71
g1405
sg64
(lp2395
g57
(g78
g59
NtRp2396
(dp2397
g62
(dp2398
g82
g83
ssg71
g2392
sg64
(lp2399
S'wsgi_url_scheme'
p2400
asbag57
(g78
g59
NtRp2401
(dp2402
g62
(dp2403
g89
g90
ssg71
g2392
sg64
(lp2404
S':'
asbag57
(g78
g59
NtRp2405
(dp2406
g62
(dp2407
sg71
g2392
sg64
(lp2408
g57
(g58
g59
NtRp2409
(dp2410
g62
(dp2411
g70
I4
ssg71
g2405
sg64
(lp2412
S'http'
p2413
asbasbasbag57
(g73
g59
NtRp2414
(dp2415
g62
(dp2416
sg71
g1405
sg64
(lp2417
g57
(g78
g59
NtRp2418
(dp2419
g62
(dp2420
g82
g83
ssg71
g2414
sg64
(lp2421
S'wsgi_version'
p2422
asbag57
(g78
g59
NtRp2423
(dp2424
g62
(dp2425
g89
g90
ssg71
g2414
sg64
(lp2426
S':'
asbag57
(g78
g59
NtRp2427
(dp2428
g62
(dp2429
sg71
g2414
sg64
(lp2430
g57
(g58
g59
NtRp2431
(dp2432
g62
(dp2433
g70
I4
ssg71
g2427
sg64
(lp2434
g57
(g66
g59
NtRp2435
(dp2436
g62
(dp2437
g70
I3
ssg71
Nsg64
(lp2438
g57
(g73
g59
NtRp2439
(dp2440
g62
(dp2441
sg71
g2435
sg64
(lp2442
g57
(g78
g59
NtRp2443
(dp2444
g62
(dp2445
sg71
g2439
sg64
(lp2446
g57
(g58
g59
NtRp2447
(dp2448
g62
(dp2449
g70
I3
ssg71
g2443
sg64
(lp2450
S'1'
asbasbasbag57
(g73
g59
NtRp2451
(dp2452
g62
(dp2453
sg71
g2435
sg64
(lp2454
g57
(g78
g59
NtRp2455
(dp2456
g62
(dp2457
sg71
g2451
sg64
(lp2458
g57
(g58
g59
NtRp2459
(dp2460
g62
(dp2461
g70
I3
ssg71
g2455
sg64
(lp2462
S'0'
asbasbasbasbasbasbasbasbasbasbasbag57
(g73
g59
NtRp2463
(dp2464
g62
(dp2465
sg71
g67
sg64
(lp2466
g57
(g78
g59
NtRp2467
(dp2468
g62
(dp2469
g82
g83
ssg71
g2463
sg64
(lp2470
S'extension'
p2471
asbag57
(g78
g59
NtRp2472
(dp2473
g62
(dp2474
g89
g90
ssg71
g2463
sg64
(lp2475
S':'
asbag57
(g78
g59
NtRp2476
(dp2477
g62
(dp2478
sg71
g2463
sg64
(lp2479
g57
(g58
g59
NtRp2480
(dp2481
g62
(dp2482
g70
I5
ssg71
g2476
sg64
(lp2483
S'html'
p2484
asbasbasbag57
(g73
g59
NtRp2485
(dp2486
g62
(dp2487
sg71
g67
sg64
(lp2488
g57
(g78
g59
NtRp2489
(dp2490
g62
(dp2491
g82
g83
ssg71
g2485
sg64
(lp2492
S'folder'
p2493
asbag57
(g78
g59
NtRp2494
(dp2495
g62
(dp2496
g89
g90
ssg71
g2485
sg64
(lp2497
S':'
asbag57
(g78
g59
NtRp2498
(dp2499
g62
(dp2500
sg71
g2485
sg64
(lp2501
g57
(g58
g59
NtRp2502
(dp2503
g62
(dp2504
g70
I5
ssg71
g2498
sg64
(lp2505
S'/home/darshan/web2py/applications/Garbage_Truck/'
p2506
asbasbasbag57
(g73
g59
NtRp2507
(dp2508
g62
(dp2509
sg71
g67
sg64
(lp2510
g57
(g78
g59
NtRp2511
(dp2512
g62
(dp2513
g82
g83
ssg71
g2507
sg64
(lp2514
S'function'
p2515
asbag57
(g78
g59
NtRp2516
(dp2517
g62
(dp2518
g89
g90
ssg71
g2507
sg64
(lp2519
S':'
asbag57
(g78
g59
NtRp2520
(dp2521
g62
(dp2522
sg71
g2507
sg64
(lp2523
g57
(g58
g59
NtRp2524
(dp2525
g62
(dp2526
g70
I5
ssg71
g2520
sg64
(lp2527
S'request_urgent_view'
p2528
asbasbasbag57
(g73
g59
NtRp2529
(dp2530
g62
(dp2531
sg71
g67
sg64
(lp2532
g57
(g78
g59
NtRp2533
(dp2534
g62
(dp2535
g82
g83
ssg71
g2529
sg64
(lp2536
S'get_vars'
p2537
asbag57
(g78
g59
NtRp2538
(dp2539
g62
(dp2540
g89
g90
ssg71
g2529
sg64
(lp2541
S':'
asbag57
(g78
g59
NtRp2542
(dp2543
g62
(dp2544
sg71
g2529
sg64
(lp2545
g57
(g58
g59
NtRp2546
(dp2547
g62
(dp2548
g70
I5
ssg71
g2542
sg64
(lp2549
g57
(g66
g59
NtRp2550
(dp2551
g62
(dp2552
g70
I4
ssg71
Nsg64
(lp2553
sbasbasbasbag57
(g73
g59
NtRp2554
(dp2555
g62
(dp2556
sg71
g67
sg64
(lp2557
g57
(g78
g59
NtRp2558
(dp2559
g62
(dp2560
g82
g83
ssg71
g2554
sg64
(lp2561
S'global_settings'
p2562
asbag57
(g78
g59
NtRp2563
(dp2564
g62
(dp2565
g89
g90
ssg71
g2554
sg64
(lp2566
S':'
asbag57
(g78
g59
NtRp2567
(dp2568
g62
(dp2569
sg71
g2554
sg64
(lp2570
g57
(g58
g59
NtRp2571
(dp2572
g62
(dp2573
g70
I5
ssg71
g2567
sg64
(lp2574
g57
(g66
g59
NtRp2575
(dp2576
g62
(dp2577
g70
I4
ssg71
Nsg64
(lp2578
g57
(g73
g59
NtRp2579
(dp2580
g62
(dp2581
sg71
g2575
sg64
(lp2582
g57
(g78
g59
NtRp2583
(dp2584
g62
(dp2585
g82
g83
ssg71
g2579
sg64
(lp2586
g1417
asbag57
(g78
g59
NtRp2587
(dp2588
g62
(dp2589
g89
g90
ssg71
g2579
sg64
(lp2590
S':'
asbag57
(g78
g59
NtRp2591
(dp2592
g62
(dp2593
sg71
g2579
sg64
(lp2594
g57
(g58
g59
NtRp2595
(dp2596
g62
(dp2597
g70
I4
ssg71
g2591
sg64
(lp2598
S"set(['/home/darshan/web2py/applications/Isas/', '/home/darshan/web2py/applications/examples/', '/home/darshan/web2py/applications/readit/', '/home/darshan/web2py/applications/admin/', '/home/darshan/web2py/applications/Garbage_Truck/', '/home/darshan/web2py/applications/welcome/', '/home/darshan/web2py/applications/isas/'])"
p2599
asbasbasbag57
(g73
g59
NtRp2600
(dp2601
g62
(dp2602
sg71
g2575
sg64
(lp2603
g57
(g78
g59
NtRp2604
(dp2605
g62
(dp2606
g82
g83
ssg71
g2600
sg64
(lp2607
g1439
asbag57
(g78
g59
NtRp2608
(dp2609
g62
(dp2610
g89
g90
ssg71
g2600
sg64
(lp2611
S':'
asbag57
(g78
g59
NtRp2612
(dp2613
g62
(dp2614
sg71
g2600
sg64
(lp2615
g57
(g58
g59
NtRp2616
(dp2617
g62
(dp2618
g70
I4
ssg71
g2612
sg64
(lp2619
g1452
asbasbasbag57
(g73
g59
NtRp2620
(dp2621
g62
(dp2622
sg71
g2575
sg64
(lp2623
g57
(g78
g59
NtRp2624
(dp2625
g62
(dp2626
g82
g83
ssg71
g2620
sg64
(lp2627
g1461
asbag57
(g78
g59
NtRp2628
(dp2629
g62
(dp2630
g89
g90
ssg71
g2620
sg64
(lp2631
S':'
asbag57
(g78
g59
NtRp2632
(dp2633
g62
(dp2634
sg71
g2620
sg64
(lp2635
g57
(g58
g59
NtRp2636
(dp2637
g62
(dp2638
g70
I4
ssg71
g2632
sg64
(lp2639
g57
(g66
g59
NtRp2640
(dp2641
g62
(dp2642
g70
I3
ssg71
Nsg64
(lp2643
sbasbasbasbag57
(g73
g59
NtRp2644
(dp2645
g62
(dp2646
sg71
g2575
sg64
(lp2647
g57
(g78
g59
NtRp2648
(dp2649
g62
(dp2650
g82
g83
ssg71
g2644
sg64
(lp2651
g1486
asbag57
(g78
g59
NtRp2652
(dp2653
g62
(dp2654
g89
g90
ssg71
g2644
sg64
(lp2655
S':'
asbag57
(g78
g59
NtRp2656
(dp2657
g62
(dp2658
sg71
g2644
sg64
(lp2659
g57
(g58
g59
NtRp2660
(dp2661
g62
(dp2662
g70
I4
ssg71
g2656
sg64
(lp2663
S"<Values at 0x7f92baaf7f80: {'verbose': False, 'ip': '127.0.0.1', 'with_scheduler': False, 'ips': [], 'shutdown_timeout': 5, 'taskbar': False, 'port': 8000, 'maxthreads': None, 'softcron': False, 'server_name': 'darshan-Inspiron-5520', 'bpython': False, 'nogui': False, 'pid_filename': 'httpserver.pid', 'extcron': False, 'runcron': False, 'run_system_tests': False, 'test': None, 'folder': '/home/darshan/web2py', 'config': '', 'minthreads': None, 'winservice': '', 'shell': None, 'run': '', 'log_filename': 'httpserver.log', 'debuglevel': 30, 'args': [''], 'socket_timeout': 5, 'ssl_ca_certificate': None, 'scheduler': None, 'profiler_filename': None, 'ssl_private_key': '', 'scheduler_groups': None, 'password': '<ask>', 'request_queue_size': 5, 'ssl_certificate': '', 'cronjob': False, 'numthreads': None, 'quiet': False, 'interfaces': None, 'import_models': False, 'timeout': 10, 'plain': False, 'nobanner': False}>"
p2664
asbasbasbag57
(g73
g59
NtRp2665
(dp2666
g62
(dp2667
sg71
g2575
sg64
(lp2668
g57
(g78
g59
NtRp2669
(dp2670
g62
(dp2671
g82
g83
ssg71
g2665
sg64
(lp2672
g1508
asbag57
(g78
g59
NtRp2673
(dp2674
g62
(dp2675
g89
g90
ssg71
g2665
sg64
(lp2676
S':'
asbag57
(g78
g59
NtRp2677
(dp2678
g62
(dp2679
sg71
g2665
sg64
(lp2680
g57
(g58
g59
NtRp2681
(dp2682
g62
(dp2683
g70
I4
ssg71
g2677
sg64
(lp2684
S'set([])'
p2685
asbasbasbag57
(g73
g59
NtRp2686
(dp2687
g62
(dp2688
sg71
g2575
sg64
(lp2689
g57
(g78
g59
NtRp2690
(dp2691
g62
(dp2692
g82
g83
ssg71
g2686
sg64
(lp2693
g1530
asbag57
(g78
g59
NtRp2694
(dp2695
g62
(dp2696
g89
g90
ssg71
g2686
sg64
(lp2697
S':'
asbag57
(g78
g59
NtRp2698
(dp2699
g62
(dp2700
sg71
g2686
sg64
(lp2701
g57
(g58
g59
NtRp2702
(dp2703
g62
(dp2704
g70
I4
ssg71
g2698
sg64
(lp2705
g100
asbasbasbag57
(g73
g59
NtRp2706
(dp2707
g62
(dp2708
sg71
g2575
sg64
(lp2709
g57
(g78
g59
NtRp2710
(dp2711
g62
(dp2712
g82
g83
ssg71
g2706
sg64
(lp2713
g1551
asbag57
(g78
g59
NtRp2714
(dp2715
g62
(dp2716
g89
g90
ssg71
g2706
sg64
(lp2717
S':'
asbag57
(g78
g59
NtRp2718
(dp2719
g62
(dp2720
sg71
g2706
sg64
(lp2721
g57
(g58
g59
NtRp2722
(dp2723
g62
(dp2724
g70
I4
ssg71
g2718
sg64
(lp2725
g1564
asbasbasbag57
(g73
g59
NtRp2726
(dp2727
g62
(dp2728
sg71
g2575
sg64
(lp2729
g57
(g78
g59
NtRp2730
(dp2731
g62
(dp2732
g82
g83
ssg71
g2726
sg64
(lp2733
g1792
asbag57
(g78
g59
NtRp2734
(dp2735
g62
(dp2736
g89
g90
ssg71
g2726
sg64
(lp2737
S':'
asbag57
(g78
g59
NtRp2738
(dp2739
g62
(dp2740
sg71
g2726
sg64
(lp2741
g57
(g58
g59
NtRp2742
(dp2743
g62
(dp2744
g70
I4
ssg71
g2738
sg64
(lp2745
g100
asbasbasbag57
(g73
g59
NtRp2746
(dp2747
g62
(dp2748
sg71
g2575
sg64
(lp2749
g57
(g78
g59
NtRp2750
(dp2751
g62
(dp2752
g82
g83
ssg71
g2746
sg64
(lp2753
g1813
asbag57
(g78
g59
NtRp2754
(dp2755
g62
(dp2756
g89
g90
ssg71
g2746
sg64
(lp2757
S':'
asbag57
(g78
g59
NtRp2758
(dp2759
g62
(dp2760
sg71
g2746
sg64
(lp2761
g57
(g58
g59
NtRp2762
(dp2763
g62
(dp2764
g70
I4
ssg71
g2758
sg64
(lp2765
g100
asbasbasbag57
(g73
g59
NtRp2766
(dp2767
g62
(dp2768
sg71
g2575
sg64
(lp2769
g57
(g78
g59
NtRp2770
(dp2771
g62
(dp2772
g82
g83
ssg71
g2766
sg64
(lp2773
g1834
asbag57
(g78
g59
NtRp2774
(dp2775
g62
(dp2776
g89
g90
ssg71
g2766
sg64
(lp2777
S':'
asbag57
(g78
g59
NtRp2778
(dp2779
g62
(dp2780
sg71
g2766
sg64
(lp2781
g57
(g58
g59
NtRp2782
(dp2783
g62
(dp2784
g70
I4
ssg71
g2778
sg64
(lp2785
g57
(g66
g59
NtRp2786
(dp2787
g62
(dp2788
g70
I3
ssg71
Nsg64
(lp2789
g57
(g73
g59
NtRp2790
(dp2791
g62
(dp2792
sg71
g2786
sg64
(lp2793
g57
(g78
g59
NtRp2794
(dp2795
g62
(dp2796
sg71
g2790
sg64
(lp2797
g57
(g58
g59
NtRp2798
(dp2799
g62
(dp2800
g70
I3
ssg71
g2794
sg64
(lp2801
g1863
asbasbasbag57
(g73
g59
NtRp2802
(dp2803
g62
(dp2804
sg71
g2786
sg64
(lp2805
g57
(g78
g59
NtRp2806
(dp2807
g62
(dp2808
sg71
g2802
sg64
(lp2809
g57
(g58
g59
NtRp2810
(dp2811
g62
(dp2812
g70
I3
ssg71
g2806
sg64
(lp2813
g1876
asbasbasbag57
(g73
g59
NtRp2814
(dp2815
g62
(dp2816
sg71
g2786
sg64
(lp2817
g57
(g78
g59
NtRp2818
(dp2819
g62
(dp2820
sg71
g2814
sg64
(lp2821
g57
(g58
g59
NtRp2822
(dp2823
g62
(dp2824
g70
I3
ssg71
g2818
sg64
(lp2825
g1889
asbasbasbag57
(g73
g59
NtRp2826
(dp2827
g62
(dp2828
sg71
g2786
sg64
(lp2829
g57
(g78
g59
NtRp2830
(dp2831
g62
(dp2832
sg71
g2826
sg64
(lp2833
g57
(g58
g59
NtRp2834
(dp2835
g62
(dp2836
g70
I3
ssg71
g2830
sg64
(lp2837
g1902
asbasbasbag57
(g73
g59
NtRp2838
(dp2839
g62
(dp2840
sg71
g2786
sg64
(lp2841
g57
(g78
g59
NtRp2842
(dp2843
g62
(dp2844
sg71
g2838
sg64
(lp2845
g57
(g58
g59
NtRp2846
(dp2847
g62
(dp2848
g70
I3
ssg71
g2842
sg64
(lp2849
g1915
asbasbasbasbasbasbasbag57
(g73
g59
NtRp2850
(dp2851
g62
(dp2852
sg71
g2575
sg64
(lp2853
g57
(g78
g59
NtRp2854
(dp2855
g62
(dp2856
g82
g83
ssg71
g2850
sg64
(lp2857
g2183
asbag57
(g78
g59
NtRp2858
(dp2859
g62
(dp2860
g89
g90
ssg71
g2850
sg64
(lp2861
S':'
asbag57
(g78
g59
NtRp2862
(dp2863
g62
(dp2864
sg71
g2850
sg64
(lp2865
g57
(g58
g59
NtRp2866
(dp2867
g62
(dp2868
g70
I4
ssg71
g2862
sg64
(lp2869
g57
(g66
g59
NtRp2870
(dp2871
g62
(dp2872
g70
I3
ssg71
Nsg64
(lp2873
g57
(g73
g59
NtRp2874
(dp2875
g62
(dp2876
sg71
g2870
sg64
(lp2877
g57
(g78
g59
NtRp2878
(dp2879
g62
(dp2880
sg71
g2874
sg64
(lp2881
g57
(g58
g59
NtRp2882
(dp2883
g62
(dp2884
g70
I3
ssg71
g2878
sg64
(lp2885
S'2'
asbasbasbag57
(g73
g59
NtRp2886
(dp2887
g62
(dp2888
sg71
g2870
sg64
(lp2889
g57
(g78
g59
NtRp2890
(dp2891
g62
(dp2892
sg71
g2886
sg64
(lp2893
g57
(g58
g59
NtRp2894
(dp2895
g62
(dp2896
g70
I3
ssg71
g2890
sg64
(lp2897
S'3'
asbasbasbag57
(g73
g59
NtRp2898
(dp2899
g62
(dp2900
sg71
g2870
sg64
(lp2901
g57
(g78
g59
NtRp2902
(dp2903
g62
(dp2904
sg71
g2898
sg64
(lp2905
g57
(g58
g59
NtRp2906
(dp2907
g62
(dp2908
g70
I3
ssg71
g2902
sg64
(lp2909
S'2'
asbasbasbag57
(g73
g59
NtRp2910
(dp2911
g62
(dp2912
sg71
g2870
sg64
(lp2913
g57
(g78
g59
NtRp2914
(dp2915
g62
(dp2916
sg71
g2910
sg64
(lp2917
g57
(g58
g59
NtRp2918
(dp2919
g62
(dp2920
g70
I3
ssg71
g2914
sg64
(lp2921
S'datetime.datetime(2012, 12, 17, 15, 3, 30)'
p2922
asbasbasbag57
(g73
g59
NtRp2923
(dp2924
g62
(dp2925
sg71
g2870
sg64
(lp2926
g57
(g78
g59
NtRp2927
(dp2928
g62
(dp2929
sg71
g2923
sg64
(lp2930
g57
(g58
g59
NtRp2931
(dp2932
g62
(dp2933
g70
I3
ssg71
g2927
sg64
(lp2934
g2261
asbasbasbasbasbasbasbasbasbasbasbag57
(g73
g59
NtRp2935
(dp2936
g62
(dp2937
sg71
g67
sg64
(lp2938
g57
(g78
g59
NtRp2939
(dp2940
g62
(dp2941
g82
g83
ssg71
g2935
sg64
(lp2942
S'is_https'
p2943
asbag57
(g78
g59
NtRp2944
(dp2945
g62
(dp2946
g89
g90
ssg71
g2935
sg64
(lp2947
S':'
asbag57
(g78
g59
NtRp2948
(dp2949
g62
(dp2950
sg71
g2935
sg64
(lp2951
g57
(g58
g59
NtRp2952
(dp2953
g62
(dp2954
g70
I5
ssg71
g2948
sg64
(lp2955
g100
asbasbasbag57
(g73
g59
NtRp2956
(dp2957
g62
(dp2958
sg71
g67
sg64
(lp2959
g57
(g78
g59
NtRp2960
(dp2961
g62
(dp2962
g82
g83
ssg71
g2956
sg64
(lp2963
S'is_local'
p2964
asbag57
(g78
g59
NtRp2965
(dp2966
g62
(dp2967
g89
g90
ssg71
g2956
sg64
(lp2968
S':'
asbag57
(g78
g59
NtRp2969
(dp2970
g62
(dp2971
sg71
g2956
sg64
(lp2972
g57
(g58
g59
NtRp2973
(dp2974
g62
(dp2975
g70
I5
ssg71
g2969
sg64
(lp2976
g2370
asbasbasbag57
(g73
g59
NtRp2977
(dp2978
g62
(dp2979
sg71
g67
sg64
(lp2980
g57
(g78
g59
NtRp2981
(dp2982
g62
(dp2983
g82
g83
ssg71
g2977
sg64
(lp2984
S'is_restful'
p2985
asbag57
(g78
g59
NtRp2986
(dp2987
g62
(dp2988
g89
g90
ssg71
g2977
sg64
(lp2989
S':'
asbag57
(g78
g59
NtRp2990
(dp2991
g62
(dp2992
sg71
g2977
sg64
(lp2993
g57
(g58
g59
NtRp2994
(dp2995
g62
(dp2996
g70
I5
ssg71
g2990
sg64
(lp2997
g100
asbasbasbag57
(g73
g59
NtRp2998
(dp2999
g62
(dp3000
sg71
g67
sg64
(lp3001
g57
(g78
g59
NtRp3002
(dp3003
g62
(dp3004
g82
g83
ssg71
g2998
sg64
(lp3005
S'now'
p3006
asbag57
(g78
g59
NtRp3007
(dp3008
g62
(dp3009
g89
g90
ssg71
g2998
sg64
(lp3010
S':'
asbag57
(g78
g59
NtRp3011
(dp3012
g62
(dp3013
sg71
g2998
sg64
(lp3014
g57
(g58
g59
NtRp3015
(dp3016
g62
(dp3017
g70
I5
ssg71
g3011
sg64
(lp3018
S'datetime.datetime(2014, 9, 28, 11, 31, 27, 776068)'
p3019
asbasbasbag57
(g73
g59
NtRp3020
(dp3021
g62
(dp3022
sg71
g67
sg64
(lp3023
g57
(g78
g59
NtRp3024
(dp3025
g62
(dp3026
g82
g83
ssg71
g3020
sg64
(lp3027
S'post_vars'
p3028
asbag57
(g78
g59
NtRp3029
(dp3030
g62
(dp3031
g89
g90
ssg71
g3020
sg64
(lp3032
S':'
asbag57
(g78
g59
NtRp3033
(dp3034
g62
(dp3035
sg71
g3020
sg64
(lp3036
g57
(g58
g59
NtRp3037
(dp3038
g62
(dp3039
g70
I5
ssg71
g3033
sg64
(lp3040
g57
(g66
g59
NtRp3041
(dp3042
g62
(dp3043
g70
I4
ssg71
Nsg64
(lp3044
sbasbasbasbag57
(g73
g59
NtRp3045
(dp3046
g62
(dp3047
sg71
g67
sg64
(lp3048
g57
(g78
g59
NtRp3049
(dp3050
g62
(dp3051
g82
g83
ssg71
g3045
sg64
(lp3052
S'raw_args'
p3053
asbag57
(g78
g59
NtRp3054
(dp3055
g62
(dp3056
g89
g90
ssg71
g3045
sg64
(lp3057
S':'
asbag57
(g78
g59
NtRp3058
(dp3059
g62
(dp3060
sg71
g3045
sg64
(lp3061
g57
(g58
g59
NtRp3062
(dp3063
g62
(dp3064
g70
I5
ssg71
g3058
sg64
(lp3065
S''
asbasbasbag57
(g73
g59
NtRp3066
(dp3067
g62
(dp3068
sg71
g67
sg64
(lp3069
g57
(g78
g59
NtRp3070
(dp3071
g62
(dp3072
g82
g83
ssg71
g3066
sg64
(lp3073
S'raw_extension'
p3074
asbag57
(g78
g59
NtRp3075
(dp3076
g62
(dp3077
g89
g90
ssg71
g3066
sg64
(lp3078
S':'
asbag57
(g78
g59
NtRp3079
(dp3080
g62
(dp3081
sg71
g3066
sg64
(lp3082
g57
(g58
g59
NtRp3083
(dp3084
g62
(dp3085
g70
I5
ssg71
g3079
sg64
(lp3086
S'None'
p3087
asbasbasbag57
(g73
g59
NtRp3088
(dp3089
g62
(dp3090
sg71
g67
sg64
(lp3091
g57
(g78
g59
NtRp3092
(dp3093
g62
(dp3094
g82
g83
ssg71
g3088
sg64
(lp3095
S'url'
p3096
asbag57
(g78
g59
NtRp3097
(dp3098
g62
(dp3099
g89
g90
ssg71
g3088
sg64
(lp3100
S':'
asbag57
(g78
g59
NtRp3101
(dp3102
g62
(dp3103
sg71
g3088
sg64
(lp3104
g57
(g58
g59
NtRp3105
(dp3106
g62
(dp3107
g70
I5
ssg71
g3101
sg64
(lp3108
g1937
asbasbasbag57
(g73
g59
NtRp3109
(dp3110
g62
(dp3111
sg71
g67
sg64
(lp3112
g57
(g78
g59
NtRp3113
(dp3114
g62
(dp3115
g82
g83
ssg71
g3109
sg64
(lp3116
S'utcnow'
p3117
asbag57
(g78
g59
NtRp3118
(dp3119
g62
(dp3120
g89
g90
ssg71
g3109
sg64
(lp3121
S':'
asbag57
(g78
g59
NtRp3122
(dp3123
g62
(dp3124
sg71
g3109
sg64
(lp3125
g57
(g58
g59
NtRp3126
(dp3127
g62
(dp3128
g70
I5
ssg71
g3122
sg64
(lp3129
S'datetime.datetime(2014, 9, 28, 6, 1, 27, 776112)'
p3130
asbasbasbag57
(g73
g59
NtRp3131
(dp3132
g62
(dp3133
sg71
g67
sg64
(lp3134
g57
(g78
g59
NtRp3135
(dp3136
g62
(dp3137
g82
g83
ssg71
g3131
sg64
(lp3138
S'uuid'
p3139
asbag57
(g78
g59
NtRp3140
(dp3141
g62
(dp3142
g89
g90
ssg71
g3131
sg64
(lp3143
S':'
asbag57
(g78
g59
NtRp3144
(dp3145
g62
(dp3146
sg71
g3131
sg64
(lp3147
g57
(g58
g59
NtRp3148
(dp3149
g62
(dp3150
g70
I5
ssg71
g3144
sg64
(lp3151
S'Garbage_Truck/127.0.0.1.2014-09-28.11-31-27.33520443-ca56-4b46-a22a-d04c15cfeea6'
p3152
asbasbasbag57
(g73
g59
NtRp3153
(dp3154
g62
(dp3155
sg71
g67
sg64
(lp3156
g57
(g78
g59
NtRp3157
(dp3158
g62
(dp3159
g82
g83
ssg71
g3153
sg64
(lp3160
S'vars'
p3161
asbag57
(g78
g59
NtRp3162
(dp3163
g62
(dp3164
g89
g90
ssg71
g3153
sg64
(lp3165
S':'
asbag57
(g78
g59
NtRp3166
(dp3167
g62
(dp3168
sg71
g3153
sg64
(lp3169
g57
(g58
g59
NtRp3170
(dp3171
g62
(dp3172
g70
I5
ssg71
g3166
sg64
(lp3173
g57
(g66
g59
NtRp3174
(dp3175
g62
(dp3176
g70
I4
ssg71
Nsg64
(lp3177
sbasbasbasbag57
(g73
g59
NtRp3178
(dp3179
g62
(dp3180
sg71
g67
sg64
(lp3181
g57
(g78
g59
NtRp3182
(dp3183
g62
(dp3184
g82
g83
ssg71
g3178
sg64
(lp3185
S'wsgi'
p3186
asbag57
(g78
g59
NtRp3187
(dp3188
g62
(dp3189
g89
g90
ssg71
g3178
sg64
(lp3190
S':'
asbag57
(g78
g59
NtRp3191
(dp3192
g62
(dp3193
sg71
g3178
sg64
(lp3194
g57
(g58
g59
NtRp3195
(dp3196
g62
(dp3197
g70
I5
ssg71
g3191
sg64
(lp3198
g57
(g66
g59
NtRp3199
(dp3200
g62
(dp3201
g70
I4
ssg71
Nsg64
(lp3202
g57
(g73
g59
NtRp3203
(dp3204
g62
(dp3205
sg71
g3199
sg64
(lp3206
g57
(g78
g59
NtRp3207
(dp3208
g62
(dp3209
g82
g83
ssg71
g3203
sg64
(lp3210
S'environ'
p3211
asbag57
(g78
g59
NtRp3212
(dp3213
g62
(dp3214
g89
g90
ssg71
g3203
sg64
(lp3215
S':'
asbag57
(g78
g59
NtRp3216
(dp3217
g62
(dp3218
sg71
g3203
sg64
(lp3219
g57
(g58
g59
NtRp3220
(dp3221
g62
(dp3222
g70
I4
ssg71
g3216
sg64
(lp3223
g57
(g66
g59
NtRp3224
(dp3225
g62
(dp3226
g70
I3
ssg71
Nsg64
(lp3227
g57
(g73
g59
NtRp3228
(dp3229
g62
(dp3230
sg71
g3224
sg64
(lp3231
g57
(g78
g59
NtRp3232
(dp3233
g62
(dp3234
g82
g83
ssg71
g3228
sg64
(lp3235
S'HTTP_ACCEPT'
p3236
asbag57
(g78
g59
NtRp3237
(dp3238
g62
(dp3239
g89
g90
ssg71
g3228
sg64
(lp3240
S':'
asbag57
(g78
g59
NtRp3241
(dp3242
g62
(dp3243
sg71
g3228
sg64
(lp3244
g57
(g58
g59
NtRp3245
(dp3246
g62
(dp3247
g70
I3
ssg71
g3241
sg64
(lp3248
g1586
asbasbasbag57
(g73
g59
NtRp3249
(dp3250
g62
(dp3251
sg71
g3224
sg64
(lp3252
g57
(g78
g59
NtRp3253
(dp3254
g62
(dp3255
g82
g83
ssg71
g3249
sg64
(lp3256
S'HTTP_ACCEPT_ENCODING'
p3257
asbag57
(g78
g59
NtRp3258
(dp3259
g62
(dp3260
g89
g90
ssg71
g3249
sg64
(lp3261
S':'
asbag57
(g78
g59
NtRp3262
(dp3263
g62
(dp3264
sg71
g3249
sg64
(lp3265
g57
(g58
g59
NtRp3266
(dp3267
g62
(dp3268
g70
I3
ssg71
g3262
sg64
(lp3269
g1608
asbasbasbag57
(g73
g59
NtRp3270
(dp3271
g62
(dp3272
sg71
g3224
sg64
(lp3273
g57
(g78
g59
NtRp3274
(dp3275
g62
(dp3276
g82
g83
ssg71
g3270
sg64
(lp3277
S'HTTP_ACCEPT_LANGUAGE'
p3278
asbag57
(g78
g59
NtRp3279
(dp3280
g62
(dp3281
g89
g90
ssg71
g3270
sg64
(lp3282
S':'
asbag57
(g78
g59
NtRp3283
(dp3284
g62
(dp3285
sg71
g3270
sg64
(lp3286
g57
(g58
g59
NtRp3287
(dp3288
g62
(dp3289
g70
I3
ssg71
g3283
sg64
(lp3290
g1630
asbasbasbag57
(g73
g59
NtRp3291
(dp3292
g62
(dp3293
sg71
g3224
sg64
(lp3294
g57
(g78
g59
NtRp3295
(dp3296
g62
(dp3297
g82
g83
ssg71
g3291
sg64
(lp3298
S'HTTP_CACHE_CONTROL'
p3299
asbag57
(g78
g59
NtRp3300
(dp3301
g62
(dp3302
g89
g90
ssg71
g3291
sg64
(lp3303
S':'
asbag57
(g78
g59
NtRp3304
(dp3305
g62
(dp3306
sg71
g3291
sg64
(lp3307
g57
(g58
g59
NtRp3308
(dp3309
g62
(dp3310
g70
I3
ssg71
g3304
sg64
(lp3311
g1652
asbasbasbag57
(g73
g59
NtRp3312
(dp3313
g62
(dp3314
sg71
g3224
sg64
(lp3315
g57
(g78
g59
NtRp3316
(dp3317
g62
(dp3318
g82
g83
ssg71
g3312
sg64
(lp3319
S'HTTP_CONNECTION'
p3320
asbag57
(g78
g59
NtRp3321
(dp3322
g62
(dp3323
g89
g90
ssg71
g3312
sg64
(lp3324
S':'
asbag57
(g78
g59
NtRp3325
(dp3326
g62
(dp3327
sg71
g3312
sg64
(lp3328
g57
(g58
g59
NtRp3329
(dp3330
g62
(dp3331
g70
I3
ssg71
g3325
sg64
(lp3332
g1674
asbasbasbag57
(g73
g59
NtRp3333
(dp3334
g62
(dp3335
sg71
g3224
sg64
(lp3336
g57
(g78
g59
NtRp3337
(dp3338
g62
(dp3339
g82
g83
ssg71
g3333
sg64
(lp3340
S'HTTP_COOKIE'
p3341
asbag57
(g78
g59
NtRp3342
(dp3343
g62
(dp3344
g89
g90
ssg71
g3333
sg64
(lp3345
S':'
asbag57
(g78
g59
NtRp3346
(dp3347
g62
(dp3348
sg71
g3333
sg64
(lp3349
g57
(g58
g59
NtRp3350
(dp3351
g62
(dp3352
g70
I3
ssg71
g3346
sg64
(lp3353
g1696
asbasbasbag57
(g73
g59
NtRp3354
(dp3355
g62
(dp3356
sg71
g3224
sg64
(lp3357
g57
(g78
g59
NtRp3358
(dp3359
g62
(dp3360
g82
g83
ssg71
g3354
sg64
(lp3361
S'HTTP_DNT'
p3362
asbag57
(g78
g59
NtRp3363
(dp3364
g62
(dp3365
g89
g90
ssg71
g3354
sg64
(lp3366
S':'
asbag57
(g78
g59
NtRp3367
(dp3368
g62
(dp3369
sg71
g3354
sg64
(lp3370
g57
(g58
g59
NtRp3371
(dp3372
g62
(dp3373
g70
I3
ssg71
g3367
sg64
(lp3374
S'1'
asbasbasbag57
(g73
g59
NtRp3375
(dp3376
g62
(dp3377
sg71
g3224
sg64
(lp3378
g57
(g78
g59
NtRp3379
(dp3380
g62
(dp3381
g82
g83
ssg71
g3375
sg64
(lp3382
S'HTTP_HOST'
p3383
asbag57
(g78
g59
NtRp3384
(dp3385
g62
(dp3386
g89
g90
ssg71
g3375
sg64
(lp3387
S':'
asbag57
(g78
g59
NtRp3388
(dp3389
g62
(dp3390
sg71
g3375
sg64
(lp3391
g57
(g58
g59
NtRp3392
(dp3393
g62
(dp3394
g70
I3
ssg71
g3388
sg64
(lp3395
g1739
asbasbasbag57
(g73
g59
NtRp3396
(dp3397
g62
(dp3398
sg71
g3224
sg64
(lp3399
g57
(g78
g59
NtRp3400
(dp3401
g62
(dp3402
g82
g83
ssg71
g3396
sg64
(lp3403
S'HTTP_REFERER'
p3404
asbag57
(g78
g59
NtRp3405
(dp3406
g62
(dp3407
g89
g90
ssg71
g3396
sg64
(lp3408
S':'
asbag57
(g78
g59
NtRp3409
(dp3410
g62
(dp3411
sg71
g3396
sg64
(lp3412
g57
(g58
g59
NtRp3413
(dp3414
g62
(dp3415
g70
I3
ssg71
g3409
sg64
(lp3416
g1761
asbasbasbag57
(g73
g59
NtRp3417
(dp3418
g62
(dp3419
sg71
g3224
sg64
(lp3420
g57
(g78
g59
NtRp3421
(dp3422
g62
(dp3423
g82
g83
ssg71
g3417
sg64
(lp3424
S'HTTP_USER_AGENT'
p3425
asbag57
(g78
g59
NtRp3426
(dp3427
g62
(dp3428
g89
g90
ssg71
g3417
sg64
(lp3429
S':'
asbag57
(g78
g59
NtRp3430
(dp3431
g62
(dp3432
sg71
g3417
sg64
(lp3433
g57
(g58
g59
NtRp3434
(dp3435
g62
(dp3436
g70
I3
ssg71
g3430
sg64
(lp3437
g1783
asbasbasbag57
(g73
g59
NtRp3438
(dp3439
g62
(dp3440
sg71
g3224
sg64
(lp3441
g57
(g78
g59
NtRp3442
(dp3443
g62
(dp3444
g82
g83
ssg71
g3438
sg64
(lp3445
S'PATH_INFO'
p3446
asbag57
(g78
g59
NtRp3447
(dp3448
g62
(dp3449
g89
g90
ssg71
g3438
sg64
(lp3450
S':'
asbag57
(g78
g59
NtRp3451
(dp3452
g62
(dp3453
sg71
g3438
sg64
(lp3454
g57
(g58
g59
NtRp3455
(dp3456
g62
(dp3457
g70
I3
ssg71
g3451
sg64
(lp3458
g1937
asbasbasbag57
(g73
g59
NtRp3459
(dp3460
g62
(dp3461
sg71
g3224
sg64
(lp3462
g57
(g78
g59
NtRp3463
(dp3464
g62
(dp3465
g82
g83
ssg71
g3459
sg64
(lp3466
S'QUERY_STRING'
p3467
asbag57
(g78
g59
NtRp3468
(dp3469
g62
(dp3470
g89
g90
ssg71
g3459
sg64
(lp3471
S':'
asbag57
(g78
g59
NtRp3472
(dp3473
g62
(dp3474
sg71
g3459
sg64
(lp3475
g57
(g58
g59
NtRp3476
(dp3477
g62
(dp3478
g70
I3
ssg71
g3472
sg64
(lp3479
S''
asbasbasbag57
(g73
g59
NtRp3480
(dp3481
g62
(dp3482
sg71
g3224
sg64
(lp3483
g57
(g78
g59
NtRp3484
(dp3485
g62
(dp3486
g82
g83
ssg71
g3480
sg64
(lp3487
S'REMOTE_ADDR'
p3488
asbag57
(g78
g59
NtRp3489
(dp3490
g62
(dp3491
g89
g90
ssg71
g3480
sg64
(lp3492
S':'
asbag57
(g78
g59
NtRp3493
(dp3494
g62
(dp3495
sg71
g3480
sg64
(lp3496
g57
(g58
g59
NtRp3497
(dp3498
g62
(dp3499
g70
I3
ssg71
g3493
sg64
(lp3500
g212
asbasbasbag57
(g73
g59
NtRp3501
(dp3502
g62
(dp3503
sg71
g3224
sg64
(lp3504
g57
(g78
g59
NtRp3505
(dp3506
g62
(dp3507
g82
g83
ssg71
g3501
sg64
(lp3508
S'REMOTE_PORT'
p3509
asbag57
(g78
g59
NtRp3510
(dp3511
g62
(dp3512
g89
g90
ssg71
g3501
sg64
(lp3513
S':'
asbag57
(g78
g59
NtRp3514
(dp3515
g62
(dp3516
sg71
g3501
sg64
(lp3517
g57
(g58
g59
NtRp3518
(dp3519
g62
(dp3520
g70
I3
ssg71
g3514
sg64
(lp3521
g2001
asbasbasbag57
(g73
g59
NtRp3522
(dp3523
g62
(dp3524
sg71
g3224
sg64
(lp3525
g57
(g78
g59
NtRp3526
(dp3527
g62
(dp3528
g82
g83
ssg71
g3522
sg64
(lp3529
S'REQUEST_METHOD'
p3530
asbag57
(g78
g59
NtRp3531
(dp3532
g62
(dp3533
g89
g90
ssg71
g3522
sg64
(lp3534
S':'
asbag57
(g78
g59
NtRp3535
(dp3536
g62
(dp3537
sg71
g3522
sg64
(lp3538
g57
(g58
g59
NtRp3539
(dp3540
g62
(dp3541
g70
I3
ssg71
g3535
sg64
(lp3542
g2023
asbasbasbag57
(g73
g59
NtRp3543
(dp3544
g62
(dp3545
sg71
g3224
sg64
(lp3546
g57
(g78
g59
NtRp3547
(dp3548
g62
(dp3549
g82
g83
ssg71
g3543
sg64
(lp3550
S'REQUEST_URI'
p3551
asbag57
(g78
g59
NtRp3552
(dp3553
g62
(dp3554
g89
g90
ssg71
g3543
sg64
(lp3555
S':'
asbag57
(g78
g59
NtRp3556
(dp3557
g62
(dp3558
sg71
g3543
sg64
(lp3559
g57
(g58
g59
NtRp3560
(dp3561
g62
(dp3562
g70
I3
ssg71
g3556
sg64
(lp3563
g1937
asbasbasbag57
(g73
g59
NtRp3564
(dp3565
g62
(dp3566
sg71
g3224
sg64
(lp3567
g57
(g78
g59
NtRp3568
(dp3569
g62
(dp3570
g82
g83
ssg71
g3564
sg64
(lp3571
S'SCRIPT_NAME'
p3572
asbag57
(g78
g59
NtRp3573
(dp3574
g62
(dp3575
g89
g90
ssg71
g3564
sg64
(lp3576
S':'
asbag57
(g78
g59
NtRp3577
(dp3578
g62
(dp3579
sg71
g3564
sg64
(lp3580
g57
(g58
g59
NtRp3581
(dp3582
g62
(dp3583
g70
I3
ssg71
g3577
sg64
(lp3584
S''
asbasbasbag57
(g73
g59
NtRp3585
(dp3586
g62
(dp3587
sg71
g3224
sg64
(lp3588
g57
(g78
g59
NtRp3589
(dp3590
g62
(dp3591
g82
g83
ssg71
g3585
sg64
(lp3592
S'SERVER_NAME'
p3593
asbag57
(g78
g59
NtRp3594
(dp3595
g62
(dp3596
g89
g90
ssg71
g3585
sg64
(lp3597
S':'
asbag57
(g78
g59
NtRp3598
(dp3599
g62
(dp3600
sg71
g3585
sg64
(lp3601
g57
(g58
g59
NtRp3602
(dp3603
g62
(dp3604
g70
I3
ssg71
g3598
sg64
(lp3605
g2087
asbasbasbag57
(g73
g59
NtRp3606
(dp3607
g62
(dp3608
sg71
g3224
sg64
(lp3609
g57
(g78
g59
NtRp3610
(dp3611
g62
(dp3612
g82
g83
ssg71
g3606
sg64
(lp3613
S'SERVER_PORT'
p3614
asbag57
(g78
g59
NtRp3615
(dp3616
g62
(dp3617
g89
g90
ssg71
g3606
sg64
(lp3618
S':'
asbag57
(g78
g59
NtRp3619
(dp3620
g62
(dp3621
sg71
g3606
sg64
(lp3622
g57
(g58
g59
NtRp3623
(dp3624
g62
(dp3625
g70
I3
ssg71
g3619
sg64
(lp3626
g2109
asbasbasbag57
(g73
g59
NtRp3627
(dp3628
g62
(dp3629
sg71
g3224
sg64
(lp3630
g57
(g78
g59
NtRp3631
(dp3632
g62
(dp3633
g82
g83
ssg71
g3627
sg64
(lp3634
S'SERVER_PROTOCOL'
p3635
asbag57
(g78
g59
NtRp3636
(dp3637
g62
(dp3638
g89
g90
ssg71
g3627
sg64
(lp3639
S':'
asbag57
(g78
g59
NtRp3640
(dp3641
g62
(dp3642
sg71
g3627
sg64
(lp3643
g57
(g58
g59
NtRp3644
(dp3645
g62
(dp3646
g70
I3
ssg71
g3640
sg64
(lp3647
g2131
asbasbasbag57
(g73
g59
NtRp3648
(dp3649
g62
(dp3650
sg71
g3224
sg64
(lp3651
g57
(g78
g59
NtRp3652
(dp3653
g62
(dp3654
g82
g83
ssg71
g3648
sg64
(lp3655
S'SERVER_SOFTWARE'
p3656
asbag57
(g78
g59
NtRp3657
(dp3658
g62
(dp3659
g89
g90
ssg71
g3648
sg64
(lp3660
S':'
asbag57
(g78
g59
NtRp3661
(dp3662
g62
(dp3663
sg71
g3648
sg64
(lp3664
g57
(g58
g59
NtRp3665
(dp3666
g62
(dp3667
g70
I3
ssg71
g3661
sg64
(lp3668
g2153
asbasbasbag57
(g73
g59
NtRp3669
(dp3670
g62
(dp3671
sg71
g3224
sg64
(lp3672
g57
(g78
g59
NtRp3673
(dp3674
g62
(dp3675
g82
g83
ssg71
g3669
sg64
(lp3676
S'wsgi.errors'
p3677
asbag57
(g78
g59
NtRp3678
(dp3679
g62
(dp3680
g89
g90
ssg71
g3669
sg64
(lp3681
S':'
asbag57
(g78
g59
NtRp3682
(dp3683
g62
(dp3684
sg71
g3669
sg64
(lp3685
g57
(g58
g59
NtRp3686
(dp3687
g62
(dp3688
g70
I3
ssg71
g3682
sg64
(lp3689
S"<open file '<stderr>', mode 'w' at 0x7f92c1bb41e0>"
p3690
asbasbasbag57
(g73
g59
NtRp3691
(dp3692
g62
(dp3693
sg71
g3224
sg64
(lp3694
g57
(g78
g59
NtRp3695
(dp3696
g62
(dp3697
g82
g83
ssg71
g3691
sg64
(lp3698
S'wsgi.file_wrapper'
p3699
asbag57
(g78
g59
NtRp3700
(dp3701
g62
(dp3702
g89
g90
ssg71
g3691
sg64
(lp3703
S':'
asbag57
(g78
g59
NtRp3704
(dp3705
g62
(dp3706
sg71
g3691
sg64
(lp3707
g57
(g58
g59
NtRp3708
(dp3709
g62
(dp3710
g70
I3
ssg71
g3704
sg64
(lp3711
S'<class wsgiref.util.FileWrapper at 0x7f92bab98808>'
p3712
asbasbasbag57
(g73
g59
NtRp3713
(dp3714
g62
(dp3715
sg71
g3224
sg64
(lp3716
g57
(g78
g59
NtRp3717
(dp3718
g62
(dp3719
g82
g83
ssg71
g3713
sg64
(lp3720
S'wsgi.input'
p3721
asbag57
(g78
g59
NtRp3722
(dp3723
g62
(dp3724
g89
g90
ssg71
g3713
sg64
(lp3725
S':'
asbag57
(g78
g59
NtRp3726
(dp3727
g62
(dp3728
sg71
g3713
sg64
(lp3729
g57
(g58
g59
NtRp3730
(dp3731
g62
(dp3732
g70
I3
ssg71
g3726
sg64
(lp3733
S'<cStringIO.StringO object at 0x7f9288b2bd50>'
p3734
asbasbasbag57
(g73
g59
NtRp3735
(dp3736
g62
(dp3737
sg71
g3224
sg64
(lp3738
g57
(g78
g59
NtRp3739
(dp3740
g62
(dp3741
g82
g83
ssg71
g3735
sg64
(lp3742
S'wsgi.multiprocess'
p3743
asbag57
(g78
g59
NtRp3744
(dp3745
g62
(dp3746
g89
g90
ssg71
g3735
sg64
(lp3747
S':'
asbag57
(g78
g59
NtRp3748
(dp3749
g62
(dp3750
sg71
g3735
sg64
(lp3751
g57
(g58
g59
NtRp3752
(dp3753
g62
(dp3754
g70
I3
ssg71
g3748
sg64
(lp3755
g100
asbasbasbag57
(g73
g59
NtRp3756
(dp3757
g62
(dp3758
sg71
g3224
sg64
(lp3759
g57
(g78
g59
NtRp3760
(dp3761
g62
(dp3762
g82
g83
ssg71
g3756
sg64
(lp3763
S'wsgi.multithread'
p3764
asbag57
(g78
g59
NtRp3765
(dp3766
g62
(dp3767
g89
g90
ssg71
g3756
sg64
(lp3768
S':'
asbag57
(g78
g59
NtRp3769
(dp3770
g62
(dp3771
sg71
g3756
sg64
(lp3772
g57
(g58
g59
NtRp3773
(dp3774
g62
(dp3775
g70
I3
ssg71
g3769
sg64
(lp3776
g2370
asbasbasbag57
(g73
g59
NtRp3777
(dp3778
g62
(dp3779
sg71
g3224
sg64
(lp3780
g57
(g78
g59
NtRp3781
(dp3782
g62
(dp3783
g82
g83
ssg71
g3777
sg64
(lp3784
S'wsgi.run_once'
p3785
asbag57
(g78
g59
NtRp3786
(dp3787
g62
(dp3788
g89
g90
ssg71
g3777
sg64
(lp3789
S':'
asbag57
(g78
g59
NtRp3790
(dp3791
g62
(dp3792
sg71
g3777
sg64
(lp3793
g57
(g58
g59
NtRp3794
(dp3795
g62
(dp3796
g70
I3
ssg71
g3790
sg64
(lp3797
g100
asbasbasbag57
(g73
g59
NtRp3798
(dp3799
g62
(dp3800
sg71
g3224
sg64
(lp3801
g57
(g78
g59
NtRp3802
(dp3803
g62
(dp3804
g82
g83
ssg71
g3798
sg64
(lp3805
S'wsgi.url_scheme'
p3806
asbag57
(g78
g59
NtRp3807
(dp3808
g62
(dp3809
g89
g90
ssg71
g3798
sg64
(lp3810
S':'
asbag57
(g78
g59
NtRp3811
(dp3812
g62
(dp3813
sg71
g3798
sg64
(lp3814
g57
(g58
g59
NtRp3815
(dp3816
g62
(dp3817
g70
I3
ssg71
g3811
sg64
(lp3818
g2413
asbasbasbag57
(g73
g59
NtRp3819
(dp3820
g62
(dp3821
sg71
g3224
sg64
(lp3822
g57
(g78
g59
NtRp3823
(dp3824
g62
(dp3825
g82
g83
ssg71
g3819
sg64
(lp3826
S'wsgi.version'
p3827
asbag57
(g78
g59
NtRp3828
(dp3829
g62
(dp3830
g89
g90
ssg71
g3819
sg64
(lp3831
S':'
asbag57
(g78
g59
NtRp3832
(dp3833
g62
(dp3834
sg71
g3819
sg64
(lp3835
g57
(g58
g59
NtRp3836
(dp3837
g62
(dp3838
g70
I3
ssg71
g3832
sg64
(lp3839
S'1'
asbasbasbasbasbasbasbasbasbasbasbasbasbsS'frames'
p3840
(lp3841
(dp3842
S'file'
p3843
S'/home/darshan/web2py/gluon/restricted.py'
p3844
sS'dump'
p3845
(dp3846
S'environment'
p3847
S"{'A': <class 'gluon.html.A'>, 'Auth': <class 'gluon.tools.Auth'>, 'B': <class 'gluon.html.B'>, 'BEAUTIFY': <class 'gluon.html.BEAUTIFY'>, 'BODY': <class 'gluon.html.BODY'>, 'BR': <class 'gluon.html.BR'>, 'BUTTON': <class 'gluon.html.BUTTON'>, 'CAT': <class 'gluon.html.CAT'>, 'CENTER': <class 'gluon.html.CENTER'>, 'CLEANUP': <class 'gluon.validators.CLEANUP'>, ...}"
p3848
sS'ccode'
p3849
S'<code object <module> at 0x7f9288b405b0, file "/...s/Garbage_Truck/controllers/default.py", line 12>'
p3850
ssS'lnum'
p3851
I212
sS'lines'
p3852
(dp3853
I207
S'    try:'
p3854
sI208
S'        if isinstance(code, types.CodeType):'
p3855
sI209
S'            ccode = code'
p3856
sI210
S'        else:'
p3857
sI211
S'            ccode = compile2(code, layer)'
p3858
sI212
S'        exec ccode in environment'
p3859
sI213
S'    except HTTP:'
p3860
sI214
S'        raise'
p3861
sI215
S'    except RestrictedError:'
p3862
sI216
S'        # do not encapsulate (obfuscate) the original RestrictedError'
p3863
ssS'call'
p3864
S"(code='# -*- coding: utf-8 -*-\\n# this file is released ...onse._vars=response._caller(request_urgent_view)\\n', environment={'A': <class 'gluon.html.A'>, 'Auth': <class 'gluon.tools.Auth'>, 'B': <class 'gluon.html.B'>, 'BEAUTIFY': <class 'gluon.html.BEAUTIFY'>, 'BODY': <class 'gluon.html.BODY'>, 'BR': <class 'gluon.html.BR'>, 'BUTTON': <class 'gluon.html.BUTTON'>, 'CAT': <class 'gluon.html.CAT'>, 'CENTER': <class 'gluon.html.CENTER'>, 'CLEANUP': <class 'gluon.validators.CLEANUP'>, ...}, layer='/home/darshan/web2py/applications/Garbage_Truck/controllers/default.py')"
p3865
sS'func'
p3866
S'restricted'
p3867
sa(dp3868
g3843
S'/home/darshan/web2py/applications/Garbage_Truck/controllers/default.py'
p3869
sg3845
(dp3870
sg3851
I176
sg3852
(dp3871
I165
S'    http://..../[app]/default/data/update/[table]/[id]'
p3872
sI166
S'    http://..../[app]/default/data/delete/[table]/[id]'
p3873
sI167
S'    http://..../[app]/default/data/select/[table]'
p3874
sI168
S'    http://..../[app]/default/data/search/[table]'
p3875
sI169
S'    but URLs must be signed, i.e. linked with'
p3876
sI170
S"      A('table',_href=URL('data/tables',user_signature=True))"
p3877
sI171
S'    or with the signed load operator'
p3878
sI172
S"      LOAD('default','data.load',args='tables',ajax=True,user_signature=True)"
p3879
sI173
S'    """'
p3880
sI174
S'    return dict(form=crud())'
p3881
ssg3864
S'()'
p3882
sg3866
S'<module>'
p3883
sa(dp3884
g3843
S'/home/darshan/web2py/gluon/globals.py'
p3885
sg3845
(dp3886
S'self'
p3887
S'undefined'
p3888
sS'f'
S'<function request_urgent_view>'
p3889
ssg3851
I193
sg3852
(dp3890
I192
S'        self._vars = None'
p3891
sI193
S'        self._caller = lambda f: f()'
p3892
sI194
S'        self._view_environment = None'
p3893
sI195
S'        self._custom_commit = None'
p3894
sI196
S'        self._custom_rollback = None'
p3895
sI197
S''
sI188
S'        self.menu = []             # used by the default view layout'
p3896
sI189
S'        self.files = []            # used by web2py_ajax.html'
p3897
sI190
S'        self.generic_patterns = []  # patterns to allow generic views'
p3898
sI191
S"        self.delimiters = ('{{', '}}')"
p3899
ssg3864
S'(f=<function request_urgent_view>)'
p3900
sg3866
S'<lambda>'
p3901
sa(dp3902
g3843
S'/home/darshan/web2py/gluon/tools.py'
p3903
sg3845
(dp3904
S'action'
p3905
S'<function request_urgent_view>'
p3906
sS'a'
S'()'
p3907
sS'b'
g45
ssg3851
I2929
sg3852
(dp3908
I2924
S'                    flag = condition'
p3909
sI2925
S'                if not flag:'
p3910
sI2926
S'                    current.session.flash = self.messages.access_denied'
p3911
sI2927
S'                    return call_or_redirect('
p3912
sI2928
S'                        self.settings.on_failed_authorization)'
p3913
sI2929
S'                return action(*a, **b)'
p3914
sI2930
S'            f.__doc__ = action.__doc__'
p3915
sI2931
S'            f.__name__ = action.__name__'
p3916
sI2932
S'            f.__dict__.update(action.__dict__)'
p3917
sI2933
S'            return f'
p3918
ssg3864
S'(*a=(), **b={})'
p3919
sg3866
S'f'
sa(dp3920
g3843
S'/home/darshan/web2py/gluon/tools.py'
p3921
sg3845
(dp3922
S'action'
p3923
S'<function request_urgent_view>'
p3924
sS'a'
S'()'
p3925
sS'b'
g45
ssg3851
I2929
sg3852
(dp3926
I2924
S'                    flag = condition'
p3927
sI2925
S'                if not flag:'
p3928
sI2926
S'                    current.session.flash = self.messages.access_denied'
p3929
sI2927
S'                    return call_or_redirect('
p3930
sI2928
S'                        self.settings.on_failed_authorization)'
p3931
sI2929
S'                return action(*a, **b)'
p3932
sI2930
S'            f.__doc__ = action.__doc__'
p3933
sI2931
S'            f.__name__ = action.__name__'
p3934
sI2932
S'            f.__dict__.update(action.__dict__)'
p3935
sI2933
S'            return f'
p3936
ssg3864
S'(*a=(), **b={})'
p3937
sg3866
S'f'
sa(dp3938
g3843
S'/home/darshan/web2py/applications/Garbage_Truck/controllers/default.py'
p3939
sg3845
(dp3940
S'dat'
p3941
g3888
sS'i'
S"<Row {'request_festive': {'user_id': 1, 'comment...n_key': '', 'email': 'darshan_wal@yahoo.co.in'}}>"
p3942
sS'i.request_festive'
p3943
S"<Row {'user_id': 1, 'comment1': 'asdasd', 'reaso...etime.datetime(2014, 9, 28, 2, 14, 55), 'id': 1}>"
p3944
sS'i.request_festive.request_now'
p3945
g3888
ssg3851
I101
sg3852
(dp3946
I96
S"@auth.requires_membership('ghmc_admin')"
p3947
sI97
S'def request_urgent_view():'
p3948
sI98
S'    s=db((db.request_festive.id>0) & (db.auth_user.id==db.request_festive.user_id)).select(orderby=~db.request_festive.request_on)'
p3949
sI99
S'    d={}'
p3950
sI100
S'    for i in s:'
p3951
sI101
S'        dat = i.request_festive.request_now.date()'
p3952
sI102
S'        if dat in d:'
p3953
sI103
S'            d[dat]=d[dat]+[[i.auth_user.first_name, i.auth_user.last_name, i.request_festive.comment1,i.request_festive.reason]]'
p3954
sI104
S'        else:'
p3955
sI105
S'            d[dat]=[[i.auth_user.first_name, i.auth_user.last_name, i.request_festive.comment1, i.request_festive.reason]]'
p3956
ssg3864
S'()'
p3957
sg3866
S'request_urgent_view'
p3958
sasS'pyver'
p3959
S'Python 2.7.6: /usr/bin/python'
p3960
sS'session'
p3961
g57
(g58
g59
NtRp3962
(dp3963
g62
(dp3964
sg64
(lp3965
g57
(g66
g59
NtRp3966
(dp3967
g62
(dp3968
g70
I5
ssg71
Nsg64
(lp3969
g57
(g73
g59
NtRp3970
(dp3971
g62
(dp3972
sg71
g3966
sg64
(lp3973
g57
(g78
g59
NtRp3974
(dp3975
g62
(dp3976
g82
g83
ssg71
g3970
sg64
(lp3977
S'auth'
p3978
asbag57
(g78
g59
NtRp3979
(dp3980
g62
(dp3981
g89
g90
ssg71
g3970
sg64
(lp3982
S':'
asbag57
(g78
g59
NtRp3983
(dp3984
g62
(dp3985
sg71
g3970
sg64
(lp3986
g57
(g58
g59
NtRp3987
(dp3988
g62
(dp3989
g70
I5
ssg71
g3983
sg64
(lp3990
g57
(g66
g59
NtRp3991
(dp3992
g62
(dp3993
g70
I4
ssg71
Nsg64
(lp3994
g57
(g73
g59
NtRp3995
(dp3996
g62
(dp3997
sg71
g3991
sg64
(lp3998
g57
(g78
g59
NtRp3999
(dp4000
g62
(dp4001
g82
g83
ssg71
g3995
sg64
(lp4002
S'expiration'
p4003
asbag57
(g78
g59
NtRp4004
(dp4005
g62
(dp4006
g89
g90
ssg71
g3995
sg64
(lp4007
S':'
asbag57
(g78
g59
NtRp4008
(dp4009
g62
(dp4010
sg71
g3995
sg64
(lp4011
g57
(g58
g59
NtRp4012
(dp4013
g62
(dp4014
g70
I4
ssg71
g4008
sg64
(lp4015
S'3600'
p4016
asbasbasbag57
(g73
g59
NtRp4017
(dp4018
g62
(dp4019
sg71
g3991
sg64
(lp4020
g57
(g78
g59
NtRp4021
(dp4022
g62
(dp4023
g82
g83
ssg71
g4017
sg64
(lp4024
S'hmac_key'
p4025
asbag57
(g78
g59
NtRp4026
(dp4027
g62
(dp4028
g89
g90
ssg71
g4017
sg64
(lp4029
S':'
asbag57
(g78
g59
NtRp4030
(dp4031
g62
(dp4032
sg71
g4017
sg64
(lp4033
g57
(g58
g59
NtRp4034
(dp4035
g62
(dp4036
g70
I4
ssg71
g4030
sg64
(lp4037
S'4352a417-154a-41d0-b73b-1c27518d7c74'
p4038
asbasbasbag57
(g73
g59
NtRp4039
(dp4040
g62
(dp4041
sg71
g3991
sg64
(lp4042
g57
(g78
g59
NtRp4043
(dp4044
g62
(dp4045
g82
g83
ssg71
g4039
sg64
(lp4046
S'last_visit'
p4047
asbag57
(g78
g59
NtRp4048
(dp4049
g62
(dp4050
g89
g90
ssg71
g4039
sg64
(lp4051
S':'
asbag57
(g78
g59
NtRp4052
(dp4053
g62
(dp4054
sg71
g4039
sg64
(lp4055
g57
(g58
g59
NtRp4056
(dp4057
g62
(dp4058
g70
I4
ssg71
g4052
sg64
(lp4059
S'datetime.datetime(2014, 9, 28, 11, 31, 27, 776068)'
p4060
asbasbasbag57
(g73
g59
NtRp4061
(dp4062
g62
(dp4063
sg71
g3991
sg64
(lp4064
g57
(g78
g59
NtRp4065
(dp4066
g62
(dp4067
g82
g83
ssg71
g4061
sg64
(lp4068
S'remember'
p4069
asbag57
(g78
g59
NtRp4070
(dp4071
g62
(dp4072
g89
g90
ssg71
g4061
sg64
(lp4073
S':'
asbag57
(g78
g59
NtRp4074
(dp4075
g62
(dp4076
sg71
g4061
sg64
(lp4077
g57
(g58
g59
NtRp4078
(dp4079
g62
(dp4080
g70
I4
ssg71
g4074
sg64
(lp4081
g100
asbasbasbag57
(g73
g59
NtRp4082
(dp4083
g62
(dp4084
sg71
g3991
sg64
(lp4085
g57
(g78
g59
NtRp4086
(dp4087
g62
(dp4088
g82
g83
ssg71
g4082
sg64
(lp4089
S'user'
p4090
asbag57
(g78
g59
NtRp4091
(dp4092
g62
(dp4093
g89
g90
ssg71
g4082
sg64
(lp4094
S':'
asbag57
(g78
g59
NtRp4095
(dp4096
g62
(dp4097
sg71
g4082
sg64
(lp4098
g57
(g58
g59
NtRp4099
(dp4100
g62
(dp4101
g70
I4
ssg71
g4095
sg64
(lp4102
g57
(g66
g59
NtRp4103
(dp4104
g62
(dp4105
g70
I3
ssg71
Nsg64
(lp4106
g57
(g73
g59
NtRp4107
(dp4108
g62
(dp4109
sg71
g4103
sg64
(lp4110
g57
(g78
g59
NtRp4111
(dp4112
g62
(dp4113
g82
g83
ssg71
g4107
sg64
(lp4114
S'email'
p4115
asbag57
(g78
g59
NtRp4116
(dp4117
g62
(dp4118
g89
g90
ssg71
g4107
sg64
(lp4119
S':'
asbag57
(g78
g59
NtRp4120
(dp4121
g62
(dp4122
sg71
g4107
sg64
(lp4123
g57
(g58
g59
NtRp4124
(dp4125
g62
(dp4126
g70
I3
ssg71
g4120
sg64
(lp4127
S'darpan@gmail.com'
p4128
asbasbasbag57
(g73
g59
NtRp4129
(dp4130
g62
(dp4131
sg71
g4103
sg64
(lp4132
g57
(g78
g59
NtRp4133
(dp4134
g62
(dp4135
g82
g83
ssg71
g4129
sg64
(lp4136
S'first_name'
p4137
asbag57
(g78
g59
NtRp4138
(dp4139
g62
(dp4140
g89
g90
ssg71
g4129
sg64
(lp4141
S':'
asbag57
(g78
g59
NtRp4142
(dp4143
g62
(dp4144
sg71
g4129
sg64
(lp4145
g57
(g58
g59
NtRp4146
(dp4147
g62
(dp4148
g70
I3
ssg71
g4142
sg64
(lp4149
S'darpan'
p4150
asbasbasbag57
(g73
g59
NtRp4151
(dp4152
g62
(dp4153
sg71
g4103
sg64
(lp4154
g57
(g78
g59
NtRp4155
(dp4156
g62
(dp4157
g82
g83
ssg71
g4151
sg64
(lp4158
S'id'
p4159
asbag57
(g78
g59
NtRp4160
(dp4161
g62
(dp4162
g89
g90
ssg71
g4151
sg64
(lp4163
S':'
asbag57
(g78
g59
NtRp4164
(dp4165
g62
(dp4166
sg71
g4151
sg64
(lp4167
g57
(g58
g59
NtRp4168
(dp4169
g62
(dp4170
g70
I3
ssg71
g4164
sg64
(lp4171
S'3'
asbasbasbag57
(g73
g59
NtRp4172
(dp4173
g62
(dp4174
sg71
g4103
sg64
(lp4175
g57
(g78
g59
NtRp4176
(dp4177
g62
(dp4178
g82
g83
ssg71
g4172
sg64
(lp4179
S'last_name'
p4180
asbag57
(g78
g59
NtRp4181
(dp4182
g62
(dp4183
g89
g90
ssg71
g4172
sg64
(lp4184
S':'
asbag57
(g78
g59
NtRp4185
(dp4186
g62
(dp4187
sg71
g4172
sg64
(lp4188
g57
(g58
g59
NtRp4189
(dp4190
g62
(dp4191
g70
I3
ssg71
g4185
sg64
(lp4192
S'baheti'
p4193
asbasbasbag57
(g73
g59
NtRp4194
(dp4195
g62
(dp4196
sg71
g4103
sg64
(lp4197
g57
(g78
g59
NtRp4198
(dp4199
g62
(dp4200
g82
g83
ssg71
g4194
sg64
(lp4201
S'registration_id'
p4202
asbag57
(g78
g59
NtRp4203
(dp4204
g62
(dp4205
g89
g90
ssg71
g4194
sg64
(lp4206
S':'
asbag57
(g78
g59
NtRp4207
(dp4208
g62
(dp4209
sg71
g4194
sg64
(lp4210
g57
(g58
g59
NtRp4211
(dp4212
g62
(dp4213
g70
I3
ssg71
g4207
sg64
(lp4214
S''
asbasbasbag57
(g73
g59
NtRp4215
(dp4216
g62
(dp4217
sg71
g4103
sg64
(lp4218
g57
(g78
g59
NtRp4219
(dp4220
g62
(dp4221
g82
g83
ssg71
g4215
sg64
(lp4222
S'registration_key'
p4223
asbag57
(g78
g59
NtRp4224
(dp4225
g62
(dp4226
g89
g90
ssg71
g4215
sg64
(lp4227
S':'
asbag57
(g78
g59
NtRp4228
(dp4229
g62
(dp4230
sg71
g4215
sg64
(lp4231
g57
(g58
g59
NtRp4232
(dp4233
g62
(dp4234
g70
I3
ssg71
g4228
sg64
(lp4235
S''
asbasbasbag57
(g73
g59
NtRp4236
(dp4237
g62
(dp4238
sg71
g4103
sg64
(lp4239
g57
(g78
g59
NtRp4240
(dp4241
g62
(dp4242
g82
g83
ssg71
g4236
sg64
(lp4243
S'reset_password_key'
p4244
asbag57
(g78
g59
NtRp4245
(dp4246
g62
(dp4247
g89
g90
ssg71
g4236
sg64
(lp4248
S':'
asbag57
(g78
g59
NtRp4249
(dp4250
g62
(dp4251
sg71
g4236
sg64
(lp4252
g57
(g58
g59
NtRp4253
(dp4254
g62
(dp4255
g70
I3
ssg71
g4249
sg64
(lp4256
S''
asbasbasbag57
(g73
g59
NtRp4257
(dp4258
g62
(dp4259
sg71
g4103
sg64
(lp4260
g57
(g78
g59
NtRp4261
(dp4262
g62
(dp4263
g82
g83
ssg71
g4257
sg64
(lp4264
S'username'
p4265
asbag57
(g78
g59
NtRp4266
(dp4267
g62
(dp4268
g89
g90
ssg71
g4257
sg64
(lp4269
S':'
asbag57
(g78
g59
NtRp4270
(dp4271
g62
(dp4272
sg71
g4257
sg64
(lp4273
g57
(g58
g59
NtRp4274
(dp4275
g62
(dp4276
g70
I3
ssg71
g4270
sg64
(lp4277
S'darpan'
p4278
asbasbasbasbasbasbasbag57
(g73
g59
NtRp4279
(dp4280
g62
(dp4281
sg71
g3991
sg64
(lp4282
g57
(g78
g59
NtRp4283
(dp4284
g62
(dp4285
g82
g83
ssg71
g4279
sg64
(lp4286
S'user_groups'
p4287
asbag57
(g78
g59
NtRp4288
(dp4289
g62
(dp4290
g89
g90
ssg71
g4279
sg64
(lp4291
S':'
asbag57
(g78
g59
NtRp4292
(dp4293
g62
(dp4294
sg71
g4279
sg64
(lp4295
g57
(g58
g59
NtRp4296
(dp4297
g62
(dp4298
g70
I4
ssg71
g4292
sg64
(lp4299
g57
(g66
g59
NtRp4300
(dp4301
g62
(dp4302
g70
I3
ssg71
Nsg64
(lp4303
g57
(g73
g59
NtRp4304
(dp4305
g62
(dp4306
sg71
g4300
sg64
(lp4307
g57
(g78
g59
NtRp4308
(dp4309
g62
(dp4310
g82
g83
ssg71
g4304
sg64
(lp4311
S'2'
asbag57
(g78
g59
NtRp4312
(dp4313
g62
(dp4314
g89
g90
ssg71
g4304
sg64
(lp4315
S':'
asbag57
(g78
g59
NtRp4316
(dp4317
g62
(dp4318
sg71
g4304
sg64
(lp4319
g57
(g58
g59
NtRp4320
(dp4321
g62
(dp4322
g70
I3
ssg71
g4316
sg64
(lp4323
S'ghmc_admin'
p4324
asbasbasbasbasbasbasbasbasbasbasbag57
(g73
g59
NtRp4325
(dp4326
g62
(dp4327
sg71
g3966
sg64
(lp4328
g57
(g78
g59
NtRp4329
(dp4330
g62
(dp4331
g82
g83
ssg71
g4325
sg64
(lp4332
S'flash'
p4333
asbag57
(g78
g59
NtRp4334
(dp4335
g62
(dp4336
g89
g90
ssg71
g4325
sg64
(lp4337
S':'
asbag57
(g78
g59
NtRp4338
(dp4339
g62
(dp4340
sg71
g4325
sg64
(lp4341
g57
(g58
g59
NtRp4342
(dp4343
g62
(dp4344
g70
I5
ssg71
g4338
sg64
(lp4345
S'None'
p4346
asbasbasbag57
(g73
g59
NtRp4347
(dp4348
g62
(dp4349
sg71
g3966
sg64
(lp4350
g57
(g78
g59
NtRp4351
(dp4352
g62
(dp4353
g82
g83
ssg71
g4347
sg64
(lp4354
S'last_orderby'
p4355
asbag57
(g78
g59
NtRp4356
(dp4357
g62
(dp4358
g89
g90
ssg71
g4347
sg64
(lp4359
S':'
asbag57
(g78
g59
NtRp4360
(dp4361
g62
(dp4362
sg71
g4347
sg64
(lp4363
g57
(g58
g59
NtRp4364
(dp4365
g62
(dp4366
g70
I5
ssg71
g4360
sg64
(lp4367
S'None'
p4368
asbasbasbag57
(g73
g59
NtRp4369
(dp4370
g62
(dp4371
sg71
g3966
sg64
(lp4372
g57
(g78
g59
NtRp4373
(dp4374
g62
(dp4375
g82
g83
ssg71
g4369
sg64
(lp4376
S'last_query'
p4377
asbag57
(g78
g59
NtRp4378
(dp4379
g62
(dp4380
g89
g90
ssg71
g4369
sg64
(lp4381
S':'
asbag57
(g78
g59
NtRp4382
(dp4383
g62
(dp4384
sg71
g4369
sg64
(lp4385
g57
(g58
g59
NtRp4386
(dp4387
g62
(dp4388
g70
I5
ssg71
g4382
sg64
(lp4389
S'db.auth_user.id>0'
p4390
asbasbasbag57
(g73
g59
NtRp4391
(dp4392
g62
(dp4393
sg71
g3966
sg64
(lp4394
g57
(g78
g59
NtRp4395
(dp4396
g62
(dp4397
g82
g83
ssg71
g4391
sg64
(lp4398
S'user_id'
p4399
asbag57
(g78
g59
NtRp4400
(dp4401
g62
(dp4402
g89
g90
ssg71
g4391
sg64
(lp4403
S':'
asbag57
(g78
g59
NtRp4404
(dp4405
g62
(dp4406
sg71
g4391
sg64
(lp4407
g57
(g58
g59
NtRp4408
(dp4409
g62
(dp4410
g70
I5
ssg71
g4404
sg64
(lp4411
S'3'
asbasbasbag57
(g73
g59
NtRp4412
(dp4413
g62
(dp4414
sg71
g3966
sg64
(lp4415
g57
(g78
g59
NtRp4416
(dp4417
g62
(dp4418
g82
g83
ssg71
g4412
sg64
(lp4419
S'user_name'
p4420
asbag57
(g78
g59
NtRp4421
(dp4422
g62
(dp4423
g89
g90
ssg71
g4412
sg64
(lp4424
S':'
asbag57
(g78
g59
NtRp4425
(dp4426
g62
(dp4427
sg71
g4412
sg64
(lp4428
g57
(g58
g59
NtRp4429
(dp4430
g62
(dp4431
g70
I5
ssg71
g4425
sg64
(lp4432
g4150
asbasbasbasbasbsS'etype'
p4433
S"<type 'exceptions.AttributeError'>"
p4434
sS'date'
p4435
S'Sun Sep 28 11:31:27 2014'
p4436
sS'response'
p4437
g57
(g58
g59
NtRp4438
(dp4439
g62
(dp4440
sg64
(lp4441
g57
(g66
g59
NtRp4442
(dp4443
g62
(dp4444
g70
I5
ssg71
Nsg64
(lp4445
g57
(g73
g59
NtRp4446
(dp4447
g62
(dp4448
sg71
g4442
sg64
(lp4449
g57
(g78
g59
NtRp4450
(dp4451
g62
(dp4452
g82
g83
ssg71
g4446
sg64
(lp4453
g155
asbag57
(g78
g59
NtRp4454
(dp4455
g62
(dp4456
g89
g90
ssg71
g4446
sg64
(lp4457
S':'
asbag57
(g78
g59
NtRp4458
(dp4459
g62
(dp4460
sg71
g4446
sg64
(lp4461
g57
(g58
g59
NtRp4462
(dp4463
g62
(dp4464
g70
I5
ssg71
g4458
sg64
(lp4465
S'<cStringIO.StringO object at 0x7f9288b2b1b8>'
p4466
asbasbasbag57
(g73
g59
NtRp4467
(dp4468
g62
(dp4469
sg71
g4442
sg64
(lp4470
g57
(g78
g59
NtRp4471
(dp4472
g62
(dp4473
g82
g83
ssg71
g4467
sg64
(lp4474
g243
asbag57
(g78
g59
NtRp4475
(dp4476
g62
(dp4477
g89
g90
ssg71
g4467
sg64
(lp4478
S':'
asbag57
(g78
g59
NtRp4479
(dp4480
g62
(dp4481
sg71
g4467
sg64
(lp4482
g57
(g58
g59
NtRp4483
(dp4484
g62
(dp4485
g70
I5
ssg71
g4479
sg64
(lp4486
g57
(g66
g59
NtRp4487
(dp4488
g62
(dp4489
g70
I4
ssg71
Nsg64
(lp4490
g57
(g73
g59
NtRp4491
(dp4492
g62
(dp4493
sg71
g4487
sg64
(lp4494
g57
(g78
g59
NtRp4495
(dp4496
g62
(dp4497
g82
g83
ssg71
g4491
sg64
(lp4498
S'session_id_garbage_truck'
p4499
asbag57
(g78
g59
NtRp4500
(dp4501
g62
(dp4502
g89
g90
ssg71
g4491
sg64
(lp4503
S':'
asbag57
(g78
g59
NtRp4504
(dp4505
g62
(dp4506
sg71
g4491
sg64
(lp4507
g57
(g58
g59
NtRp4508
(dp4509
g62
(dp4510
g70
I4
ssg71
g4504
sg64
(lp4511
g661
ag57
(g66
g59
NtRp4512
(dp4513
g62
(dp4514
g70
I3
ssg71
Nsg64
(lp4515
g57
(g73
g59
NtRp4516
(dp4517
g62
(dp4518
sg71
g4512
sg64
(lp4519
g57
(g78
g59
NtRp4520
(dp4521
g62
(dp4522
g82
g83
ssg71
g4516
sg64
(lp4523
g294
asbag57
(g78
g59
NtRp4524
(dp4525
g62
(dp4526
g89
g90
ssg71
g4516
sg64
(lp4527
S':'
asbag57
(g78
g59
NtRp4528
(dp4529
g62
(dp4530
sg71
g4516
sg64
(lp4531
g57
(g58
g59
NtRp4532
(dp4533
g62
(dp4534
g70
I3
ssg71
g4528
sg64
(lp4535
S''
asbasbasbag57
(g73
g59
NtRp4536
(dp4537
g62
(dp4538
sg71
g4512
sg64
(lp4539
g57
(g78
g59
NtRp4540
(dp4541
g62
(dp4542
g82
g83
ssg71
g4536
sg64
(lp4543
g315
asbag57
(g78
g59
NtRp4544
(dp4545
g62
(dp4546
g89
g90
ssg71
g4536
sg64
(lp4547
S':'
asbag57
(g78
g59
NtRp4548
(dp4549
g62
(dp4550
sg71
g4536
sg64
(lp4551
g57
(g58
g59
NtRp4552
(dp4553
g62
(dp4554
g70
I3
ssg71
g4548
sg64
(lp4555
S''
asbasbasbag57
(g73
g59
NtRp4556
(dp4557
g62
(dp4558
sg71
g4512
sg64
(lp4559
g57
(g78
g59
NtRp4560
(dp4561
g62
(dp4562
g82
g83
ssg71
g4556
sg64
(lp4563
g336
asbag57
(g78
g59
NtRp4564
(dp4565
g62
(dp4566
g89
g90
ssg71
g4556
sg64
(lp4567
S':'
asbag57
(g78
g59
NtRp4568
(dp4569
g62
(dp4570
sg71
g4556
sg64
(lp4571
g57
(g58
g59
NtRp4572
(dp4573
g62
(dp4574
g70
I3
ssg71
g4568
sg64
(lp4575
S''
asbasbasbag57
(g73
g59
NtRp4576
(dp4577
g62
(dp4578
sg71
g4512
sg64
(lp4579
g57
(g78
g59
NtRp4580
(dp4581
g62
(dp4582
g82
g83
ssg71
g4576
sg64
(lp4583
g357
asbag57
(g78
g59
NtRp4584
(dp4585
g62
(dp4586
g89
g90
ssg71
g4576
sg64
(lp4587
S':'
asbag57
(g78
g59
NtRp4588
(dp4589
g62
(dp4590
sg71
g4576
sg64
(lp4591
g57
(g58
g59
NtRp4592
(dp4593
g62
(dp4594
g70
I3
ssg71
g4588
sg64
(lp4595
S''
asbasbasbag57
(g73
g59
NtRp4596
(dp4597
g62
(dp4598
sg71
g4512
sg64
(lp4599
g57
(g78
g59
NtRp4600
(dp4601
g62
(dp4602
g82
g83
ssg71
g4596
sg64
(lp4603
g378
asbag57
(g78
g59
NtRp4604
(dp4605
g62
(dp4606
g89
g90
ssg71
g4596
sg64
(lp4607
S':'
asbag57
(g78
g59
NtRp4608
(dp4609
g62
(dp4610
sg71
g4596
sg64
(lp4611
g57
(g58
g59
NtRp4612
(dp4613
g62
(dp4614
g70
I3
ssg71
g4608
sg64
(lp4615
S''
asbasbasbag57
(g73
g59
NtRp4616
(dp4617
g62
(dp4618
sg71
g4512
sg64
(lp4619
g57
(g78
g59
NtRp4620
(dp4621
g62
(dp4622
g82
g83
ssg71
g4616
sg64
(lp4623
g399
asbag57
(g78
g59
NtRp4624
(dp4625
g62
(dp4626
g89
g90
ssg71
g4616
sg64
(lp4627
S':'
asbag57
(g78
g59
NtRp4628
(dp4629
g62
(dp4630
sg71
g4616
sg64
(lp4631
g57
(g58
g59
NtRp4632
(dp4633
g62
(dp4634
g70
I3
ssg71
g4628
sg64
(lp4635
S'/'
asbasbasbag57
(g73
g59
NtRp4636
(dp4637
g62
(dp4638
sg71
g4512
sg64
(lp4639
g57
(g78
g59
NtRp4640
(dp4641
g62
(dp4642
g82
g83
ssg71
g4636
sg64
(lp4643
g420
asbag57
(g78
g59
NtRp4644
(dp4645
g62
(dp4646
g89
g90
ssg71
g4636
sg64
(lp4647
S':'
asbag57
(g78
g59
NtRp4648
(dp4649
g62
(dp4650
sg71
g4636
sg64
(lp4651
g57
(g58
g59
NtRp4652
(dp4653
g62
(dp4654
g70
I3
ssg71
g4648
sg64
(lp4655
S''
asbasbasbag57
(g73
g59
NtRp4656
(dp4657
g62
(dp4658
sg71
g4512
sg64
(lp4659
g57
(g78
g59
NtRp4660
(dp4661
g62
(dp4662
g82
g83
ssg71
g4656
sg64
(lp4663
g441
asbag57
(g78
g59
NtRp4664
(dp4665
g62
(dp4666
g89
g90
ssg71
g4656
sg64
(lp4667
S':'
asbag57
(g78
g59
NtRp4668
(dp4669
g62
(dp4670
sg71
g4656
sg64
(lp4671
g57
(g58
g59
NtRp4672
(dp4673
g62
(dp4674
g70
I3
ssg71
g4668
sg64
(lp4675
S''
asbasbasbasbasbasbasbasbasbasbasbag57
(g73
g59
NtRp4676
(dp4677
g62
(dp4678
sg71
g4442
sg64
(lp4679
g57
(g78
g59
NtRp4680
(dp4681
g62
(dp4682
g82
g83
ssg71
g4676
sg64
(lp4683
S'delimiters'
p4684
asbag57
(g78
g59
NtRp4685
(dp4686
g62
(dp4687
g89
g90
ssg71
g4676
sg64
(lp4688
S':'
asbag57
(g78
g59
NtRp4689
(dp4690
g62
(dp4691
sg71
g4676
sg64
(lp4692
g57
(g58
g59
NtRp4693
(dp4694
g62
(dp4695
g70
I5
ssg71
g4689
sg64
(lp4696
g57
(g66
g59
NtRp4697
(dp4698
g62
(dp4699
g70
I4
ssg71
Nsg64
(lp4700
g57
(g73
g59
NtRp4701
(dp4702
g62
(dp4703
sg71
g4697
sg64
(lp4704
g57
(g78
g59
NtRp4705
(dp4706
g62
(dp4707
sg71
g4701
sg64
(lp4708
g57
(g58
g59
NtRp4709
(dp4710
g62
(dp4711
g70
I4
ssg71
g4705
sg64
(lp4712
S'{{'
p4713
asbasbasbag57
(g73
g59
NtRp4714
(dp4715
g62
(dp4716
sg71
g4697
sg64
(lp4717
g57
(g78
g59
NtRp4718
(dp4719
g62
(dp4720
sg71
g4714
sg64
(lp4721
g57
(g58
g59
NtRp4722
(dp4723
g62
(dp4724
g70
I4
ssg71
g4718
sg64
(lp4725
S'}}'
p4726
asbasbasbasbasbasbasbag57
(g73
g59
NtRp4727
(dp4728
g62
(dp4729
sg71
g4442
sg64
(lp4730
g57
(g78
g59
NtRp4731
(dp4732
g62
(dp4733
g82
g83
ssg71
g4727
sg64
(lp4734
S'files'
p4735
asbag57
(g78
g59
NtRp4736
(dp4737
g62
(dp4738
g89
g90
ssg71
g4727
sg64
(lp4739
S':'
asbag57
(g78
g59
NtRp4740
(dp4741
g62
(dp4742
sg71
g4727
sg64
(lp4743
g57
(g58
g59
NtRp4744
(dp4745
g62
(dp4746
g70
I5
ssg71
g4740
sg64
(lp4747
g57
(g66
g59
NtRp4748
(dp4749
g62
(dp4750
g70
I4
ssg71
Nsg64
(lp4751
sbasbasbasbag57
(g73
g59
NtRp4752
(dp4753
g62
(dp4754
sg71
g4442
sg64
(lp4755
g57
(g78
g59
NtRp4756
(dp4757
g62
(dp4758
g82
g83
ssg71
g4752
sg64
(lp4759
S'flash'
p4760
asbag57
(g78
g59
NtRp4761
(dp4762
g62
(dp4763
g89
g90
ssg71
g4752
sg64
(lp4764
S':'
asbag57
(g78
g59
NtRp4765
(dp4766
g62
(dp4767
sg71
g4752
sg64
(lp4768
g57
(g58
g59
NtRp4769
(dp4770
g62
(dp4771
g70
I5
ssg71
g4765
sg64
(lp4772
S''
asbasbasbag57
(g73
g59
NtRp4773
(dp4774
g62
(dp4775
sg71
g4442
sg64
(lp4776
g57
(g78
g59
NtRp4777
(dp4778
g62
(dp4779
g82
g83
ssg71
g4773
sg64
(lp4780
S'generic_patterns'
p4781
asbag57
(g78
g59
NtRp4782
(dp4783
g62
(dp4784
g89
g90
ssg71
g4773
sg64
(lp4785
S':'
asbag57
(g78
g59
NtRp4786
(dp4787
g62
(dp4788
sg71
g4773
sg64
(lp4789
g57
(g58
g59
NtRp4790
(dp4791
g62
(dp4792
g70
I5
ssg71
g4786
sg64
(lp4793
g57
(g66
g59
NtRp4794
(dp4795
g62
(dp4796
g70
I4
ssg71
Nsg64
(lp4797
g57
(g73
g59
NtRp4798
(dp4799
g62
(dp4800
sg71
g4794
sg64
(lp4801
g57
(g78
g59
NtRp4802
(dp4803
g62
(dp4804
sg71
g4798
sg64
(lp4805
g57
(g58
g59
NtRp4806
(dp4807
g62
(dp4808
g70
I4
ssg71
g4802
sg64
(lp4809
S'*'
asbasbasbasbasbasbasbag57
(g73
g59
NtRp4810
(dp4811
g62
(dp4812
sg71
g4442
sg64
(lp4813
g57
(g78
g59
NtRp4814
(dp4815
g62
(dp4816
g82
g83
ssg71
g4810
sg64
(lp4817
S'google_analytics_id'
p4818
asbag57
(g78
g59
NtRp4819
(dp4820
g62
(dp4821
g89
g90
ssg71
g4810
sg64
(lp4822
S':'
asbag57
(g78
g59
NtRp4823
(dp4824
g62
(dp4825
sg71
g4810
sg64
(lp4826
g57
(g58
g59
NtRp4827
(dp4828
g62
(dp4829
g70
I5
ssg71
g4823
sg64
(lp4830
S'None'
p4831
asbasbasbag57
(g73
g59
NtRp4832
(dp4833
g62
(dp4834
sg71
g4442
sg64
(lp4835
g57
(g78
g59
NtRp4836
(dp4837
g62
(dp4838
g82
g83
ssg71
g4832
sg64
(lp4839
S'headers'
p4840
asbag57
(g78
g59
NtRp4841
(dp4842
g62
(dp4843
g89
g90
ssg71
g4832
sg64
(lp4844
S':'
asbag57
(g78
g59
NtRp4845
(dp4846
g62
(dp4847
sg71
g4832
sg64
(lp4848
g57
(g58
g59
NtRp4849
(dp4850
g62
(dp4851
g70
I5
ssg71
g4845
sg64
(lp4852
g57
(g66
g59
NtRp4853
(dp4854
g62
(dp4855
g70
I4
ssg71
Nsg64
(lp4856
g57
(g73
g59
NtRp4857
(dp4858
g62
(dp4859
sg71
g4853
sg64
(lp4860
g57
(g78
g59
NtRp4861
(dp4862
g62
(dp4863
g82
g83
ssg71
g4857
sg64
(lp4864
S'X-Powered-By'
p4865
asbag57
(g78
g59
NtRp4866
(dp4867
g62
(dp4868
g89
g90
ssg71
g4857
sg64
(lp4869
S':'
asbag57
(g78
g59
NtRp4870
(dp4871
g62
(dp4872
sg71
g4857
sg64
(lp4873
g57
(g58
g59
NtRp4874
(dp4875
g62
(dp4876
g70
I4
ssg71
g4870
sg64
(lp4877
S'web2py'
p4878
asbasbasbasbasbasbasbag57
(g73
g59
NtRp4879
(dp4880
g62
(dp4881
sg71
g4442
sg64
(lp4882
g57
(g78
g59
NtRp4883
(dp4884
g62
(dp4885
g82
g83
ssg71
g4879
sg64
(lp4886
S'logo'
p4887
asbag57
(g78
g59
NtRp4888
(dp4889
g62
(dp4890
g89
g90
ssg71
g4879
sg64
(lp4891
S':'
asbag57
(g78
g59
NtRp4892
(dp4893
g62
(dp4894
sg71
g4879
sg64
(lp4895
g57
(g58
g59
NtRp4896
(dp4897
g62
(dp4898
g70
I5
ssg71
g4892
sg64
(lp4899
g57
(cgluon.html
A
p4900
g59
NtRp4901
(dp4902
g62
(dp4903
S'_class'
p4904
S'brand'
p4905
sS'_href'
p4906
S'http://www.web2py.com/'
p4907
ssg71
Nsg64
(lp4908
g57
(cgluon.html
B
p4909
g59
NtRp4910
(dp4911
g62
(dp4912
sg71
g4901
sg64
(lp4913
S'web'
p4914
ag57
(cgluon.html
SPAN
p4915
g59
NtRp4916
(dp4917
g62
(dp4918
sg71
g4910
sg64
(lp4919
I2
asbaS'py'
p4920
asbacgluon.html
XML_unpickle
p4921
(S's\r\x00\x00\x00&trade;&nbsp;'
tRp4922
asbasbasbasbag57
(g73
g59
NtRp4923
(dp4924
g62
(dp4925
sg71
g4442
sg64
(lp4926
g57
(g78
g59
NtRp4927
(dp4928
g62
(dp4929
g82
g83
ssg71
g4923
sg64
(lp4930
S'menu'
p4931
asbag57
(g78
g59
NtRp4932
(dp4933
g62
(dp4934
g89
g90
ssg71
g4923
sg64
(lp4935
S':'
asbag57
(g78
g59
NtRp4936
(dp4937
g62
(dp4938
sg71
g4923
sg64
(lp4939
g57
(g58
g59
NtRp4940
(dp4941
g62
(dp4942
g70
I5
ssg71
g4936
sg64
(lp4943
g57
(g66
g59
NtRp4944
(dp4945
g62
(dp4946
g70
I4
ssg71
Nsg64
(lp4947
g57
(g73
g59
NtRp4948
(dp4949
g62
(dp4950
sg71
g4944
sg64
(lp4951
g57
(g78
g59
NtRp4952
(dp4953
g62
(dp4954
sg71
g4948
sg64
(lp4955
g57
(g58
g59
NtRp4956
(dp4957
g62
(dp4958
g70
I4
ssg71
g4952
sg64
(lp4959
g57
(g66
g59
NtRp4960
(dp4961
g62
(dp4962
g70
I3
ssg71
Nsg64
(lp4963
g57
(g73
g59
NtRp4964
(dp4965
g62
(dp4966
sg71
g4960
sg64
(lp4967
g57
(g78
g59
NtRp4968
(dp4969
g62
(dp4970
sg71
g4964
sg64
(lp4971
g57
(g58
g59
NtRp4972
(dp4973
g62
(dp4974
g70
I3
ssg71
g4968
sg64
(lp4975
cgluon.languages
lazyT_unpickle
p4976
(S's\x04\x00\x00\x00Home'
tRp4977
asbasbasbag57
(g73
g59
NtRp4978
(dp4979
g62
(dp4980
sg71
g4960
sg64
(lp4981
g57
(g78
g59
NtRp4982
(dp4983
g62
(dp4984
sg71
g4978
sg64
(lp4985
g57
(g58
g59
NtRp4986
(dp4987
g62
(dp4988
g70
I3
ssg71
g4982
sg64
(lp4989
g100
asbasbasbag57
(g73
g59
NtRp4990
(dp4991
g62
(dp4992
sg71
g4960
sg64
(lp4993
g57
(g78
g59
NtRp4994
(dp4995
g62
(dp4996
sg71
g4990
sg64
(lp4997
g57
(g58
g59
NtRp4998
(dp4999
g62
(dp5000
g70
I3
ssg71
g4994
sg64
(lp5001
S'/Garbage_Truck/default/index'
p5002
asbasbasbag57
(g73
g59
NtRp5003
(dp5004
g62
(dp5005
sg71
g4960
sg64
(lp5006
g57
(g78
g59
NtRp5007
(dp5008
g62
(dp5009
sg71
g5003
sg64
(lp5010
g57
(g58
g59
NtRp5011
(dp5012
g62
(dp5013
g70
I3
ssg71
g5007
sg64
(lp5014
g57
(g66
g59
NtRp5015
(dp5016
g62
(dp5017
g70
I2
ssg71
Nsg64
(lp5018
sbasbasbasbasbasbasbasbag57
(g73
g59
NtRp5019
(dp5020
g62
(dp5021
sg71
g4944
sg64
(lp5022
g57
(g78
g59
NtRp5023
(dp5024
g62
(dp5025
sg71
g5019
sg64
(lp5026
g57
(g58
g59
NtRp5027
(dp5028
g62
(dp5029
g70
I4
ssg71
g5023
sg64
(lp5030
g57
(g66
g59
NtRp5031
(dp5032
g62
(dp5033
g70
I3
ssg71
Nsg64
(lp5034
g57
(g73
g59
NtRp5035
(dp5036
g62
(dp5037
sg71
g5031
sg64
(lp5038
g57
(g78
g59
NtRp5039
(dp5040
g62
(dp5041
sg71
g5035
sg64
(lp5042
g57
(g58
g59
NtRp5043
(dp5044
g62
(dp5045
g70
I3
ssg71
g5039
sg64
(lp5046
g57
(g4915
g59
NtRp5047
(dp5048
g62
(dp5049
g4904
S'highlighted'
p5050
ssg71
Nsg64
(lp5051
g4878
asbasbasbasbag57
(g73
g59
NtRp5052
(dp5053
g62
(dp5054
sg71
g5031
sg64
(lp5055
g57
(g78
g59
NtRp5056
(dp5057
g62
(dp5058
sg71
g5052
sg64
(lp5059
g57
(g58
g59
NtRp5060
(dp5061
g62
(dp5062
g70
I3
ssg71
g5056
sg64
(lp5063
g100
asbasbasbag57
(g73
g59
NtRp5064
(dp5065
g62
(dp5066
sg71
g5031
sg64
(lp5067
g57
(g78
g59
NtRp5068
(dp5069
g62
(dp5070
sg71
g5064
sg64
(lp5071
g57
(g58
g59
NtRp5072
(dp5073
g62
(dp5074
g70
I3
ssg71
g5068
sg64
(lp5075
S'http://web2py.com'
p5076
asbasbasbag57
(g73
g59
NtRp5077
(dp5078
g62
(dp5079
sg71
g5031
sg64
(lp5080
g57
(g78
g59
NtRp5081
(dp5082
g62
(dp5083
sg71
g5077
sg64
(lp5084
g57
(g58
g59
NtRp5085
(dp5086
g62
(dp5087
g70
I3
ssg71
g5081
sg64
(lp5088
g57
(g66
g59
NtRp5089
(dp5090
g62
(dp5091
g70
I2
ssg71
Nsg64
(lp5092
g57
(g73
g59
NtRp5093
(dp5094
g62
(dp5095
sg71
g5089
sg64
(lp5096
g57
(g78
g59
NtRp5097
(dp5098
g62
(dp5099
sg71
g5093
sg64
(lp5100
g57
(g58
g59
NtRp5101
(dp5102
g62
(dp5103
g70
I2
ssg71
g5097
sg64
(lp5104
g57
(g66
g59
NtRp5105
(dp5106
g62
(dp5107
g70
I1
ssg71
Nsg64
(lp5108
g57
(g73
g59
NtRp5109
(dp5110
g62
(dp5111
sg71
g5105
sg64
(lp5112
g57
(g78
g59
NtRp5113
(dp5114
g62
(dp5115
sg71
g5109
sg64
(lp5116
g57
(g58
g59
NtRp5117
(dp5118
g62
(dp5119
g70
I1
ssg71
g5113
sg64
(lp5120
g4976
(S's\x08\x00\x00\x00My Sites'
tRp5121
asbasbasbag57
(g73
g59
NtRp5122
(dp5123
g62
(dp5124
sg71
g5105
sg64
(lp5125
g57
(g78
g59
NtRp5126
(dp5127
g62
(dp5128
sg71
g5122
sg64
(lp5129
g57
(g58
g59
NtRp5130
(dp5131
g62
(dp5132
g70
I1
ssg71
g5126
sg64
(lp5133
I00
asbasbasbag57
(g73
g59
NtRp5134
(dp5135
g62
(dp5136
sg71
g5105
sg64
(lp5137
g57
(g78
g59
NtRp5138
(dp5139
g62
(dp5140
sg71
g5134
sg64
(lp5141
g57
(g58
g59
NtRp5142
(dp5143
g62
(dp5144
g70
I1
ssg71
g5138
sg64
(lp5145
S'/admin/default/site'
p5146
asbasbasbasbasbasbasbag57
(g73
g59
NtRp5147
(dp5148
g62
(dp5149
sg71
g5089
sg64
(lp5150
g57
(g78
g59
NtRp5151
(dp5152
g62
(dp5153
sg71
g5147
sg64
(lp5154
g57
(g58
g59
NtRp5155
(dp5156
g62
(dp5157
g70
I2
ssg71
g5151
sg64
(lp5158
g57
(g66
g59
NtRp5159
(dp5160
g62
(dp5161
g70
I1
ssg71
Nsg64
(lp5162
g57
(g73
g59
NtRp5163
(dp5164
g62
(dp5165
sg71
g5159
sg64
(lp5166
g57
(g78
g59
NtRp5167
(dp5168
g62
(dp5169
sg71
g5163
sg64
(lp5170
g57
(g58
g59
NtRp5171
(dp5172
g62
(dp5173
g70
I1
ssg71
g5167
sg64
(lp5174
g4976
(S's\x08\x00\x00\x00This App'
tRp5175
asbasbasbag57
(g73
g59
NtRp5176
(dp5177
g62
(dp5178
sg71
g5159
sg64
(lp5179
g57
(g78
g59
NtRp5180
(dp5181
g62
(dp5182
sg71
g5176
sg64
(lp5183
g57
(g58
g59
NtRp5184
(dp5185
g62
(dp5186
g70
I1
ssg71
g5180
sg64
(lp5187
I00
asbasbasbag57
(g73
g59
NtRp5188
(dp5189
g62
(dp5190
sg71
g5159
sg64
(lp5191
g57
(g78
g59
NtRp5192
(dp5193
g62
(dp5194
sg71
g5188
sg64
(lp5195
g57
(g58
g59
NtRp5196
(dp5197
g62
(dp5198
g70
I1
ssg71
g5192
sg64
(lp5199
S'/admin/default/design/Garbage_Truck'
p5200
asbasbasbag57
(g73
g59
NtRp5201
(dp5202
g62
(dp5203
sg71
g5159
sg64
(lp5204
g57
(g78
g59
NtRp5205
(dp5206
g62
(dp5207
sg71
g5201
sg64
(lp5208
g57
(g58
g59
NtRp5209
(dp5210
g62
(dp5211
g70
I1
ssg71
g5205
sg64
(lp5212
(lp5213
(g4976
(S's\n\x00\x00\x00Controller'
tRp5214
I00
S'/admin/default/edit/Garbage_Truck/controllers/default.py'
tp5215
a(g4976
(S's\x04\x00\x00\x00View'
tRp5216
I00
S'/admin/default/edit/Garbage_Truck/views/default/request_urgent_view.html'
tp5217
a(g4976
(S's\x06\x00\x00\x00Layout'
tRp5218
I00
S'/admin/default/edit/Garbage_Truck/views/layout.html'
tp5219
a(g4976
(S's\n\x00\x00\x00Stylesheet'
tRp5220
I00
S'/admin/default/edit/Garbage_Truck/static/css/web2py.css'
tp5221
a(g4976
(S's\x08\x00\x00\x00DB Model'
tRp5222
I00
S'/admin/default/edit/Garbage_Truck/models/db.py'
tp5223
a(g4976
(S's\n\x00\x00\x00Menu Model'
tRp5224
I00
S'/admin/default/edit/Garbage_Truck/models/menu.py'
tp5225
a(g4976
(S's\x08\x00\x00\x00Database'
tRp5226
I00
S'/Garbage_Truck/appadmin/index'
tp5227
a(g4976
(S's\x06\x00\x00\x00Errors'
tRp5228
I00
S'/admin/default/errors/Garbage_Truck'
tp5229
a(g4976
(S's\x05\x00\x00\x00About'
tRp5230
I00
S'/admin/default/about/Garbage_Truck'
tp5231
aasbasbasbasbasbasbasbag57
(g73
g59
NtRp5232
(dp5233
g62
(dp5234
sg71
g5089
sg64
(lp5235
g57
(g78
g59
NtRp5236
(dp5237
g62
(dp5238
sg71
g5232
sg64
(lp5239
g57
(g58
g59
NtRp5240
(dp5241
g62
(dp5242
g70
I2
ssg71
g5236
sg64
(lp5243
g57
(g66
g59
NtRp5244
(dp5245
g62
(dp5246
g70
I1
ssg71
Nsg64
(lp5247
g57
(g73
g59
NtRp5248
(dp5249
g62
(dp5250
sg71
g5244
sg64
(lp5251
g57
(g78
g59
NtRp5252
(dp5253
g62
(dp5254
sg71
g5248
sg64
(lp5255
g57
(g58
g59
NtRp5256
(dp5257
g62
(dp5258
g70
I1
ssg71
g5252
sg64
(lp5259
S'web2py.com'
p5260
asbasbasbag57
(g73
g59
NtRp5261
(dp5262
g62
(dp5263
sg71
g5244
sg64
(lp5264
g57
(g78
g59
NtRp5265
(dp5266
g62
(dp5267
sg71
g5261
sg64
(lp5268
g57
(g58
g59
NtRp5269
(dp5270
g62
(dp5271
g70
I1
ssg71
g5265
sg64
(lp5272
I00
asbasbasbag57
(g73
g59
NtRp5273
(dp5274
g62
(dp5275
sg71
g5244
sg64
(lp5276
g57
(g78
g59
NtRp5277
(dp5278
g62
(dp5279
sg71
g5273
sg64
(lp5280
g57
(g58
g59
NtRp5281
(dp5282
g62
(dp5283
g70
I1
ssg71
g5277
sg64
(lp5284
S'http://www.web2py.com'
p5285
asbasbasbag57
(g73
g59
NtRp5286
(dp5287
g62
(dp5288
sg71
g5244
sg64
(lp5289
g57
(g78
g59
NtRp5290
(dp5291
g62
(dp5292
sg71
g5286
sg64
(lp5293
g57
(g58
g59
NtRp5294
(dp5295
g62
(dp5296
g70
I1
ssg71
g5290
sg64
(lp5297
(lp5298
(g4976
(S's\x08\x00\x00\x00Download'
tRp5299
I00
S'http://www.web2py.com/examples/default/download'
p5300
tp5301
a(g4976
(S's\x07\x00\x00\x00Support'
tRp5302
I00
S'http://www.web2py.com/examples/default/support'
p5303
tp5304
a(g4976
(S's\x04\x00\x00\x00Demo'
tRp5305
I00
S'http://web2py.com/demo_admin'
p5306
tp5307
a(g4976
(S's\x0e\x00\x00\x00Quick Examples'
tRp5308
I00
S'http://web2py.com/examples/default/examples'
p5309
tp5310
a(g4976
(S's\x03\x00\x00\x00FAQ'
tRp5311
I00
S'http://web2py.com/AlterEgo'
p5312
tp5313
a(g4976
(S's\x06\x00\x00\x00Videos'
tRp5314
I00
S'http://www.web2py.com/examples/default/videos/'
p5315
tp5316
a(g4976
(S's\x11\x00\x00\x00Free Applications'
tRp5317
I00
S'http://web2py.com/appliances'
p5318
tp5319
a(g4976
(S's\x07\x00\x00\x00Plugins'
tRp5320
I00
S'http://web2py.com/plugins'
p5321
tp5322
a(g4976
(S's\x07\x00\x00\x00Layouts'
tRp5323
I00
S'http://web2py.com/layouts'
p5324
tp5325
a(g4976
(S's\x07\x00\x00\x00Recipes'
tRp5326
I00
S'http://web2pyslices.com/'
p5327
tp5328
a(g4976
(S's\x08\x00\x00\x00Semantic'
tRp5329
I00
S'http://web2py.com/semantic'
p5330
tp5331
aasbasbasbasbasbasbasbag57
(g73
g59
NtRp5332
(dp5333
g62
(dp5334
sg71
g5089
sg64
(lp5335
g57
(g78
g59
NtRp5336
(dp5337
g62
(dp5338
sg71
g5332
sg64
(lp5339
g57
(g58
g59
NtRp5340
(dp5341
g62
(dp5342
g70
I2
ssg71
g5336
sg64
(lp5343
g57
(g66
g59
NtRp5344
(dp5345
g62
(dp5346
g70
I1
ssg71
Nsg64
(lp5347
g57
(g73
g59
NtRp5348
(dp5349
g62
(dp5350
sg71
g5344
sg64
(lp5351
g57
(g78
g59
NtRp5352
(dp5353
g62
(dp5354
sg71
g5348
sg64
(lp5355
g57
(g58
g59
NtRp5356
(dp5357
g62
(dp5358
g70
I1
ssg71
g5352
sg64
(lp5359
g4976
(S's\r\x00\x00\x00Documentation'
tRp5360
asbasbasbag57
(g73
g59
NtRp5361
(dp5362
g62
(dp5363
sg71
g5344
sg64
(lp5364
g57
(g78
g59
NtRp5365
(dp5366
g62
(dp5367
sg71
g5361
sg64
(lp5368
g57
(g58
g59
NtRp5369
(dp5370
g62
(dp5371
g70
I1
ssg71
g5365
sg64
(lp5372
I00
asbasbasbag57
(g73
g59
NtRp5373
(dp5374
g62
(dp5375
sg71
g5344
sg64
(lp5376
g57
(g78
g59
NtRp5377
(dp5378
g62
(dp5379
sg71
g5373
sg64
(lp5380
g57
(g58
g59
NtRp5381
(dp5382
g62
(dp5383
g70
I1
ssg71
g5377
sg64
(lp5384
S'http://www.web2py.com/book'
p5385
asbasbasbag57
(g73
g59
NtRp5386
(dp5387
g62
(dp5388
sg71
g5344
sg64
(lp5389
g57
(g78
g59
NtRp5390
(dp5391
g62
(dp5392
sg71
g5386
sg64
(lp5393
g57
(g58
g59
NtRp5394
(dp5395
g62
(dp5396
g70
I1
ssg71
g5390
sg64
(lp5397
(lp5398
(g4976
(S's\x07\x00\x00\x00Preface'
tRp5399
I00
S'http://www.web2py.com/book/default/chapter/00'
p5400
tp5401
a(g4976
(S's\x0c\x00\x00\x00Introduction'
tRp5402
I00
S'http://www.web2py.com/book/default/chapter/01'
p5403
tp5404
a(g4976
(S's\x06\x00\x00\x00Python'
tRp5405
I00
S'http://www.web2py.com/book/default/chapter/02'
p5406
tp5407
a(g4976
(S's\x08\x00\x00\x00Overview'
tRp5408
I00
S'http://www.web2py.com/book/default/chapter/03'
p5409
tp5410
a(g4976
(S's\x08\x00\x00\x00The Core'
tRp5411
I00
S'http://www.web2py.com/book/default/chapter/04'
p5412
tp5413
a(g4976
(S's\t\x00\x00\x00The Views'
tRp5414
I00
S'http://www.web2py.com/book/default/chapter/05'
p5415
tp5416
a(g4976
(S's\x08\x00\x00\x00Database'
tRp5417
I00
S'http://www.web2py.com/book/default/chapter/06'
p5418
tp5419
a(g4976
(S's\x14\x00\x00\x00Forms and Validators'
tRp5420
I00
S'http://www.web2py.com/book/default/chapter/07'
p5421
tp5422
a(g4976
(S's\r\x00\x00\x00Email and SMS'
tRp5423
I00
S'http://www.web2py.com/book/default/chapter/08'
p5424
tp5425
a(g4976
(S's\x0e\x00\x00\x00Access Control'
tRp5426
I00
S'http://www.web2py.com/book/default/chapter/09'
p5427
tp5428
a(g4976
(S's\x08\x00\x00\x00Services'
tRp5429
I00
S'http://www.web2py.com/book/default/chapter/10'
p5430
tp5431
a(g4976
(S's\x0c\x00\x00\x00Ajax Recipes'
tRp5432
I00
S'http://www.web2py.com/book/default/chapter/11'
p5433
tp5434
a(g4976
(S's\x16\x00\x00\x00Components and Plugins'
tRp5435
I00
S'http://www.web2py.com/book/default/chapter/12'
p5436
tp5437
a(g4976
(S's\x12\x00\x00\x00Deployment Recipes'
tRp5438
I00
S'http://www.web2py.com/book/default/chapter/13'
p5439
tp5440
a(g4976
(S's\r\x00\x00\x00Other Recipes'
tRp5441
I00
S'http://www.web2py.com/book/default/chapter/14'
p5442
tp5443
a(g4976
(S's\r\x00\x00\x00Buy this book'
tRp5444
I00
S'http://stores.lulu.com/web2py'
p5445
tp5446
aasbasbasbasbasbasbasbag57
(g73
g59
NtRp5447
(dp5448
g62
(dp5449
sg71
g5089
sg64
(lp5450
g57
(g78
g59
NtRp5451
(dp5452
g62
(dp5453
sg71
g5447
sg64
(lp5454
g57
(g58
g59
NtRp5455
(dp5456
g62
(dp5457
g70
I2
ssg71
g5451
sg64
(lp5458
g57
(g66
g59
NtRp5459
(dp5460
g62
(dp5461
g70
I1
ssg71
Nsg64
(lp5462
g57
(g73
g59
NtRp5463
(dp5464
g62
(dp5465
sg71
g5459
sg64
(lp5466
g57
(g78
g59
NtRp5467
(dp5468
g62
(dp5469
sg71
g5463
sg64
(lp5470
g57
(g58
g59
NtRp5471
(dp5472
g62
(dp5473
g70
I1
ssg71
g5467
sg64
(lp5474
g4976
(S's\t\x00\x00\x00Community'
tRp5475
asbasbasbag57
(g73
g59
NtRp5476
(dp5477
g62
(dp5478
sg71
g5459
sg64
(lp5479
g57
(g78
g59
NtRp5480
(dp5481
g62
(dp5482
sg71
g5476
sg64
(lp5483
g57
(g58
g59
NtRp5484
(dp5485
g62
(dp5486
g70
I1
ssg71
g5480
sg64
(lp5487
I00
asbasbasbag57
(g73
g59
NtRp5488
(dp5489
g62
(dp5490
sg71
g5459
sg64
(lp5491
g57
(g78
g59
NtRp5492
(dp5493
g62
(dp5494
sg71
g5488
sg64
(lp5495
g57
(g58
g59
NtRp5496
(dp5497
g62
(dp5498
g70
I1
ssg71
g5492
sg64
(lp5499
Nasbasbasbag57
(g73
g59
NtRp5500
(dp5501
g62
(dp5502
sg71
g5459
sg64
(lp5503
g57
(g78
g59
NtRp5504
(dp5505
g62
(dp5506
sg71
g5500
sg64
(lp5507
g57
(g58
g59
NtRp5508
(dp5509
g62
(dp5510
g70
I1
ssg71
g5504
sg64
(lp5511
(lp5512
(g4976
(S's\x06\x00\x00\x00Groups'
tRp5513
I00
S'http://www.web2py.com/examples/default/usergroups'
p5514
tp5515
a(g4976
(S's\x07\x00\x00\x00Twitter'
tRp5516
I00
S'http://twitter.com/web2py'
p5517
tp5518
a(g4976
(S's\t\x00\x00\x00Live Chat'
tRp5519
I00
S'http://webchat.freenode.net/?channels=web2py'
p5520
tp5521
aasbasbasbasbasbasbasbag57
(g73
g59
NtRp5522
(dp5523
g62
(dp5524
sg71
g5089
sg64
(lp5525
g57
(g78
g59
NtRp5526
(dp5527
g62
(dp5528
sg71
g5522
sg64
(lp5529
g57
(g58
g59
NtRp5530
(dp5531
g62
(dp5532
g70
I2
ssg71
g5526
sg64
(lp5533
g57
(g66
g59
NtRp5534
(dp5535
g62
(dp5536
g70
I1
ssg71
Nsg64
(lp5537
g57
(g73
g59
NtRp5538
(dp5539
g62
(dp5540
sg71
g5534
sg64
(lp5541
g57
(g78
g59
NtRp5542
(dp5543
g62
(dp5544
sg71
g5538
sg64
(lp5545
g57
(g58
g59
NtRp5546
(dp5547
g62
(dp5548
g70
I1
ssg71
g5542
sg64
(lp5549
g4976
(S's\x07\x00\x00\x00Plugins'
tRp5550
asbasbasbag57
(g73
g59
NtRp5551
(dp5552
g62
(dp5553
sg71
g5534
sg64
(lp5554
g57
(g78
g59
NtRp5555
(dp5556
g62
(dp5557
sg71
g5551
sg64
(lp5558
g57
(g58
g59
NtRp5559
(dp5560
g62
(dp5561
g70
I1
ssg71
g5555
sg64
(lp5562
I00
asbasbasbag57
(g73
g59
NtRp5563
(dp5564
g62
(dp5565
sg71
g5534
sg64
(lp5566
g57
(g78
g59
NtRp5567
(dp5568
g62
(dp5569
sg71
g5563
sg64
(lp5570
g57
(g58
g59
NtRp5571
(dp5572
g62
(dp5573
g70
I1
ssg71
g5567
sg64
(lp5574
Nasbasbasbag57
(g73
g59
NtRp5575
(dp5576
g62
(dp5577
sg71
g5534
sg64
(lp5578
g57
(g78
g59
NtRp5579
(dp5580
g62
(dp5581
sg71
g5575
sg64
(lp5582
g57
(g58
g59
NtRp5583
(dp5584
g62
(dp5585
g70
I1
ssg71
g5579
sg64
(lp5586
(lp5587
(S'plugin_wiki'
p5588
I00
S'http://web2py.com/examples/default/download'
p5589
tp5590
a(g4976
(S's\r\x00\x00\x00Other Plugins'
tRp5591
I00
g5321
tp5592
a(g4976
(S's\x0e\x00\x00\x00Layout Plugins'
tRp5593
I00
g5324
tp5594
aasbasbasbasbasbasbasbasbasbasbasbasbasbasbasbasbasbasbasbag57
(g73
g59
NtRp5595
(dp5596
g62
(dp5597
sg71
g4442
sg64
(lp5598
g57
(g78
g59
NtRp5599
(dp5600
g62
(dp5601
g82
g83
ssg71
g5595
sg64
(lp5602
S'meta'
p5603
asbag57
(g78
g59
NtRp5604
(dp5605
g62
(dp5606
g89
g90
ssg71
g5595
sg64
(lp5607
S':'
asbag57
(g78
g59
NtRp5608
(dp5609
g62
(dp5610
sg71
g5595
sg64
(lp5611
g57
(g58
g59
NtRp5612
(dp5613
g62
(dp5614
g70
I5
ssg71
g5608
sg64
(lp5615
g57
(g66
g59
NtRp5616
(dp5617
g62
(dp5618
g70
I4
ssg71
Nsg64
(lp5619
g57
(g73
g59
NtRp5620
(dp5621
g62
(dp5622
sg71
g5616
sg64
(lp5623
g57
(g78
g59
NtRp5624
(dp5625
g62
(dp5626
g82
g83
ssg71
g5620
sg64
(lp5627
S'author'
p5628
asbag57
(g78
g59
NtRp5629
(dp5630
g62
(dp5631
g89
g90
ssg71
g5620
sg64
(lp5632
S':'
asbag57
(g78
g59
NtRp5633
(dp5634
g62
(dp5635
sg71
g5620
sg64
(lp5636
g57
(g58
g59
NtRp5637
(dp5638
g62
(dp5639
g70
I4
ssg71
g5633
sg64
(lp5640
S'Your Name <you@example.com>'
p5641
asbasbasbag57
(g73
g59
NtRp5642
(dp5643
g62
(dp5644
sg71
g5616
sg64
(lp5645
g57
(g78
g59
NtRp5646
(dp5647
g62
(dp5648
g82
g83
ssg71
g5642
sg64
(lp5649
S'description'
p5650
asbag57
(g78
g59
NtRp5651
(dp5652
g62
(dp5653
g89
g90
ssg71
g5642
sg64
(lp5654
S':'
asbag57
(g78
g59
NtRp5655
(dp5656
g62
(dp5657
sg71
g5642
sg64
(lp5658
g57
(g58
g59
NtRp5659
(dp5660
g62
(dp5661
g70
I4
ssg71
g5655
sg64
(lp5662
S'a cool new app'
p5663
asbasbasbag57
(g73
g59
NtRp5664
(dp5665
g62
(dp5666
sg71
g5616
sg64
(lp5667
g57
(g78
g59
NtRp5668
(dp5669
g62
(dp5670
g82
g83
ssg71
g5664
sg64
(lp5671
S'generator'
p5672
asbag57
(g78
g59
NtRp5673
(dp5674
g62
(dp5675
g89
g90
ssg71
g5664
sg64
(lp5676
S':'
asbag57
(g78
g59
NtRp5677
(dp5678
g62
(dp5679
sg71
g5664
sg64
(lp5680
g57
(g58
g59
NtRp5681
(dp5682
g62
(dp5683
g70
I4
ssg71
g5677
sg64
(lp5684
S'Web2py Web Framework'
p5685
asbasbasbag57
(g73
g59
NtRp5686
(dp5687
g62
(dp5688
sg71
g5616
sg64
(lp5689
g57
(g78
g59
NtRp5690
(dp5691
g62
(dp5692
g82
g83
ssg71
g5686
sg64
(lp5693
S'keywords'
p5694
asbag57
(g78
g59
NtRp5695
(dp5696
g62
(dp5697
g89
g90
ssg71
g5686
sg64
(lp5698
S':'
asbag57
(g78
g59
NtRp5699
(dp5700
g62
(dp5701
sg71
g5686
sg64
(lp5702
g57
(g58
g59
NtRp5703
(dp5704
g62
(dp5705
g70
I4
ssg71
g5699
sg64
(lp5706
S'web2py, python, framework'
p5707
asbasbasbasbasbasbasbag57
(g73
g59
NtRp5708
(dp5709
g62
(dp5710
sg71
g4442
sg64
(lp5711
g57
(g78
g59
NtRp5712
(dp5713
g62
(dp5714
g82
g83
ssg71
g5708
sg64
(lp5715
S'models_to_run'
p5716
asbag57
(g78
g59
NtRp5717
(dp5718
g62
(dp5719
g89
g90
ssg71
g5708
sg64
(lp5720
S':'
asbag57
(g78
g59
NtRp5721
(dp5722
g62
(dp5723
sg71
g5708
sg64
(lp5724
g57
(g58
g59
NtRp5725
(dp5726
g62
(dp5727
g70
I5
ssg71
g5721
sg64
(lp5728
g57
(g66
g59
NtRp5729
(dp5730
g62
(dp5731
g70
I4
ssg71
Nsg64
(lp5732
g57
(g73
g59
NtRp5733
(dp5734
g62
(dp5735
sg71
g5729
sg64
(lp5736
g57
(g78
g59
NtRp5737
(dp5738
g62
(dp5739
sg71
g5733
sg64
(lp5740
g57
(g58
g59
NtRp5741
(dp5742
g62
(dp5743
g70
I4
ssg71
g5737
sg64
(lp5744
S'^\\w+\\.py$'
p5745
asbasbasbag57
(g73
g59
NtRp5746
(dp5747
g62
(dp5748
sg71
g5729
sg64
(lp5749
g57
(g78
g59
NtRp5750
(dp5751
g62
(dp5752
sg71
g5746
sg64
(lp5753
g57
(g58
g59
NtRp5754
(dp5755
g62
(dp5756
g70
I4
ssg71
g5750
sg64
(lp5757
S'^default/\\w+\\.py$'
p5758
asbasbasbag57
(g73
g59
NtRp5759
(dp5760
g62
(dp5761
sg71
g5729
sg64
(lp5762
g57
(g78
g59
NtRp5763
(dp5764
g62
(dp5765
sg71
g5759
sg64
(lp5766
g57
(g58
g59
NtRp5767
(dp5768
g62
(dp5769
g70
I4
ssg71
g5763
sg64
(lp5770
S'^default/request_urgent_view/\\w+\\.py$'
p5771
asbasbasbasbasbasbasbag57
(g73
g59
NtRp5772
(dp5773
g62
(dp5774
sg71
g4442
sg64
(lp5775
g57
(g78
g59
NtRp5776
(dp5777
g62
(dp5778
g82
g83
ssg71
g5772
sg64
(lp5779
S'postprocessing'
p5780
asbag57
(g78
g59
NtRp5781
(dp5782
g62
(dp5783
g89
g90
ssg71
g5772
sg64
(lp5784
S':'
asbag57
(g78
g59
NtRp5785
(dp5786
g62
(dp5787
sg71
g5772
sg64
(lp5788
g57
(g58
g59
NtRp5789
(dp5790
g62
(dp5791
g70
I5
ssg71
g5785
sg64
(lp5792
g57
(g66
g59
NtRp5793
(dp5794
g62
(dp5795
g70
I4
ssg71
Nsg64
(lp5796
sbasbasbasbag57
(g73
g59
NtRp5797
(dp5798
g62
(dp5799
sg71
g4442
sg64
(lp5800
g57
(g78
g59
NtRp5801
(dp5802
g62
(dp5803
g82
g83
ssg71
g5797
sg64
(lp5804
S'session_cookie_expires'
p5805
asbag57
(g78
g59
NtRp5806
(dp5807
g62
(dp5808
g89
g90
ssg71
g5797
sg64
(lp5809
S':'
asbag57
(g78
g59
NtRp5810
(dp5811
g62
(dp5812
sg71
g5797
sg64
(lp5813
g57
(g58
g59
NtRp5814
(dp5815
g62
(dp5816
g70
I5
ssg71
g5810
sg64
(lp5817
S'None'
p5818
asbasbasbag57
(g73
g59
NtRp5819
(dp5820
g62
(dp5821
sg71
g4442
sg64
(lp5822
g57
(g78
g59
NtRp5823
(dp5824
g62
(dp5825
g82
g83
ssg71
g5819
sg64
(lp5826
S'session_data_name'
p5827
asbag57
(g78
g59
NtRp5828
(dp5829
g62
(dp5830
g89
g90
ssg71
g5819
sg64
(lp5831
S':'
asbag57
(g78
g59
NtRp5832
(dp5833
g62
(dp5834
sg71
g5819
sg64
(lp5835
g57
(g58
g59
NtRp5836
(dp5837
g62
(dp5838
g70
I5
ssg71
g5832
sg64
(lp5839
S'session_data_garbage_truck'
p5840
asbasbasbag57
(g73
g59
NtRp5841
(dp5842
g62
(dp5843
sg71
g4442
sg64
(lp5844
g57
(g78
g59
NtRp5845
(dp5846
g62
(dp5847
g82
g83
ssg71
g5841
sg64
(lp5848
S'session_file'
p5849
asbag57
(g78
g59
NtRp5850
(dp5851
g62
(dp5852
g89
g90
ssg71
g5841
sg64
(lp5853
S':'
asbag57
(g78
g59
NtRp5854
(dp5855
g62
(dp5856
sg71
g5841
sg64
(lp5857
g57
(g58
g59
NtRp5858
(dp5859
g62
(dp5860
g70
I5
ssg71
g5854
sg64
(lp5861
S"<open file '/home/darshan/web2py/applications/Garbage_Truck/sessions/127.0.0.1-eb5e8630-3789-44cf-90c0-4c0a37fc535a', mode 'rb+' at 0x7f9289bda9c0>"
p5862
asbasbasbag57
(g73
g59
NtRp5863
(dp5864
g62
(dp5865
sg71
g4442
sg64
(lp5866
g57
(g78
g59
NtRp5867
(dp5868
g62
(dp5869
g82
g83
ssg71
g5863
sg64
(lp5870
S'session_filename'
p5871
asbag57
(g78
g59
NtRp5872
(dp5873
g62
(dp5874
g89
g90
ssg71
g5863
sg64
(lp5875
S':'
asbag57
(g78
g59
NtRp5876
(dp5877
g62
(dp5878
sg71
g5863
sg64
(lp5879
g57
(g58
g59
NtRp5880
(dp5881
g62
(dp5882
g70
I5
ssg71
g5876
sg64
(lp5883
S'/home/darshan/web2py/applications/Garbage_Truck/sessions/127.0.0.1-eb5e8630-3789-44cf-90c0-4c0a37fc535a'
p5884
asbasbasbag57
(g73
g59
NtRp5885
(dp5886
g62
(dp5887
sg71
g4442
sg64
(lp5888
g57
(g78
g59
NtRp5889
(dp5890
g62
(dp5891
g82
g83
ssg71
g5885
sg64
(lp5892
S'session_id'
p5893
asbag57
(g78
g59
NtRp5894
(dp5895
g62
(dp5896
g89
g90
ssg71
g5885
sg64
(lp5897
S':'
asbag57
(g78
g59
NtRp5898
(dp5899
g62
(dp5900
sg71
g5885
sg64
(lp5901
g57
(g58
g59
NtRp5902
(dp5903
g62
(dp5904
g70
I5
ssg71
g5898
sg64
(lp5905
g661
asbasbasbag57
(g73
g59
NtRp5906
(dp5907
g62
(dp5908
sg71
g4442
sg64
(lp5909
g57
(g78
g59
NtRp5910
(dp5911
g62
(dp5912
g82
g83
ssg71
g5906
sg64
(lp5913
S'session_id_name'
p5914
asbag57
(g78
g59
NtRp5915
(dp5916
g62
(dp5917
g89
g90
ssg71
g5906
sg64
(lp5918
S':'
asbag57
(g78
g59
NtRp5919
(dp5920
g62
(dp5921
sg71
g5906
sg64
(lp5922
g57
(g58
g59
NtRp5923
(dp5924
g62
(dp5925
g70
I5
ssg71
g5919
sg64
(lp5926
g4499
asbasbasbag57
(g73
g59
NtRp5927
(dp5928
g62
(dp5929
sg71
g4442
sg64
(lp5930
g57
(g78
g59
NtRp5931
(dp5932
g62
(dp5933
g82
g83
ssg71
g5927
sg64
(lp5934
S'session_locked'
p5935
asbag57
(g78
g59
NtRp5936
(dp5937
g62
(dp5938
g89
g90
ssg71
g5927
sg64
(lp5939
S':'
asbag57
(g78
g59
NtRp5940
(dp5941
g62
(dp5942
sg71
g5927
sg64
(lp5943
g57
(g58
g59
NtRp5944
(dp5945
g62
(dp5946
g70
I5
ssg71
g5940
sg64
(lp5947
g2370
asbasbasbag57
(g73
g59
NtRp5948
(dp5949
g62
(dp5950
sg71
g4442
sg64
(lp5951
g57
(g78
g59
NtRp5952
(dp5953
g62
(dp5954
g82
g83
ssg71
g5948
sg64
(lp5955
S'session_new'
p5956
asbag57
(g78
g59
NtRp5957
(dp5958
g62
(dp5959
g89
g90
ssg71
g5948
sg64
(lp5960
S':'
asbag57
(g78
g59
NtRp5961
(dp5962
g62
(dp5963
sg71
g5948
sg64
(lp5964
g57
(g58
g59
NtRp5965
(dp5966
g62
(dp5967
g70
I5
ssg71
g5961
sg64
(lp5968
g100
asbasbasbag57
(g73
g59
NtRp5969
(dp5970
g62
(dp5971
sg71
g4442
sg64
(lp5972
g57
(g78
g59
NtRp5973
(dp5974
g62
(dp5975
g82
g83
ssg71
g5969
sg64
(lp5976
S'session_storage_type'
p5977
asbag57
(g78
g59
NtRp5978
(dp5979
g62
(dp5980
g89
g90
ssg71
g5969
sg64
(lp5981
S':'
asbag57
(g78
g59
NtRp5982
(dp5983
g62
(dp5984
sg71
g5969
sg64
(lp5985
g57
(g58
g59
NtRp5986
(dp5987
g62
(dp5988
g70
I5
ssg71
g5982
sg64
(lp5989
g3843
asbasbasbag57
(g73
g59
NtRp5990
(dp5991
g62
(dp5992
sg71
g4442
sg64
(lp5993
g57
(g78
g59
NtRp5994
(dp5995
g62
(dp5996
g82
g83
ssg71
g5990
sg64
(lp5997
S'status'
p5998
asbag57
(g78
g59
NtRp5999
(dp6000
g62
(dp6001
g89
g90
ssg71
g5990
sg64
(lp6002
S':'
asbag57
(g78
g59
NtRp6003
(dp6004
g62
(dp6005
sg71
g5990
sg64
(lp6006
g57
(g58
g59
NtRp6007
(dp6008
g62
(dp6009
g70
I5
ssg71
g6003
sg64
(lp6010
S'200'
p6011
asbasbasbag57
(g73
g59
NtRp6012
(dp6013
g62
(dp6014
sg71
g4442
sg64
(lp6015
g57
(g78
g59
NtRp6016
(dp6017
g62
(dp6018
g82
g83
ssg71
g6012
sg64
(lp6019
S'subtitle'
p6020
asbag57
(g78
g59
NtRp6021
(dp6022
g62
(dp6023
g89
g90
ssg71
g6012
sg64
(lp6024
S':'
asbag57
(g78
g59
NtRp6025
(dp6026
g62
(dp6027
sg71
g6012
sg64
(lp6028
g57
(g58
g59
NtRp6029
(dp6030
g62
(dp6031
g70
I5
ssg71
g6025
sg64
(lp6032
g4976
(S's\r\x00\x00\x00customize me!'
tRp6033
asbasbasbag57
(g73
g59
NtRp6034
(dp6035
g62
(dp6036
sg71
g4442
sg64
(lp6037
g57
(g78
g59
NtRp6038
(dp6039
g62
(dp6040
g82
g83
ssg71
g6034
sg64
(lp6041
S'title'
p6042
asbag57
(g78
g59
NtRp6043
(dp6044
g62
(dp6045
g89
g90
ssg71
g6034
sg64
(lp6046
S':'
asbag57
(g78
g59
NtRp6047
(dp6048
g62
(dp6049
sg71
g6034
sg64
(lp6050
g57
(g58
g59
NtRp6051
(dp6052
g62
(dp6053
g70
I5
ssg71
g6047
sg64
(lp6054
S'Garbage Truck'
p6055
asbasbasbag57
(g73
g59
NtRp6056
(dp6057
g62
(dp6058
sg71
g4442
sg64
(lp6059
g57
(g78
g59
NtRp6060
(dp6061
g62
(dp6062
g82
g83
ssg71
g6056
sg64
(lp6063
S'view'
p6064
asbag57
(g78
g59
NtRp6065
(dp6066
g62
(dp6067
g89
g90
ssg71
g6056
sg64
(lp6068
S':'
asbag57
(g78
g59
NtRp6069
(dp6070
g62
(dp6071
sg71
g6056
sg64
(lp6072
g57
(g58
g59
NtRp6073
(dp6074
g62
(dp6075
g70
I5
ssg71
g6069
sg64
(lp6076
S'default/request_urgent_view.html'
p6077
asbasbasbasbasbsS'locals'
p6078
(dp6079
S'i'
S"<Row {'request_festive': {'user_id': 1, 'comment...n_key': '', 'email': 'darshan_wal@yahoo.co.in'}}>"
p6080
sS's'
S'<Rows (1)>'
p6081
sS'd'
g45
sssS'traceback'
p6082
S'Traceback (most recent call last):\n  File "/home/darshan/web2py/gluon/restricted.py", line 212, in restricted\n    exec ccode in environment\n  File "/home/darshan/web2py/applications/Garbage_Truck/controllers/default.py", line 176, in <module>\n  File "/home/darshan/web2py/gluon/globals.py", line 193, in <lambda>\n    self._caller = lambda f: f()\n  File "/home/darshan/web2py/gluon/tools.py", line 2929, in f\n    return action(*a, **b)\n  File "/home/darshan/web2py/gluon/tools.py", line 2929, in f\n    return action(*a, **b)\n  File "/home/darshan/web2py/applications/Garbage_Truck/controllers/default.py", line 101, in request_urgent_view\n    dat = i.request_festive.request_now.date()\nAttributeError: \'Row\' object has no attribute \'request_now\'\n'
p6083
s.